(dp1
S'output'
p2
S"<type 'exceptions.TypeError'> __init__() got an unexpected keyword argument 'format'"
p3
sS'layer'
p4
S'/Users/james/Documents/Dropbox/Uni/Year 4/iapt/assessment/web2py-2.9.11/web2py/applications/bootup/models/db.py'
p5
sS'code'
p6
S'from itertools import groupby\n\ndb = DAL(\'sqlite://bootup.db\',pool_size=1,check_reserved=[\'sqlite\'],migrate=False)\nauth = BootUpAuth(db)\n\ndb.define_table(\'category\',\n                Field(\'idcategory\',type=\'id\'),\n                Field(\'name\'),\n                Field(\'url\'))\n\n\ndb.define_table(\'user\',\n                Field(\'iduser\', type=\'id\', readable=False, writable=False, default=None),\n                Field(\'realname\',label=\'Name\', requires=[\n                    IS_LENGTH(minsize=1, error_message=\'Please enter your name\'),\n                    IS_LENGTH(maxsize=200, error_message=\'Please enter a shorter name\'),\n\n                ]),\n                Field(\'username\',label=\'Username\',requires=[\n                    IS_LENGTH(minsize=1, error_message=\'Please choose a username\'),\n                    IS_LENGTH(maxsize=60, error_message=\'Please chose a shorter username\'),\n                    IS_NOT_IN_DB(db,\'user.username\',error_message="Username is already taken")\n                ]),\n                Field(\'dateofbirth\',type=\'date\', label=\'Date of Birth\', requires=[\n                    IS_DATE(error_message=\'Please enter a date\'),\n                    #IS_DATE_IN_RANGE(error_message=\'Please enter a date in the recent past\')\n                ]),\n                Field.Method(\'age\', lambda row: request.now.year-row.dateofbirth.year\n                    if (request.now.month, request.now.day) >= (row.dateofbirth.month, row.dateofbirth.day) else\n                    request.now.year-row.dateofbirth.year-1),\n                Field.Method(\'expectedrewards\', lambda row: groupby(\n                    db(\n                        (db.expectedrewards.userid==row.user.iduser) &\n                        (db.expectedrewards.projectid==db.project.idproject) &\n                        (db.pledge.idpledge==db.expectedrewards.pledgeid) &\n                        projectstats)\n                    .select(db.expectedrewards.ALL,\n                            db.project.ALL,\n                            db.projectstat.ALL,\n                            db.pledge.ALL\n\n                            ),\n                    key=lambda item:item.project.idproject))\n)\n\n\n#As primary key is a reference to user, the type=\'id\' parameter cannot be set, use the primarykey= kwarg instead\ndb.define_table(\'credential\',\n                Field(\'userid\',type=\'reference user\', readable=False,writable=False),\n                Field(\'passwordhash\', writable=False, readable=False),\n                Field(\'passwordsalt\', writable=False, readable=False),\n                primarykey=[\'userid\']\n    )\n\n\n#There is a limitation with web2py that type=\'id\' only supports integer types,\n#as country code is a string, the primary key must be defined using the primarykey kwarg\ndb.define_table(\'country\',\n                Field(\'code\'),\n                Field(\'name\'),\n                primarykey=[\'code\'])\n\n\n#had to remove explicit reference to country code as for some reason web2py restricts all references to be numeric\n#to maintain constraint, the IS_IN_DB validator is used\ndb.define_table(\'address\',\n                Field(\'idaddress\',type=\'id\', readable=False, writable=False),\n                Field(\'street\', label=\'Street\', requires=[\n                    IS_LENGTH(minsize=1, error_message=\'Please enter your street address\'),\n                    IS_LENGTH(maxsize=100, error_message=\'Please enter a shorter street address\')\n                ]),\n                Field(\'city\', label=\'City\', requires=[\n                    IS_LENGTH(minsize=1, error_message=\'Please enter your city\'),\n                    IS_LENGTH(maxsize=100, error_message=\'Please enter a shorter city name\')\n                ]),\n                Field(\'postcode\', label=\'Post Code\', requires=[\n                    IS_MATCH(\'[a-zA-Z0-9]{4} [a-zA-Z0-9]{3}\',error_message=\'Postcode must be in the format XXXX XXX\')\n                ]),\n                Field(\'countrycode\',type=\'string\', requires=IS_IN_DB(db, db.country.code,\'%(name)s\',\n                                   zero=\'Select A Country\',\n                                   error_message=\'Please choose your country\'\n                                   )),\n                Field(\'userid\',type=\'reference user\',\n                      requires=IS_IN_DB(db,db.user.iduser),\n                      readable=False, writable=False)\n    )\n\n\n\n\n\n\n\ndb.define_table(\'project\',\n                Field(\'idproject\',type=\'id\',readable=False,writable=False),\n                Field(\'title\',\n                      type=\'string\',\n                      label=\'Project Name\',\n                      requires= [\n                        IS_LENGTH(60,error_message=\'Project title must be shorter than 60 characters\'),\n                        IS_NOT_EMPTY(error_message=\'Project must have a title\')\n                      ]),\n\n                Field(\'shortdescription\',\n                      label=\'Quick Summary\',\n                      type=\'text\',\n                      requires=[\n                          IS_LENGTH(120, error_message=\'Project summary must be shorter than 120 characters\'),\n                          IS_NOT_EMPTY(error_message=\'Project summary must be filled in\')\n                      ]),\n\n                Field(\'longdescription\',\n                      label=\'Description\',\n                      type=\'text\',\n                      requires=[\n                            IS_NOT_EMPTY(error_message=\'Project description must be filled in\')\n                      ]),\n\n                Field(\'story\',\n                      label=\'Project Story\',\n                      type=\'text\',\n                      requires=[\n                          IS_NOT_EMPTY(error_message=\'Project story must be filled in\')\n                      ]),\n\n                Field(\'goal\',\n                      label=\'Funding Goal\',\n                      type=\'decimal(10,2)\',\n                      requires=[\n                          IS_DECIMAL_IN_RANGE(minimum=100,error_message="Please enter a project goal greater than &pound;100"),\n                          IS_DECIMAL_IN_RANGE(maximum=10**8,error_message="Your project goal is too optimistic. Please chose a lower goal"),\n                                ]),\n\n                Field(\'categoryid\',\n                      type=\'reference category\',\n                      label=\'Category\',\n                      requires=IS_IN_DB(db, db.category.idcategory,\'%(name)s\',\n                                   zero=\'Select A Category\',\n                                   error_message=\'Please choose a category\'\n                                   )\n                ),\n\n                Field(\'managerid\',\n                      type=\'reference user\',\n                      requires=IS_IN_DB(db,db.user.iduser),\n                      default=auth.user_id,\n                      readable=False,\n                      writable=False\n                      ),\n\n                Field(\'imageurl\',type=\'upload\',label="Project Image",autodelete=True,required=[\n                    IS_IMAGE(error_message="File must be image"),\n                    IS_NOT_EMPTY(error_message="Please choose an image")]),\n\n                Field.Method(\'canopen\', lambda row:  auth.user_id==row.project.managerid and db(db.openproject.projectid==row.project.idproject).count()==0),\n                Field.Method(\'canclose\', lambda row: auth.user_id==row.project.managerid and db(db.openproject.projectid==row.project.idproject).count()==1 and db(db.closedproject.openprojectid==row.project.idproject).count()==0),\n                Field.Method(\'candelete\', lambda row: auth.user_id==row.project.managerid and (db(db.openproject.projectid==row.project.idproject).count()==0 or db(db.closedproject.openprojectid==row.project.idproject).count()==1)),\n                Field.Method(\'canedit\', lambda row: auth.user_id==row.project.managerid and db(db.openproject.projectid==row.project.idproject).count()==0),\n\n                Field.Method(\'hascontributed\', lambda row: db((db.booting.openprojectid==row.project.idproject) & (db.booting.userid == auth.user_id)).count() > 0),\n                Field.Method(\'pledges\', lambda row: db((db.pledge.projectid==row.project.idproject) & pledgestats).select(db.pledge.ALL,db.pledgestat.ALL, orderby=db.pledge.value)),\n                Field.Method(\'expectedrewards\', lambda row:  groupby(db((db.expectedrewards.projectid==row.project.idproject) & (db.user.id==db.expectedrewards.userid)).select(db.expectedrewards.ALL,db.user.ALL),key=lambda item:item.user.username)),\n                Field.Method(\'rewards\',lambda row: db(db.reward.projectid==row.project.idproject).select())\n)\n\ndb.define_table(\'pledge\',\n                Field(\'idpledge\', type=\'id\', readable=False, writable=False, default=None),\n                Field(\'description\',type=\'text\',requires=[\n                    IS_LENGTH(minsize=1,error_message=\'Please enter a description\'),\n                    IS_LENGTH(maxsize=60, error_message=\'Maximum length of pledge description is 60 characters\')\n                ]),\n                Field(\'value\',type=\'decimal(10,2)\',requires=[\n                    IS_DECIMAL_IN_RANGE(minimum=1, error_message=\'Please enter a suitable value for this pledge level\'),\n                    IS_DECIMAL_IN_RANGE(maximum=10000, error_message=\'The chosen pledge value is too high. Crowd funding relies on lots of people pledging small amounts. Why not choose something a bit lower?\')\n                ]),\n                Field(\'projectid\', type=\'reference project\', writable=False, readable=False, requires=IS_IN_DB(db,db.project.idproject)),\n                Field.Method(\'rewards\',lambda row:\n                    db((db.rewardpledge.pledgeid==row.pledge.idpledge)&(db.reward.idreward==db.rewardpledge.rewardid)).select(db.reward.ALL)),\n                Field(\'rewards2\',"list reference rewardpledge",requires=IS_IN_DB(db,\'reward.idreward\',format=\'description\', multiple=True)))\n\n\ndb.define_table(\'pledgestat\',\n                Field(\'idpledge\',type=\'id\'),\n                Field(\'projectid\',type=\'integer\'),\n                Field(\'value\',type=\'decimal(10,2)\'),\n                Field(\'pledgecount\',type=\'integer\'),\n                Field(\'totalvalue\',type=\'decimal(10,2)\'))\n\ndb.define_table(\'expectedrewards\',\n                Field(\'userid\',type=\'integer\'),\n                Field(\'projectid\',type=\'integer\'),\n                Field(\'rewardid\',type=\'integer\'),\n                Field(\'pledgeid\',type=\'integer\'),\n                Field(\'rewarddescription\'),\n                Field(\'pledgedescription\'),\n                Field(\'value\',type=\'decimal(10,2)\'),\n                primarykey=[\'userid\',\'projectid\'])\n\ndb.define_table(\'openproject\',\n                Field(\'projectid\', type=\'reference project\', requires=IS_IN_DB(db,db.project.idproject)),\n                Field(\'opendate\', type=\'datetime\', default=request.now),\n                primarykey=[\'projectid\'])\n\ndb.define_table(\'closedproject\',\n                Field(\'openprojectid\', type=\'reference openproject\', requires=IS_IN_DB(db,db.openproject.projectid)),\n                Field(\'closeddate\',type=\'datetime\', default=request.now),\n                primarykey=[\'openprojectid\'])\n\n\n\ndb.define_table(\'reward\',\n                Field(\'idreward\',type=\'id\', readable=False, writable=False, default=None),\n                Field(\'description\',type=\'text\',requires=[\n                    IS_LENGTH(minsize=1,error_message=\'Please enter a description\'),\n                    IS_LENGTH(maxsize=120, error_message=\'Maximum length of pledge description is 120 characters\')\n                ]),\n                Field(\'projectid\', type=\'reference project\', requires=IS_IN_DB(db,db.project.idproject),readable=False,writable=False))\n\n\n#CAVEAT\n#the rewardid and pledgeid fields originally were set to reference the reward and pledge tables. however, web2py is unable\n#to handle a deletion from these tables as it attempts to do the job of the database and cascade the deletion, however as\n#rewardpledge is a weak entity and doesn\'t have a single value as the primary key, web2py borks and is unable to delete\n#a pledge or reward\n#\n#the referential integrity is maintained by the database in this instance. as web2py is not generating the DDL\n#(migrations=False is set), this isn\'t an issue\n#i hate web2py\n\ndb.define_table(\'rewardpledge\',\n                Field(\'rewardid\',type=\'integer\', requires=IS_IN_DB(db,db.reward.idreward,\'%(description)s\')),\n                Field(\'pledgeid\',type=\'integer\', requires=IS_IN_DB(db,db.pledge.idpledge,\'\xc2\xa3%(value)s %(description)s\')),\n                primarykey=[\'rewardid\',\'pledgeid\'])\n\n\ndb.define_table(\'projectstat\',\n                Field(\'idproject\', type=\'id\'),\n                Field(\'goal\',type=\'decimal(10,2)\'),\n                Field(\'progress\', type=\'integer\'),\n                Field(\'funded\',type=\'integer\'),\n                Field(\'bootings\'),\n                Field(\'totalvalue\',type=\'decimal(10,2)\'),\n                Field(\'remaining\',type=\'decimal(10,2)\')\n                )\n\ndb.define_table(\'booting\',\n                Field(\'idbooting\',type=\'id\'),\n                Field(\'userid\', type=\'integer\'),\n                Field(\'openprojectid\',type=\'integer\'),\n                Field(\'pledgeid\',type=\'integer\'))\n\n\n\nmyprojects = (db.project.managerid == auth.user_id)\n\nclosedprojects  = (db.project.idproject.belongs(db()._select(db.closedproject.openprojectid)))\nopenprojects    = (db.project.idproject.belongs(db()._select(db.openproject.projectid)))\n\n\nincludeopendate = (db.project.idproject==db.openproject.projectid)\n\nnotstartedprojects = (~openprojects & ~closedprojects)\n\nprojectstats = (db.project.idproject == db.projectstat.idproject)\npledgestats = (db.pledge.idpledge == db.pledgestat.idpledge)\nfundedprojects = (db.projectstat.funded==1)\nnotfundedprojects = (db.projectstat.funded==0)\n\nsearchableprojects = (openprojects | closedprojects)\n'
p7
sS'snapshot'
p8
(dp9
S'exception'
p10
(dp11
S'__hash__'
p12
S"<method-wrapper '__hash__' of exceptions.TypeError object>"
p13
sS'__setattr__'
p14
S"<method-wrapper '__setattr__' of exceptions.TypeError object>"
p15
sS'__reduce_ex__'
p16
S'<built-in method __reduce_ex__ of exceptions.TypeError object>'
p17
sS'__getslice__'
p18
S"<method-wrapper '__getslice__' of exceptions.TypeError object>"
p19
sS'__getitem__'
p20
S"<method-wrapper '__getitem__' of exceptions.TypeError object>"
p21
sS'__setstate__'
p22
S'<built-in method __setstate__ of exceptions.TypeError object>'
p23
sS'args'
p24
S'("__init__() got an unexpected keyword argument \'format\'",)'
p25
sS'__reduce__'
p26
S'<built-in method __reduce__ of exceptions.TypeError object>'
p27
sS'__str__'
p28
S"<method-wrapper '__str__' of exceptions.TypeError object>"
p29
sS'__format__'
p30
S'<built-in method __format__ of exceptions.TypeError object>'
p31
sS'__getattribute__'
p32
S"<method-wrapper '__getattribute__' of exceptions.TypeError object>"
p33
sS'__class__'
p34
S"<type 'exceptions.TypeError'>"
p35
sS'__unicode__'
p36
S'<built-in method __unicode__ of exceptions.TypeError object>'
p37
sS'__delattr__'
p38
S"<method-wrapper '__delattr__' of exceptions.TypeError object>"
p39
sS'__subclasshook__'
p40
S'<built-in method __subclasshook__ of type object>'
p41
sS'__repr__'
p42
S"<method-wrapper '__repr__' of exceptions.TypeError object>"
p43
sS'__dict__'
p44
S'{}'
p45
sS'__sizeof__'
p46
S'<built-in method __sizeof__ of exceptions.TypeError object>'
p47
sS'__doc__'
p48
S"'Inappropriate argument type.'"
p49
sS'__init__'
p50
S"<method-wrapper '__init__' of exceptions.TypeError object>"
p51
sS'__new__'
p52
S'<built-in method __new__ of type object>'
p53
ssS'evalue'
p54
S"__init__() got an unexpected keyword argument 'format'"
p55
sS'request'
p56
cgluon.html
XML_unpickle
p57
(S's\x15X\x00\x00<div><table><tr><td style="font-weight:bold;vertical-align:top;">ajax</td><td style="vertical-align:top;">:</td><td><div>False</div></td></tr><tr><td style="font-weight:bold;vertical-align:top;">application</td><td style="vertical-align:top;">:</td><td><div>bootup</div></td></tr><tr><td style="font-weight:bold;vertical-align:top;">args</td><td style="vertical-align:top;">:</td><td><div><table><tr><td><div>11</div></td></tr></table></div></td></tr><tr><td style="font-weight:bold;vertical-align:top;">cid</td><td style="vertical-align:top;">:</td><td><div>None</div></td></tr><tr><td style="font-weight:bold;vertical-align:top;">client</td><td style="vertical-align:top;">:</td><td><div>127.0.0.1</div></td></tr><tr><td style="font-weight:bold;vertical-align:top;">controller</td><td style="vertical-align:top;">:</td><td><div>pledge</div></td></tr><tr><td style="font-weight:bold;vertical-align:top;">cookies</td><td style="vertical-align:top;">:</td><td><div><table><tr><td style="font-weight:bold;vertical-align:top;">session_id_admin</td><td style="vertical-align:top;">:</td><td><div>127.0.0.1-d5f035ce-fe78-483c-907e-4bbdee1f8d57<table><tr><td style="font-weight:bold;vertical-align:top;">comment</td><td style="vertical-align:top;">:</td><td><div></div></td></tr><tr><td style="font-weight:bold;vertical-align:top;">domain</td><td style="vertical-align:top;">:</td><td><div></div></td></tr><tr><td style="font-weight:bold;vertical-align:top;">expires</td><td style="vertical-align:top;">:</td><td><div></div></td></tr><tr><td style="font-weight:bold;vertical-align:top;">httponly</td><td style="vertical-align:top;">:</td><td><div></div></td></tr><tr><td style="font-weight:bold;vertical-align:top;">max-age</td><td style="vertical-align:top;">:</td><td><div></div></td></tr><tr><td style="font-weight:bold;vertical-align:top;">path</td><td style="vertical-align:top;">:</td><td><div></div></td></tr><tr><td style="font-weight:bold;vertical-align:top;">secure</td><td style="vertical-align:top;">:</td><td><div></div></td></tr><tr><td style="font-weight:bold;vertical-align:top;">version</td><td style="vertical-align:top;">:</td><td><div></div></td></tr></table></div></td></tr><tr><td style="font-weight:bold;vertical-align:top;">session_id_bootup</td><td style="vertical-align:top;">:</td><td><div>127.0.0.1-6543c37b-0e7c-4341-b2b0-67667ed320d5<table><tr><td style="font-weight:bold;vertical-align:top;">comment</td><td style="vertical-align:top;">:</td><td><div></div></td></tr><tr><td style="font-weight:bold;vertical-align:top;">domain</td><td style="vertical-align:top;">:</td><td><div></div></td></tr><tr><td style="font-weight:bold;vertical-align:top;">expires</td><td style="vertical-align:top;">:</td><td><div></div></td></tr><tr><td style="font-weight:bold;vertical-align:top;">httponly</td><td style="vertical-align:top;">:</td><td><div></div></td></tr><tr><td style="font-weight:bold;vertical-align:top;">max-age</td><td style="vertical-align:top;">:</td><td><div></div></td></tr><tr><td style="font-weight:bold;vertical-align:top;">path</td><td style="vertical-align:top;">:</td><td><div></div></td></tr><tr><td style="font-weight:bold;vertical-align:top;">secure</td><td style="vertical-align:top;">:</td><td><div></div></td></tr><tr><td style="font-weight:bold;vertical-align:top;">version</td><td style="vertical-align:top;">:</td><td><div></div></td></tr></table></div></td></tr></table></div></td></tr><tr><td style="font-weight:bold;vertical-align:top;">env</td><td style="vertical-align:top;">:</td><td><div><table><tr><td style="font-weight:bold;vertical-align:top;">HTTP_ACCEPT</td><td style="vertical-align:top;">:</td><td><div>text/html,application/xhtml+xml,application/xml;q=0.9,image/webp,*/*;q=0.8</div></td></tr><tr><td style="font-weight:bold;vertical-align:top;">HTTP_ACCEPT_ENCODING</td><td style="vertical-align:top;">:</td><td><div>gzip,deflate,sdch</div></td></tr><tr><td style="font-weight:bold;vertical-align:top;">HTTP_ACCEPT_LANGUAGE</td><td style="vertical-align:top;">:</td><td><div>en-US,en;q=0.8</div></td></tr><tr><td style="font-weight:bold;vertical-align:top;">HTTP_CACHE_CONTROL</td><td style="vertical-align:top;">:</td><td><div>max-age=0</div></td></tr><tr><td style="font-weight:bold;vertical-align:top;">HTTP_CONNECTION</td><td style="vertical-align:top;">:</td><td><div>keep-alive</div></td></tr><tr><td style="font-weight:bold;vertical-align:top;">HTTP_COOKIE</td><td style="vertical-align:top;">:</td><td><div>session_id_admin=127.0.0.1-d5f035ce-fe78-483c-907e-4bbdee1f8d57; session_id_bootup=127.0.0.1-6543c37b-0e7c-4341-b2b0-67667ed320d5</div></td></tr><tr><td style="font-weight:bold;vertical-align:top;">HTTP_HOST</td><td style="vertical-align:top;">:</td><td><div>127.0.0.1:8000</div></td></tr><tr><td style="font-weight:bold;vertical-align:top;">HTTP_USER_AGENT</td><td style="vertical-align:top;">:</td><td><div>Mozilla/5.0 (Macintosh; Intel Mac OS X 10_9_4) AppleWebKit/537.36 (KHTML, like Gecko) Chrome/38.0.2125.122 Safari/537.36</div></td></tr><tr><td style="font-weight:bold;vertical-align:top;">PATH_INFO</td><td style="vertical-align:top;">:</td><td><div>/bootup/pledge/create/11</div></td></tr><tr><td style="font-weight:bold;vertical-align:top;">QUERY_STRING</td><td style="vertical-align:top;">:</td><td><div></div></td></tr><tr><td style="font-weight:bold;vertical-align:top;">REMOTE_ADDR</td><td style="vertical-align:top;">:</td><td><div>127.0.0.1</div></td></tr><tr><td style="font-weight:bold;vertical-align:top;">REMOTE_PORT</td><td style="vertical-align:top;">:</td><td><div>51407</div></td></tr><tr><td style="font-weight:bold;vertical-align:top;">REQUEST_METHOD</td><td style="vertical-align:top;">:</td><td><div>GET</div></td></tr><tr><td style="font-weight:bold;vertical-align:top;">SCRIPT_NAME</td><td style="vertical-align:top;">:</td><td><div></div></td></tr><tr><td style="font-weight:bold;vertical-align:top;">SERVER_NAME</td><td style="vertical-align:top;">:</td><td><div>jt-mbp.default</div></td></tr><tr><td style="font-weight:bold;vertical-align:top;">SERVER_PORT</td><td style="vertical-align:top;">:</td><td><div>8000</div></td></tr><tr><td style="font-weight:bold;vertical-align:top;">SERVER_PROTOCOL</td><td style="vertical-align:top;">:</td><td><div>HTTP/1.1</div></td></tr><tr><td style="font-weight:bold;vertical-align:top;">SERVER_SOFTWARE</td><td style="vertical-align:top;">:</td><td><div>Rocket 1.2.6</div></td></tr><tr><td style="font-weight:bold;vertical-align:top;">app_folders</td><td style="vertical-align:top;">:</td><td><div>set([&#x27;/Users/james/Documents/Dropbox/Uni/Year 4/iapt/assessment/web2py-2.9.11/web2py/applications/admin/&#x27;, &#x27;/Users/james/Documents/Dropbox/Uni/Year 4/iapt/assessment/web2py-2.9.11/web2py/applications/bootup/&#x27;])</div></td></tr><tr><td style="font-weight:bold;vertical-align:top;">applications_parent</td><td style="vertical-align:top;">:</td><td><div>/Users/james/Documents/Dropbox/Uni/Year 4/iapt/assessment/web2py-2.9.11/web2py</div></td></tr><tr><td style="font-weight:bold;vertical-align:top;">cmd_args</td><td style="vertical-align:top;">:</td><td><div><table></table></div></td></tr><tr><td style="font-weight:bold;vertical-align:top;">cmd_options</td><td style="vertical-align:top;">:</td><td><div>&lt;Values at 0x10522e2d8: {&#x27;verbose&#x27;: False, &#x27;ip&#x27;: &#x27;127.0.0.1&#x27;, &#x27;debuglevel&#x27;: 30, &#x27;with_scheduler&#x27;: False, &#x27;ips&#x27;: [&#x27;192.168.1.105&#x27;], &#x27;shutdown_timeout&#x27;: 5, &#x27;taskbar&#x27;: False, &#x27;with_coverage&#x27;: False, &#x27;scheduler_groups&#x27;: None, &#x27;port&#x27;: 8000, &#x27;maxthreads&#x27;: None, &#x27;softcron&#x27;: False, &#x27;server_name&#x27;: &#x27;jt-mbp.default&#x27;, &#x27;bpython&#x27;: False, &#x27;nogui&#x27;: False, &#x27;pid_filename&#x27;: &#x27;httpserver.pid&#x27;, &#x27;extcron&#x27;: False, &#x27;runcron&#x27;: False, &#x27;run_system_tests&#x27;: False, &#x27;test&#x27;: None, &#x27;folder&#x27;: &#x27;/Users/james/Documents/Dropbox/Uni/Year 4/iapt/assessment/web2py-2.9.11/web2py&#x27;, &#x27;config&#x27;: &#x27;&#x27;, &#x27;minthreads&#x27;: None, &#x27;shell&#x27;: None, &#x27;run&#x27;: &#x27;&#x27;, &#x27;log_filename&#x27;: &#x27;httpserver.log&#x27;, &#x27;profiler_dir&#x27;: None, &#x27;args&#x27;: [&#x27;&#x27;], &#x27;socket_timeout&#x27;: 5, &#x27;ssl_ca_certificate&#x27;: None, &#x27;scheduler&#x27;: None, &#x27;interfaces&#x27;: None, &#x27;ssl_private_key&#x27;: &#x27;&#x27;, &#x27;gae&#x27;: None, &#x27;password&#x27;: &#x27;&lt;ask&gt;&#x27;, &#x27;request_queue_size&#x27;: 5, &#x27;ssl_certificate&#x27;: &#x27;&#x27;, &#x27;cronjob&#x27;: False, &#x27;numthreads&#x27;: None, &#x27;quiet&#x27;: False, &#x27;import_models&#x27;: False, &#x27;timeout&#x27;: 10, &#x27;plain&#x27;: False, &#x27;nobanner&#x27;: False}&gt;</div></td></tr><tr><td style="font-weight:bold;vertical-align:top;">db_sessions</td><td style="vertical-align:top;">:</td><td><div>set([])</div></td></tr><tr><td style="font-weight:bold;vertical-align:top;">debugging</td><td style="vertical-align:top;">:</td><td><div>False</div></td></tr><tr><td style="font-weight:bold;vertical-align:top;">gluon_parent</td><td style="vertical-align:top;">:</td><td><div>/Users/james/Documents/Dropbox/Uni/Year 4/iapt/assessment/web2py-2.9.11/web2py</div></td></tr><tr><td style="font-weight:bold;vertical-align:top;">http_accept</td><td style="vertical-align:top;">:</td><td><div>text/html,application/xhtml+xml,application/xml;q=0.9,image/webp,*/*;q=0.8</div></td></tr><tr><td style="font-weight:bold;vertical-align:top;">http_accept_encoding</td><td style="vertical-align:top;">:</td><td><div>gzip,deflate,sdch</div></td></tr><tr><td style="font-weight:bold;vertical-align:top;">http_accept_language</td><td style="vertical-align:top;">:</td><td><div>en-US,en;q=0.8</div></td></tr><tr><td style="font-weight:bold;vertical-align:top;">http_cache_control</td><td style="vertical-align:top;">:</td><td><div>max-age=0</div></td></tr><tr><td style="font-weight:bold;vertical-align:top;">http_connection</td><td style="vertical-align:top;">:</td><td><div>keep-alive</div></td></tr><tr><td style="font-weight:bold;vertical-align:top;">http_cookie</td><td style="vertical-align:top;">:</td><td><div>session_id_admin=127.0.0.1-d5f035ce-fe78-483c-907e-4bbdee1f8d57; session_id_bootup=127.0.0.1-6543c37b-0e7c-4341-b2b0-67667ed320d5</div></td></tr><tr><td style="font-weight:bold;vertical-align:top;">http_host</td><td style="vertical-align:top;">:</td><td><div>127.0.0.1:8000</div></td></tr><tr><td style="font-weight:bold;vertical-align:top;">http_user_agent</td><td style="vertical-align:top;">:</td><td><div>Mozilla/5.0 (Macintosh; Intel Mac OS X 10_9_4) AppleWebKit/537.36 (KHTML, like Gecko) Chrome/38.0.2125.122 Safari/537.36</div></td></tr><tr><td style="font-weight:bold;vertical-align:top;">is_jython</td><td style="vertical-align:top;">:</td><td><div>False</div></td></tr><tr><td style="font-weight:bold;vertical-align:top;">is_pypy</td><td style="vertical-align:top;">:</td><td><div>False</div></td></tr><tr><td style="font-weight:bold;vertical-align:top;">is_source</td><td style="vertical-align:top;">:</td><td><div>True</div></td></tr><tr><td style="font-weight:bold;vertical-align:top;">local_hosts</td><td style="vertical-align:top;">:</td><td><div><table><tr><td><div>jt-mbp.default</div></td></tr><tr><td><div>::1</div></td></tr><tr><td><div>::ffff:127.0.0.1</div></td></tr><tr><td><div>127.0.0.1</div></td></tr><tr><td><div>192.168.1.105</div></td></tr></table></div></td></tr><tr><td style="font-weight:bold;vertical-align:top;">path_info</td><td style="vertical-align:top;">:</td><td><div>/bootup/pledge/create/11</div></td></tr><tr><td style="font-weight:bold;vertical-align:top;">query_string</td><td style="vertical-align:top;">:</td><td><div></div></td></tr><tr><td style="font-weight:bold;vertical-align:top;">remote_addr</td><td style="vertical-align:top;">:</td><td><div>127.0.0.1</div></td></tr><tr><td style="font-weight:bold;vertical-align:top;">remote_port</td><td style="vertical-align:top;">:</td><td><div>51407</div></td></tr><tr><td style="font-weight:bold;vertical-align:top;">request_method</td><td style="vertical-align:top;">:</td><td><div>GET</div></td></tr><tr><td style="font-weight:bold;vertical-align:top;">request_uri</td><td style="vertical-align:top;">:</td><td><div>/bootup/pledge/create/11</div></td></tr><tr><td style="font-weight:bold;vertical-align:top;">script_name</td><td style="vertical-align:top;">:</td><td><div></div></td></tr><tr><td style="font-weight:bold;vertical-align:top;">server_name</td><td style="vertical-align:top;">:</td><td><div>jt-mbp.default</div></td></tr><tr><td style="font-weight:bold;vertical-align:top;">server_port</td><td style="vertical-align:top;">:</td><td><div>8000</div></td></tr><tr><td style="font-weight:bold;vertical-align:top;">server_protocol</td><td style="vertical-align:top;">:</td><td><div>HTTP/1.1</div></td></tr><tr><td style="font-weight:bold;vertical-align:top;">server_software</td><td style="vertical-align:top;">:</td><td><div>Rocket 1.2.6</div></td></tr><tr><td style="font-weight:bold;vertical-align:top;">web2py_path</td><td style="vertical-align:top;">:</td><td><div>/Users/james/Documents/Dropbox/Uni/Year 4/iapt/assessment/web2py-2.9.11/web2py</div></td></tr><tr><td style="font-weight:bold;vertical-align:top;">web2py_version</td><td style="vertical-align:top;">:</td><td><div>2.9.11-stable+timestamp.2014.09.15.23.35.11</div></td></tr><tr><td style="font-weight:bold;vertical-align:top;">wsgi.errors</td><td style="vertical-align:top;">:</td><td><div>&lt;open file &#x27;&lt;stderr&gt;&#x27;, mode &#x27;w&#x27; at 0x103b221e0&gt;</div></td></tr><tr><td style="font-weight:bold;vertical-align:top;">wsgi.file_wrapper</td><td style="vertical-align:top;">:</td><td><div>&lt;class wsgiref.util.FileWrapper at 0x104734e20&gt;</div></td></tr><tr><td style="font-weight:bold;vertical-align:top;">wsgi.input</td><td style="vertical-align:top;">:</td><td><div>&lt;socket._fileobject object at 0x10a86cb50&gt;</div></td></tr><tr><td style="font-weight:bold;vertical-align:top;">wsgi.multiprocess</td><td style="vertical-align:top;">:</td><td><div>False</div></td></tr><tr><td style="font-weight:bold;vertical-align:top;">wsgi.multithread</td><td style="vertical-align:top;">:</td><td><div>True</div></td></tr><tr><td style="font-weight:bold;vertical-align:top;">wsgi.run_once</td><td style="vertical-align:top;">:</td><td><div>False</div></td></tr><tr><td style="font-weight:bold;vertical-align:top;">wsgi.url_scheme</td><td style="vertical-align:top;">:</td><td><div>http</div></td></tr><tr><td style="font-weight:bold;vertical-align:top;">wsgi.version</td><td style="vertical-align:top;">:</td><td><div><table><tr><td><div>1</div></td></tr><tr><td><div>0</div></td></tr></table></div></td></tr><tr><td style="font-weight:bold;vertical-align:top;">wsgi_errors</td><td style="vertical-align:top;">:</td><td><div>&lt;open file &#x27;&lt;stderr&gt;&#x27;, mode &#x27;w&#x27; at 0x103b221e0&gt;</div></td></tr><tr><td style="font-weight:bold;vertical-align:top;">wsgi_file_wrapper</td><td style="vertical-align:top;">:</td><td><div>&lt;class wsgiref.util.FileWrapper at 0x104734e20&gt;</div></td></tr><tr><td style="font-weight:bold;vertical-align:top;">wsgi_input</td><td style="vertical-align:top;">:</td><td><div>&lt;socket._fileobject object at 0x10a86cb50&gt;</div></td></tr><tr><td style="font-weight:bold;vertical-align:top;">wsgi_multiprocess</td><td style="vertical-align:top;">:</td><td><div>False</div></td></tr><tr><td style="font-weight:bold;vertical-align:top;">wsgi_multithread</td><td style="vertical-align:top;">:</td><td><div>True</div></td></tr><tr><td style="font-weight:bold;vertical-align:top;">wsgi_run_once</td><td style="vertical-align:top;">:</td><td><div>False</div></td></tr><tr><td style="font-weight:bold;vertical-align:top;">wsgi_url_scheme</td><td style="vertical-align:top;">:</td><td><div>http</div></td></tr><tr><td style="font-weight:bold;vertical-align:top;">wsgi_version</td><td style="vertical-align:top;">:</td><td><div><table><tr><td><div>1</div></td></tr><tr><td><div>0</div></td></tr></table></div></td></tr></table></div></td></tr><tr><td style="font-weight:bold;vertical-align:top;">extension</td><td style="vertical-align:top;">:</td><td><div>html</div></td></tr><tr><td style="font-weight:bold;vertical-align:top;">folder</td><td style="vertical-align:top;">:</td><td><div>/Users/james/Documents/Dropbox/Uni/Year 4/iapt/assessment/web2py-2.9.11/web2py/applications/bootup/</div></td></tr><tr><td style="font-weight:bold;vertical-align:top;">function</td><td style="vertical-align:top;">:</td><td><div>create</div></td></tr><tr><td style="font-weight:bold;vertical-align:top;">global_settings</td><td style="vertical-align:top;">:</td><td><div><table><tr><td style="font-weight:bold;vertical-align:top;">app_folders</td><td style="vertical-align:top;">:</td><td><div>set([&#x27;/Users/james/Documents/Dropbox/Uni/Year 4/iapt/assessment/web2py-2.9.11/web2py/applications/admin/&#x27;, &#x27;/Users/james/Documents/Dropbox/Uni/Year 4/iapt/assessment/web2py-2.9.11/web2py/applications/bootup/&#x27;])</div></td></tr><tr><td style="font-weight:bold;vertical-align:top;">applications_parent</td><td style="vertical-align:top;">:</td><td><div>/Users/james/Documents/Dropbox/Uni/Year 4/iapt/assessment/web2py-2.9.11/web2py</div></td></tr><tr><td style="font-weight:bold;vertical-align:top;">cmd_args</td><td style="vertical-align:top;">:</td><td><div><table></table></div></td></tr><tr><td style="font-weight:bold;vertical-align:top;">cmd_options</td><td style="vertical-align:top;">:</td><td><div>&lt;Values at 0x10522e2d8: {&#x27;verbose&#x27;: False, &#x27;ip&#x27;: &#x27;127.0.0.1&#x27;, &#x27;debuglevel&#x27;: 30, &#x27;with_scheduler&#x27;: False, &#x27;ips&#x27;: [&#x27;192.168.1.105&#x27;], &#x27;shutdown_timeout&#x27;: 5, &#x27;taskbar&#x27;: False, &#x27;with_coverage&#x27;: False, &#x27;scheduler_groups&#x27;: None, &#x27;port&#x27;: 8000, &#x27;maxthreads&#x27;: None, &#x27;softcron&#x27;: False, &#x27;server_name&#x27;: &#x27;jt-mbp.default&#x27;, &#x27;bpython&#x27;: False, &#x27;nogui&#x27;: False, &#x27;pid_filename&#x27;: &#x27;httpserver.pid&#x27;, &#x27;extcron&#x27;: False, &#x27;runcron&#x27;: False, &#x27;run_system_tests&#x27;: False, &#x27;test&#x27;: None, &#x27;folder&#x27;: &#x27;/Users/james/Documents/Dropbox/Uni/Year 4/iapt/assessment/web2py-2.9.11/web2py&#x27;, &#x27;config&#x27;: &#x27;&#x27;, &#x27;minthreads&#x27;: None, &#x27;shell&#x27;: None, &#x27;run&#x27;: &#x27;&#x27;, &#x27;log_filename&#x27;: &#x27;httpserver.log&#x27;, &#x27;profiler_dir&#x27;: None, &#x27;args&#x27;: [&#x27;&#x27;], &#x27;socket_timeout&#x27;: 5, &#x27;ssl_ca_certificate&#x27;: None, &#x27;scheduler&#x27;: None, &#x27;interfaces&#x27;: None, &#x27;ssl_private_key&#x27;: &#x27;&#x27;, &#x27;gae&#x27;: None, &#x27;password&#x27;: &#x27;&lt;ask&gt;&#x27;, &#x27;request_queue_size&#x27;: 5, &#x27;ssl_certificate&#x27;: &#x27;&#x27;, &#x27;cronjob&#x27;: False, &#x27;numthreads&#x27;: None, &#x27;quiet&#x27;: False, &#x27;import_models&#x27;: False, &#x27;timeout&#x27;: 10, &#x27;plain&#x27;: False, &#x27;nobanner&#x27;: False}&gt;</div></td></tr><tr><td style="font-weight:bold;vertical-align:top;">db_sessions</td><td style="vertical-align:top;">:</td><td><div>set([])</div></td></tr><tr><td style="font-weight:bold;vertical-align:top;">debugging</td><td style="vertical-align:top;">:</td><td><div>False</div></td></tr><tr><td style="font-weight:bold;vertical-align:top;">gluon_parent</td><td style="vertical-align:top;">:</td><td><div>/Users/james/Documents/Dropbox/Uni/Year 4/iapt/assessment/web2py-2.9.11/web2py</div></td></tr><tr><td style="font-weight:bold;vertical-align:top;">is_jython</td><td style="vertical-align:top;">:</td><td><div>False</div></td></tr><tr><td style="font-weight:bold;vertical-align:top;">is_pypy</td><td style="vertical-align:top;">:</td><td><div>False</div></td></tr><tr><td style="font-weight:bold;vertical-align:top;">is_source</td><td style="vertical-align:top;">:</td><td><div>True</div></td></tr><tr><td style="font-weight:bold;vertical-align:top;">local_hosts</td><td style="vertical-align:top;">:</td><td><div><table><tr><td><div>jt-mbp.default</div></td></tr><tr><td><div>::1</div></td></tr><tr><td><div>::ffff:127.0.0.1</div></td></tr><tr><td><div>127.0.0.1</div></td></tr><tr><td><div>192.168.1.105</div></td></tr></table></div></td></tr><tr><td style="font-weight:bold;vertical-align:top;">web2py_version</td><td style="vertical-align:top;">:</td><td><div>2.9.11-stable+timestamp.2014.09.15.23.35.11</div></td></tr></table></div></td></tr><tr><td style="font-weight:bold;vertical-align:top;">is_https</td><td style="vertical-align:top;">:</td><td><div>False</div></td></tr><tr><td style="font-weight:bold;vertical-align:top;">is_local</td><td style="vertical-align:top;">:</td><td><div>True</div></td></tr><tr><td style="font-weight:bold;vertical-align:top;">is_restful</td><td style="vertical-align:top;">:</td><td><div>False</div></td></tr><tr><td style="font-weight:bold;vertical-align:top;">is_sheduler</td><td style="vertical-align:top;">:</td><td><div>None</div></td></tr><tr><td style="font-weight:bold;vertical-align:top;">is_shell</td><td style="vertical-align:top;">:</td><td><div>None</div></td></tr><tr><td style="font-weight:bold;vertical-align:top;">now</td><td style="vertical-align:top;">:</td><td><div>datetime.datetime(2014, 11, 25, 0, 7, 22, 605492)</div></td></tr><tr><td style="font-weight:bold;vertical-align:top;">raw_args</td><td style="vertical-align:top;">:</td><td><div>11</div></td></tr><tr><td style="font-weight:bold;vertical-align:top;">raw_extension</td><td style="vertical-align:top;">:</td><td><div>None</div></td></tr><tr><td style="font-weight:bold;vertical-align:top;">url</td><td style="vertical-align:top;">:</td><td><div>/bootup/pledge/create/11</div></td></tr><tr><td style="font-weight:bold;vertical-align:top;">utcnow</td><td style="vertical-align:top;">:</td><td><div>datetime.datetime(2014, 11, 25, 0, 7, 22, 605500)</div></td></tr><tr><td style="font-weight:bold;vertical-align:top;">uuid</td><td style="vertical-align:top;">:</td><td><div>bootup/127.0.0.1.2014-11-25.00-07-22.afc43bc0-c187-476d-b283-11f4ef6ac0ff</div></td></tr><tr><td style="font-weight:bold;vertical-align:top;">wsgi</td><td style="vertical-align:top;">:</td><td><div>&lt;gluon.main.LazyWSGI object at 0x10ab300d0&gt;</div></td></tr></table></div>'
tRp58
sS'frames'
p59
(lp60
(dp61
S'file'
p62
S'/Users/james/Documents/Dropbox/Uni/Year 4/iapt/assessment/web2py-2.9.11/web2py/gluon/restricted.py'
p63
sS'dump'
p64
(dp65
S'environment'
p66
S"{'A': <class 'gluon.html.A'>, 'ANY_OF': <class 'gluon.validators.ANY_OF'>, 'ASSIGNJS': <function ASSIGNJS>, 'B': <class 'gluon.html.B'>, 'BEAUTIFY': <class 'gluon.html.BEAUTIFY'>, 'BODY': <class 'gluon.html.BODY'>, 'BR': <class 'gluon.html.BR'>, 'BUTTON': <class 'gluon.html.BUTTON'>, 'BootUpAuth': <class __restricted__.BootUpAuth>, 'CAT': <class 'gluon.html.CAT'>, ...}"
p67
sS'ccode'
p68
S'<code object <module> at 0x10dff48b0, file "/Use...web2py/applications/bootup/models/db.py", line 1>'
p69
ssS'lnum'
p70
I224
sS'lines'
p71
(dp72
I224
S'        exec ccode in environment'
p73
sI225
S'    except HTTP:'
p74
sI226
S'        raise'
p75
sI227
S'    except RestrictedError:'
p76
sI228
S'        # do not encapsulate (obfuscate) the original RestrictedError'
p77
sI219
S'    try:'
p78
sI220
S'        if isinstance(code, types.CodeType):'
p79
sI221
S'            ccode = code'
p80
sI222
S'        else:'
p81
sI223
S'            ccode = compile2(code, layer)'
p82
ssS'call'
p83
S'(code="from itertools import groupby\\n\\ndb = DAL(\'sqlite:...chableprojects = (openprojects | closedprojects)\\n", environment={\'A\': <class \'gluon.html.A\'>, \'ANY_OF\': <class \'gluon.validators.ANY_OF\'>, \'ASSIGNJS\': <function ASSIGNJS>, \'B\': <class \'gluon.html.B\'>, \'BEAUTIFY\': <class \'gluon.html.BEAUTIFY\'>, \'BODY\': <class \'gluon.html.BODY\'>, \'BR\': <class \'gluon.html.BR\'>, \'BUTTON\': <class \'gluon.html.BUTTON\'>, \'BootUpAuth\': <class __restricted__.BootUpAuth>, \'CAT\': <class \'gluon.html.CAT\'>, ...}, layer=\'/Users/james/Documents/Dropbox/Uni/Year 4/iapt/a...py-2.9.11/web2py/applications/bootup/models/db.py\')'
p84
sS'func'
p85
S'restricted'
p86
sa(dp87
g62
S'/Users/james/Documents/Dropbox/Uni/Year 4/iapt/assessment/web2py-2.9.11/web2py/applications/bootup/models/db.py'
p88
sg64
(dp89
S'multiple'
p90
S'undefined'
p91
sS'builtinTrue'
p92
S'True'
p93
sS'db'
p94
S'<DAL uri="sqlite://bootup.db">'
p95
sS'IS_IN_DB'
p96
S"<class 'gluon.validators.IS_IN_DB'>"
p97
sS'Field'
p98
S"<class 'gluon.dal.Field'>"
p99
sS'builtinformat'
p100
S'<built-in function format>'
p101
sS'requires'
p102
g91
ssg70
I179
sg71
(dp103
I174
S"                    IS_DECIMAL_IN_RANGE(maximum=10000, error_message='The chosen pledge value is too high. Crowd funding relies on lots of people pledging small amounts. Why not choose something a bit lower?')"
p104
sI175
S'                ]),'
p105
sI176
S"                Field('projectid', type='reference project', writable=False, readable=False, requires=IS_IN_DB(db,db.project.idproject)),"
p106
sI177
S"                Field.Method('rewards',lambda row:"
p107
sI178
S'                    db((db.rewardpledge.pledgeid==row.pledge.idpledge)&(db.reward.idreward==db.rewardpledge.rewardid)).select(db.reward.ALL)),'
p108
sI179
S'                Field(\'rewards2\',"list reference rewardpledge",requires=IS_IN_DB(db,\'reward.idreward\',format=\'description\', multiple=True)))'
p109
sI180
S''
sI181
S''
sI182
S"db.define_table('pledgestat',"
p110
sI183
S"                Field('idpledge',type='id'),"
p111
ssg83
S'()'
p112
sg85
S'<module>'
p113
sasS'pyver'
p114
S'Python 2.7.5: /usr/bin/python (prefix: /System/Library/Frameworks/Python.framework/Versions/2.7)'
p115
sS'session'
p116
g57
(S's\x99\x00\x00\x00<div><table><tr><td style="font-weight:bold;vertical-align:top;">user</td><td style="vertical-align:top;">:</td><td><div>1L</div></td></tr></table></div>'
tRp117
sS'etype'
p118
S"<type 'exceptions.TypeError'>"
p119
sS'date'
p120
S'Tue Nov 25 00:07:22 2014'
p121
sS'response'
p122
g57
(S'sW\x18\x00\x00<div><table><tr><td style="font-weight:bold;vertical-align:top;">body</td><td style="vertical-align:top;">:</td><td><div>&lt;cStringIO.StringO object at 0x104593570&gt;</div></td></tr><tr><td style="font-weight:bold;vertical-align:top;">cookies</td><td style="vertical-align:top;">:</td><td><div><table><tr><td style="font-weight:bold;vertical-align:top;">session_id_bootup</td><td style="vertical-align:top;">:</td><td><div>127.0.0.1-6543c37b-0e7c-4341-b2b0-67667ed320d5<table><tr><td style="font-weight:bold;vertical-align:top;">comment</td><td style="vertical-align:top;">:</td><td><div></div></td></tr><tr><td style="font-weight:bold;vertical-align:top;">domain</td><td style="vertical-align:top;">:</td><td><div></div></td></tr><tr><td style="font-weight:bold;vertical-align:top;">expires</td><td style="vertical-align:top;">:</td><td><div></div></td></tr><tr><td style="font-weight:bold;vertical-align:top;">httponly</td><td style="vertical-align:top;">:</td><td><div></div></td></tr><tr><td style="font-weight:bold;vertical-align:top;">max-age</td><td style="vertical-align:top;">:</td><td><div></div></td></tr><tr><td style="font-weight:bold;vertical-align:top;">path</td><td style="vertical-align:top;">:</td><td><div>/</div></td></tr><tr><td style="font-weight:bold;vertical-align:top;">secure</td><td style="vertical-align:top;">:</td><td><div></div></td></tr><tr><td style="font-weight:bold;vertical-align:top;">version</td><td style="vertical-align:top;">:</td><td><div></div></td></tr></table></div></td></tr></table></div></td></tr><tr><td style="font-weight:bold;vertical-align:top;">delimiters</td><td style="vertical-align:top;">:</td><td><div><table><tr><td><div>{{</div></td></tr><tr><td><div>}}</div></td></tr></table></div></td></tr><tr><td style="font-weight:bold;vertical-align:top;">files</td><td style="vertical-align:top;">:</td><td><div><table></table></div></td></tr><tr><td style="font-weight:bold;vertical-align:top;">flash</td><td style="vertical-align:top;">:</td><td><div></div></td></tr><tr><td style="font-weight:bold;vertical-align:top;">form_label_separator</td><td style="vertical-align:top;">:</td><td><div>: </div></td></tr><tr><td style="font-weight:bold;vertical-align:top;">formstyle</td><td style="vertical-align:top;">:</td><td><div>table3cols</div></td></tr><tr><td style="font-weight:bold;vertical-align:top;">generic_patterns</td><td style="vertical-align:top;">:</td><td><div><table><tr><td><div>*</div></td></tr></table></div></td></tr><tr><td style="font-weight:bold;vertical-align:top;">headers</td><td style="vertical-align:top;">:</td><td><div><table><tr><td style="font-weight:bold;vertical-align:top;">X-Powered-By</td><td style="vertical-align:top;">:</td><td><div>web2py</div></td></tr></table></div></td></tr><tr><td style="font-weight:bold;vertical-align:top;">menu</td><td style="vertical-align:top;">:</td><td><div><table></table></div></td></tr><tr><td style="font-weight:bold;vertical-align:top;">meta</td><td style="vertical-align:top;">:</td><td><div><table></table></div></td></tr><tr><td style="font-weight:bold;vertical-align:top;">models_to_run</td><td style="vertical-align:top;">:</td><td><div><table><tr><td><div>^\\w+\\.py$</div></td></tr><tr><td><div>^pledge/\\w+\\.py$</div></td></tr><tr><td><div>^pledge/create/\\w+\\.py$</div></td></tr></table></div></td></tr><tr><td style="font-weight:bold;vertical-align:top;">postprocessing</td><td style="vertical-align:top;">:</td><td><div><table></table></div></td></tr><tr><td style="font-weight:bold;vertical-align:top;">session_client</td><td style="vertical-align:top;">:</td><td><div>127.0.0.1</div></td></tr><tr><td style="font-weight:bold;vertical-align:top;">session_cookie_compression_level</td><td style="vertical-align:top;">:</td><td><div>None</div></td></tr><tr><td style="font-weight:bold;vertical-align:top;">session_cookie_expires</td><td style="vertical-align:top;">:</td><td><div>None</div></td></tr><tr><td style="font-weight:bold;vertical-align:top;">session_cookie_key</td><td style="vertical-align:top;">:</td><td><div>None</div></td></tr><tr><td style="font-weight:bold;vertical-align:top;">session_data_name</td><td style="vertical-align:top;">:</td><td><div>session_data_bootup</div></td></tr><tr><td style="font-weight:bold;vertical-align:top;">session_file</td><td style="vertical-align:top;">:</td><td><div>&lt;open file &#x27;/Users/james/Documents/Dropbox/Uni/Year 4/iapt/assessment/web2py-2.9.11/web2py/applications/bootup/sessions/1dd/1f1/127.0.0.1-6543c37b-0e7c-4341-b2b0-67667ed320d5&#x27;, mode &#x27;rb+&#x27; at 0x10aa01660&gt;</div></td></tr><tr><td style="font-weight:bold;vertical-align:top;">session_filename</td><td style="vertical-align:top;">:</td><td><div>/Users/james/Documents/Dropbox/Uni/Year 4/iapt/assessment/web2py-2.9.11/web2py/applications/bootup/sessions/127.0.0.1-6543c37b-0e7c-4341-b2b0-67667ed320d5</div></td></tr><tr><td style="font-weight:bold;vertical-align:top;">session_hash</td><td style="vertical-align:top;">:</td><td><div>8e75b869ad7d840fd21d509bd776cd4e</div></td></tr><tr><td style="font-weight:bold;vertical-align:top;">session_id</td><td style="vertical-align:top;">:</td><td><div>127.0.0.1-6543c37b-0e7c-4341-b2b0-67667ed320d5</div></td></tr><tr><td style="font-weight:bold;vertical-align:top;">session_id_name</td><td style="vertical-align:top;">:</td><td><div>session_id_bootup</div></td></tr><tr><td style="font-weight:bold;vertical-align:top;">session_locked</td><td style="vertical-align:top;">:</td><td><div>True</div></td></tr><tr><td style="font-weight:bold;vertical-align:top;">session_masterapp</td><td style="vertical-align:top;">:</td><td><div>bootup</div></td></tr><tr><td style="font-weight:bold;vertical-align:top;">session_new</td><td style="vertical-align:top;">:</td><td><div>False</div></td></tr><tr><td style="font-weight:bold;vertical-align:top;">session_storage_type</td><td style="vertical-align:top;">:</td><td><div>file</div></td></tr><tr><td style="font-weight:bold;vertical-align:top;">status</td><td style="vertical-align:top;">:</td><td><div>200</div></td></tr><tr><td style="font-weight:bold;vertical-align:top;">view</td><td style="vertical-align:top;">:</td><td><div>pledge/create.html</div></td></tr></table></div>'
tRp123
sS'locals'
p124
(dp125
S'OBJECT'
p126
S"<class 'gluon.html.OBJECT'>"
p127
sS'SQLDB'
p128
S"<class 'gluon.dal.DAL'>"
p129
sg116
S"<Storage {'_formkey[reward/4]': ['b52d7d42-0466-...95240', 'a0038f78-9206-40e5-93c6-b89f33034871']}>"
p130
sS'LINK'
p131
S"<class 'gluon.html.LINK'>"
p132
sS'BR'
p133
S"<class 'gluon.html.BR'>"
p134
sS'local_import'
p135
S'<function <lambda>>'
p136
sS'OPTGROUP'
p137
S"<class 'gluon.html.OPTGROUP'>"
p138
sS'__package__'
p139
S'None'
p140
sS'PRE'
p141
S"<class 'gluon.html.PRE'>"
p142
sS'IS_INT_IN_RANGE'
p143
S"<class 'gluon.validators.IS_INT_IN_RANGE'>"
p144
sS'IS_LOWER'
p145
S"<class 'gluon.validators.IS_LOWER'>"
p146
sS'IS_STRONG'
p147
S"<class 'gluon.validators.IS_STRONG'>"
p148
sS'cache'
p149
S'<gluon.cache.Cache object>'
p150
sS'IS_IN_DB'
p151
S"<class 'gluon.validators.IS_IN_DB'>"
p152
sS'TAG'
p153
S'<gluon.html.__TAG__ object>'
p154
sS'SQLField'
p155
S"<class 'gluon.dal.Field'>"
p156
sS'BODY'
p157
S"<class 'gluon.html.BODY'>"
p158
sS'IS_DATE_IN_RANGE'
p159
S"<class 'gluon.validators.IS_DATE_IN_RANGE'>"
p160
sS'TH'
p161
S"<class 'gluon.html.TH'>"
p162
sS'URL'
p163
S'<function URL>'
p164
sS'__file__'
p165
S"'/Users/james/Documents/Dropbox/Uni/Year 4/iapt/a...py-2.9.11/web2py/applications/bootup/models/db.py'"
p166
sS'db'
p167
S'<DAL uri="sqlite://bootup.db">'
p168
sS'auth'
p169
S'<__restricted__.BootUpAuth instance>'
p170
sS'P'
S"<class 'gluon.html.P'>"
p171
sS'TFOOT'
p172
S"<class 'gluon.html.TFOOT'>"
p173
sS'XHTML'
p174
S"<class 'gluon.html.XHTML'>"
p175
sS'ON'
p176
g93
sS'OL'
p177
S"<class 'gluon.html.OL'>"
p178
sS'TEXTAREA'
p179
S"<class 'gluon.html.TEXTAREA'>"
p180
sS'MENU'
p181
S"<class 'gluon.html.MENU'>"
p182
sS'LOAD'
p183
S'<function LOAD>'
p184
sS'CODE'
p185
S"<class 'gluon.html.CODE'>"
p186
sS'HTTP'
p187
S"<class 'gluon.http.HTTP'>"
p188
sS'HR'
p189
S"<class 'gluon.html.HR'>"
p190
sS'IS_DATETIME'
p191
S"<class 'gluon.validators.IS_DATETIME'>"
p192
sS'HEAD'
p193
S"<class 'gluon.html.HEAD'>"
p194
sS'LABEL'
p195
S"<class 'gluon.html.LABEL'>"
p196
sS'CLEANUP'
p197
S"<class 'gluon.validators.CLEANUP'>"
p198
sS'SELECT'
p199
S"<class 'gluon.html.SELECT'>"
p200
sS'CENTER'
p201
S"<class 'gluon.html.CENTER'>"
p202
sS'__builtins__'
p203
S"{'ArithmeticError': <type 'exceptions.ArithmeticError'>, 'AssertionError': <type 'exceptions.AssertionError'>, 'AttributeError': <type 'exceptions.AttributeError'>, 'BaseException': <type 'exceptions.BaseException'>, 'BufferError': <type 'exceptions.BufferError'>, 'BytesWarning': <type 'exceptions.BytesWarning'>, 'DeprecationWarning': <type 'exceptions.DeprecationWarning'>, 'EOFError': <type 'exceptions.EOFError'>, 'Ellipsis': Ellipsis, 'EnvironmentError': <type 'exceptions.EnvironmentError'>, ...}"
p204
sS'HTML'
p205
S"<class 'gluon.html.HTML'>"
p206
sS'SQLFORM'
p207
S"<class 'gluon.sqlhtml.SQLFORM'>"
p208
sS'BootUpAuth'
p209
S'<class __restricted__.BootUpAuth>'
p210
sS'EM'
p211
S"<class 'gluon.html.EM'>"
p212
sS'redirect'
p213
S'<function redirect>'
p214
sS'FIELDSET'
p215
S"<class 'gluon.html.FIELDSET'>"
p216
sS'IS_EQUAL_TO'
p217
S"<class 'gluon.validators.IS_EQUAL_TO'>"
p218
sS'embed64'
p219
S'<function embed64>'
p220
sS'IS_LIST_OF'
p221
S"<class 'gluon.validators.IS_LIST_OF'>"
p222
sS'__name__'
p223
S"'__restricted__'"
p224
sS'EMBED'
p225
S"<class 'gluon.html.EMBED'>"
p226
sS'FORM'
p227
S"<class 'gluon.html.FORM'>"
p228
sS'H2'
p229
S"<class 'gluon.html.H2'>"
p230
sS'H3'
p231
S"<class 'gluon.html.H3'>"
p232
sS'BUTTON'
p233
S"<class 'gluon.html.BUTTON'>"
p234
sS'H1'
p235
S"<class 'gluon.html.H1'>"
p236
sS'H6'
p237
S"<class 'gluon.html.H6'>"
p238
sS'H4'
p239
S"<class 'gluon.html.H4'>"
p240
sS'H5'
p241
S"<class 'gluon.html.H5'>"
p242
sS'UL'
p243
S"<class 'gluon.html.UL'>"
p244
sS'IS_UPPER'
p245
S"<class 'gluon.validators.IS_UPPER'>"
p246
sS'xmlescape'
p247
S'<function xmlescape>'
p248
sS'IS_TIME'
p249
S"<class 'gluon.validators.IS_TIME'>"
p250
sS'groupby'
p251
S"<type 'itertools.groupby'>"
p252
sS'OPTION'
p253
S"<class 'gluon.html.OPTION'>"
p254
sS'TITLE'
p255
S"<class 'gluon.html.TITLE'>"
p256
sS'CRYPT'
p257
S"<class 'gluon.validators.CRYPT'>"
p258
sS'IS_EMPTY_OR'
p259
S"<class 'gluon.validators.IS_EMPTY_OR'>"
p260
sS'MARKMIN'
p261
S"<class 'gluon.html.MARKMIN'>"
p262
sS'INPUT'
p263
S"<class 'gluon.html.INPUT'>"
p264
sS'STRONG'
p265
S"<class 'gluon.html.STRONG'>"
p266
sS'COL'
p267
S"<class 'gluon.html.COL'>"
p268
sS'SCRIPT'
p269
S"<class 'gluon.html.SCRIPT'>"
p270
sS'TABLE'
p271
S"<class 'gluon.html.TABLE'>"
p272
sS'IS_IPV4'
p273
S"<class 'gluon.validators.IS_IPV4'>"
p274
sS'IS_LENGTH'
p275
S"<class 'gluon.validators.IS_LENGTH'>"
p276
sS'IS_IPV6'
p277
S"<class 'gluon.validators.IS_IPV6'>"
p278
sS'XML'
p279
S"<class 'gluon.html.XML'>"
p280
sS'B'
S"<class 'gluon.html.B'>"
p281
sS'IMG'
p282
S"<class 'gluon.html.IMG'>"
p283
sS'SQLTABLE'
p284
S"<class 'gluon.sqlhtml.SQLTABLE'>"
p285
sS'IS_MATCH'
p286
S"<class 'gluon.validators.IS_MATCH'>"
p287
sS'IS_ALPHANUMERIC'
p288
S"<class 'gluon.validators.IS_ALPHANUMERIC'>"
p289
sS'SPAN'
p290
S"<class 'gluon.html.SPAN'>"
p291
sS'IS_JSON'
p292
S"<class 'gluon.validators.IS_JSON'>"
p293
sS'IS_IPADDRESS'
p294
S"<class 'gluon.validators.IS_IPADDRESS'>"
p295
sS'IS_SLUG'
p296
S"<class 'gluon.validators.IS_SLUG'>"
p297
sS'BEAUTIFY'
p298
S"<class 'gluon.html.BEAUTIFY'>"
p299
sS'META'
p300
S"<class 'gluon.html.META'>"
p301
sS'IS_DATE'
p302
S"<class 'gluon.validators.IS_DATE'>"
p303
sS'IS_EMAIL'
p304
S"<class 'gluon.validators.IS_EMAIL'>"
p305
sS'IS_NOT_EMPTY'
p306
S"<class 'gluon.validators.IS_NOT_EMPTY'>"
p307
sS'IS_FLOAT_IN_RANGE'
p308
S"<class 'gluon.validators.IS_FLOAT_IN_RANGE'>"
p309
sS'TBODY'
p310
S"<class 'gluon.html.TBODY'>"
p311
sS'CAT'
p312
S"<class 'gluon.html.CAT'>"
p313
sS'Field'
p314
S"<class 'gluon.dal.Field'>"
p315
sS'IS_LIST_OF_EMAILS'
p316
S"<class 'gluon.validators.IS_LIST_OF_EMAILS'>"
p317
sS'DIV'
p318
S"<class 'gluon.html.DIV'>"
p319
sS'LEGEND'
p320
S"<class 'gluon.html.LEGEND'>"
p321
sS'COLGROUP'
p322
S"<class 'gluon.html.COLGROUP'>"
p323
sS'DAL'
p324
S"<class 'gluon.dal.DAL'>"
p325
sS'ASSIGNJS'
p326
S'<function ASSIGNJS>'
p327
sS'TR'
p328
S"<class 'gluon.html.TR'>"
p329
sS'LI'
p330
S"<class 'gluon.html.LI'>"
p331
sS'IFRAME'
p332
S"<class 'gluon.html.IFRAME'>"
p333
sS'TD'
p334
S"<class 'gluon.html.TD'>"
p335
sS'IS_URL'
p336
S"<class 'gluon.validators.IS_URL'>"
p337
sS'A'
S"<class 'gluon.html.A'>"
p338
sS'STYLE'
p339
S"<class 'gluon.html.STYLE'>"
p340
sS'IS_DATETIME_IN_RANGE'
p341
S"<class 'gluon.validators.IS_DATETIME_IN_RANGE'>"
p342
sS'IS_IMAGE'
p343
S"<class 'gluon.validators.IS_IMAGE'>"
p344
sS'I'
S"<class 'gluon.html.I'>"
p345
sS'IS_NOT_IN_DB'
p346
S"<class 'gluon.validators.IS_NOT_IN_DB'>"
p347
sg122
S"<Storage {'body': <cStringIO.StringO object at 0...> at 0x10dfd5c08>, 'view': 'pledge/create.html'}>"
p348
sS'THEAD'
p349
S"<class 'gluon.html.THEAD'>"
p350
sS'ANY_OF'
p351
S"<class 'gluon.validators.ANY_OF'>"
p352
sS'IS_NULL_OR'
p353
S"<class 'gluon.validators.IS_EMPTY_OR'>"
p354
sg56
S"<Storage {'_vars': None, 'function': 'create', '...ment/web2py-2.9.11/web2py/applications/bootup/'}>"
p355
sS'IS_EXPR'
p356
S"<class 'gluon.validators.IS_EXPR'>"
p357
sS'IS_IN_SET'
p358
S"<class 'gluon.validators.IS_IN_SET'>"
p359
sS'IS_UPLOAD_FILENAME'
p360
S"<class 'gluon.validators.IS_UPLOAD_FILENAME'>"
p361
sS'IS_DECIMAL_IN_RANGE'
p362
S"<class 'gluon.validators.IS_DECIMAL_IN_RANGE'>"
p363
sS'TT'
p364
S"<class 'gluon.html.TT'>"
p365
sS'T'
S'<gluon.languages.translator object>'
p366
sssS'traceback'
p367
S'Traceback (most recent call last):\n  File "/Users/james/Documents/Dropbox/Uni/Year 4/iapt/assessment/web2py-2.9.11/web2py/gluon/restricted.py", line 224, in restricted\n    exec ccode in environment\n  File "/Users/james/Documents/Dropbox/Uni/Year 4/iapt/assessment/web2py-2.9.11/web2py/applications/bootup/models/db.py", line 179, in <module>\n    Field(\'rewards2\',"list reference rewardpledge",requires=IS_IN_DB(db,\'reward.idreward\',format=\'description\', multiple=True)))\nTypeError: __init__() got an unexpected keyword argument \'format\'\n'
p368
s.