(dp1
S'output'
p2
S"<type 'exceptions.SyntaxError'> Object exists and cannot be redefined: managerid"
p3
sS'layer'
p4
S'/Users/james/Documents/Dropbox/Uni/Year 4/iapt/assessment/web2py-2.9.11/web2py/applications/bootup/models/db.py'
p5
sS'code'
p6
S'db = DAL(\'sqlite://bootup.db\',pool_size=1,check_reserved=[\'sqlite\'],migrate=False)\nauth = BootUpAuth(db)\n\ndb.define_table(\'category\',\n                Field(\'idcategory\',type=\'id\'),\n                Field(\'name\'),\n                Field(\'url\'))\n\n\ndb.define_table(\'user\',\n                Field(\'iduser\', type=\'id\', readable=False, writable=False, default=None),\n                Field(\'realname\',label=\'Name\', requires=[\n                    IS_LENGTH(minsize=1, error_message=\'Please enter your name\'),\n                    IS_LENGTH(maxsize=200, error_message=\'Please enter a shorter name\'),\n\n                ]),\n                Field(\'username\',label=\'Username\',requires=[\n                    IS_LENGTH(minsize=1, error_message=\'Please choose a username\'),\n                    IS_LENGTH(maxsize=60, error_message=\'Please chose a shorter username\'),\n                    IS_NOT_IN_DB(db,\'user.username\',error_message="Username is already taken")\n                ]),\n                Field(\'dateofbirth\',type=\'date\', label=\'Date of Birth\', requires=[\n                    IS_DATE(error_message=\'Please enter a date\'),\n                    #IS_DATE_IN_RANGE(error_message=\'Please enter a date in the recent past\')\n                ]),\n                Field.Method(\'age\', lambda row: request.now.year-row.dateofbirth.year\n                    if (request.now.month, request.now.day) >= (row.dateofbirth.month, row.dateofbirth.day) else\n                    request.now.year-row.dateofbirth.year-1))\n\n\n#As primary key is a reference to user, the type=\'id\' parameter cannot be set, use the primarykey= kwarg instead\ndb.define_table(\'credential\',\n                Field(\'userid\',type=\'reference user\', readable=False,writable=False),\n                Field(\'passwordhash\', writable=False, readable=False),\n                Field(\'passwordsalt\', writable=False, readable=False),\n                primarykey=[\'userid\']\n    )\n\n\n#There is a limitation with web2py that type=\'id\' only supports integer types,\n#as country code is a string, the primary key must be defined using the primarykey kwarg\ndb.define_table(\'country\',\n                Field(\'code\'),\n                Field(\'name\'),\n                primarykey=[\'code\'])\n\n\n#had to remove explicit reference to country code as for some reason web2py restricts all references to be numeric\n#to maintain constraint, the IS_IN_DB validator is used\ndb.define_table(\'address\',\n                Field(\'idaddress\',type=\'id\', readable=False, writable=False),\n                Field(\'street\', label=\'Street\', requires=[\n                    IS_LENGTH(minsize=1, error_message=\'Please enter your street address\'),\n                    IS_LENGTH(maxsize=100, error_message=\'Please enter a shorter street address\')\n                ]),\n                Field(\'city\', label=\'City\', requires=[\n                    IS_LENGTH(minsize=1, error_message=\'Please enter your city\'),\n                    IS_LENGTH(maxsize=100, error_message=\'Please enter a shorter city name\')\n                ]),\n                Field(\'postcode\', label=\'Post Code\', requires=[\n                    IS_MATCH(\'[a-zA-Z0-9]{4} [a-zA-Z0-9]{3}\',error_message=\'Postcode must be in the format XXXX XXX\')\n                ]),\n                Field(\'countrycode\',type=\'string\', requires=IS_IN_DB(db, db.country.code,\'%(name)s\',\n                                   zero=\'Select A Country\',\n                                   error_message=\'Please choose your country\'\n                                   )),\n                Field(\'userid\',type=\'reference user\',\n                      requires=IS_IN_DB(db,db.user.iduser),\n                      readable=False, writable=False)\n    )\n\n\n\ndb.define_table(\'project\',\n                Field(\'idproject\',type=\'id\',readable=False,writable=False),\n                Field(\'title\',\n                      type=\'string\',\n                      label=\'Project Name\',\n                      requires= [\n                        IS_LENGTH(60,error_message=\'Project title must be shorter than 60 characters\'),\n                        IS_NOT_EMPTY(error_message=\'Project must have a title\')\n                      ]),\n\n                Field(\'shortdescription\',\n                      label=\'Quick Summary\',\n                      type=\'text\',\n                      requires=[\n                          IS_LENGTH(120, error_message=\'Project summary must be shorter than 120 characters\'),\n                          IS_NOT_EMPTY(error_message=\'Project summary must be filled in\')\n                      ]),\n\n                Field(\'longdescription\',\n                      label=\'Description\',\n                      type=\'text\',\n                      requires=[\n                            IS_NOT_EMPTY(error_message=\'Project description must be filled in\')\n                      ]),\n\n                Field(\'story\',\n                      label=\'Project Story\',\n                      type=\'text\',\n                      requires=[\n                          IS_NOT_EMPTY(error_message=\'Project story must be filled in\')\n                      ]),\n\n                Field(\'goal\',\n                      label=\'Funding Goal\',\n                      type=\'decimal\',\n                      requires=[\n                          IS_DECIMAL_IN_RANGE(minimum=100,error_message="Please enter a project goal greater than &pound;100"),\n                          IS_DECIMAL_IN_RANGE(maximum=10**8,error_message="Your project goal is too optimistic. Please chose a lower goal"),\n                                ]),\n\n                Field(\'categoryid\',\n                      type=\'reference category\',\n                      label=\'Category\',\n                      requires=IS_IN_DB(db, db.category.idcategory,\'%(name)s\',\n                                   zero=\'Select A Category\',\n                                   error_message=\'Please choose a category\'\n                                   )\n                ),\n\n                Field(\'managerid\',\n                      type=\'reference user\',\n                      requires=IS_IN_DB(db,db.user.iduser),\n                      default=auth.user_id,\n                      compute=lambda r: auth.user_id),\n\n                Field(\'imageurl\',type=\'upload\',label="Project Image",autodelete=True,required=[\n                    IS_IMAGE(error_message="File must be image"),\n                    IS_NOT_EMPTY(error_message="Please choose an image")]),migrate=False)\n\n\ndb.define_table(\'openproject\',\n                Field(\'projectid\', type=\'reference project\', requires=IS_IN_DB(db,db.project.idproject)),\n                Field(\'opendate\', type=\'datetime\', default=request.now),\n                primarykey=[\'projectid\'])\n\ndb.define_table(\'closedproject\',\n                Field(\'openprojectid\', type=\'reference openproject\', requires=IS_IN_DB(db,db.openproject.projectid)),\n                Field(\'closeddate\',type=\'datetime\', default=request.now),\n                primarykey=[\'openprojectid\'])\n\n\ndb.define_table(\'pledge\',\n                Field(\'idpledge\', type=\'id\', readable=False, writable=False, default=None),\n                Field(\'description\',type=\'text\',requires=[\n                    IS_LENGTH(minsize=1,error_message=\'Please enter a description\'),\n                    IS_LENGTH(maxsize=60, error_message=\'Maximum length of pledge description is 60 characters\')\n                ]),\n                Field(\'value\',type=\'decimal\',requires=[\n                    IS_DECIMAL_IN_RANGE(minimum=1, error_message=\'Please enter a suitable value for this pledge level\'),\n                    IS_DECIMAL_IN_RANGE(maximum=10000, error_message=\'The chosen pledge value is too high. Crowd funding relies on lots of people pledging small amounts. Why not choose something a bit lower?\')\n                ]),\n                Field(\'projectid\', type=\'reference project\', requires=IS_IN_DB(db,db.project.idproject)))\n\n\ndb.define_table(\'reward\',\n                Field(\'idreward\', type=\'id\', readable=False, writable=False, default=None),\n                Field(\'description\',type=\'text\',requires=[\n                    IS_LENGTH(minsize=1,error_message=\'Please enter a description\'),\n                    IS_LENGTH(maxsize=120, error_message=\'Maximum length of pledge description is 120 characters\')\n                ]),\n                Field(\'projectid\', type=\'reference project\', requires=IS_IN_DB(db,db.project.idproject)))\n\n\ndb.define_table(\'rewardpledge\',\n                Field(\'rewardid\', type=\'reference reward\', requires=IS_IN_DB(db,db.reward.idreward,\'%(description)s\')),\n                Field(\'pledgeid\', type=\'reference pledge\', requires=IS_IN_DB(db,db.pledge.idpledge,\'\xc2\xa3%(value)s %(description)s\')),\n                primarykey=[\'rewardid\',\'pledgeid\'])\n\n\n\n\nmyprojects = db.project.managerid = auth.user_id\n\nclosedprojects = db.project.idproject.belongs(db._select(db.closedproject.openprojectid))\nopenprojects = db.project.idproject.belongs(db._select(db.openproject.projectid)) & ~closedprojects\nnotstartedprojects = ~openprojects & ~closedprojects\n\nsearchableprojects = openprojects | closedprojects\n'
p7
sS'snapshot'
p8
(dp9
S'exception'
p10
(dp11
S'__getslice__'
p12
S"<method-wrapper '__getslice__' of exceptions.SyntaxError object>"
p13
sS'text'
p14
S'None'
p15
sS'__str__'
p16
S"<method-wrapper '__str__' of exceptions.SyntaxError object>"
p17
sS'__reduce__'
p18
S'<built-in method __reduce__ of exceptions.SyntaxError object>'
p19
sS'__dict__'
p20
S'{}'
p21
sS'__sizeof__'
p22
S'<built-in method __sizeof__ of exceptions.SyntaxError object>'
p23
sS'__init__'
p24
S"<method-wrapper '__init__' of exceptions.SyntaxError object>"
p25
sS'__setattr__'
p26
S"<method-wrapper '__setattr__' of exceptions.SyntaxError object>"
p27
sS'__reduce_ex__'
p28
S'<built-in method __reduce_ex__ of exceptions.SyntaxError object>'
p29
sS'__new__'
p30
S'<built-in method __new__ of type object>'
p31
sS'__format__'
p32
S'<built-in method __format__ of exceptions.SyntaxError object>'
p33
sS'__class__'
p34
S"<type 'exceptions.SyntaxError'>"
p35
sS'filename'
p36
S'None'
p37
sS'lineno'
p38
S'None'
p39
sS'msg'
p40
S"'Object exists and cannot be redefined: managerid'"
p41
sS'__doc__'
p42
S"'Invalid syntax.'"
p43
sS'__getitem__'
p44
S"<method-wrapper '__getitem__' of exceptions.SyntaxError object>"
p45
sS'__setstate__'
p46
S'<built-in method __setstate__ of exceptions.SyntaxError object>'
p47
sS'__getattribute__'
p48
S"<method-wrapper '__getattribute__' of exceptions.SyntaxError object>"
p49
sS'print_file_and_line'
p50
S'None'
p51
sS'args'
p52
S"('Object exists and cannot be redefined: managerid',)"
p53
sS'__subclasshook__'
p54
S'<built-in method __subclasshook__ of type object>'
p55
sS'offset'
p56
S'None'
p57
sS'__unicode__'
p58
S'<built-in method __unicode__ of exceptions.SyntaxError object>'
p59
sS'__delattr__'
p60
S"<method-wrapper '__delattr__' of exceptions.SyntaxError object>"
p61
sS'__repr__'
p62
S"<method-wrapper '__repr__' of exceptions.SyntaxError object>"
p63
sS'__hash__'
p64
S"<method-wrapper '__hash__' of exceptions.SyntaxError object>"
p65
ssS'evalue'
p66
S'Object exists and cannot be redefined: managerid'
p67
sS'request'
p68
cgluon.html
XML_unpickle
p69
(S's\x8a[\x00\x00<div><table><tr><td style="font-weight:bold;vertical-align:top;">ajax</td><td style="vertical-align:top;">:</td><td><div>False</div></td></tr><tr><td style="font-weight:bold;vertical-align:top;">application</td><td style="vertical-align:top;">:</td><td><div>bootup</div></td></tr><tr><td style="font-weight:bold;vertical-align:top;">args</td><td style="vertical-align:top;">:</td><td><div><table></table></div></td></tr><tr><td style="font-weight:bold;vertical-align:top;">cid</td><td style="vertical-align:top;">:</td><td><div>None</div></td></tr><tr><td style="font-weight:bold;vertical-align:top;">client</td><td style="vertical-align:top;">:</td><td><div>127.0.0.1</div></td></tr><tr><td style="font-weight:bold;vertical-align:top;">controller</td><td style="vertical-align:top;">:</td><td><div>project</div></td></tr><tr><td style="font-weight:bold;vertical-align:top;">cookies</td><td style="vertical-align:top;">:</td><td><div><table><tr><td style="font-weight:bold;vertical-align:top;">session_id_admin</td><td style="vertical-align:top;">:</td><td><div>127.0.0.1-62b6ee29-c039-4f06-8bc4-c07dac88274e<table><tr><td style="font-weight:bold;vertical-align:top;">comment</td><td style="vertical-align:top;">:</td><td><div></div></td></tr><tr><td style="font-weight:bold;vertical-align:top;">domain</td><td style="vertical-align:top;">:</td><td><div></div></td></tr><tr><td style="font-weight:bold;vertical-align:top;">expires</td><td style="vertical-align:top;">:</td><td><div></div></td></tr><tr><td style="font-weight:bold;vertical-align:top;">httponly</td><td style="vertical-align:top;">:</td><td><div></div></td></tr><tr><td style="font-weight:bold;vertical-align:top;">max-age</td><td style="vertical-align:top;">:</td><td><div></div></td></tr><tr><td style="font-weight:bold;vertical-align:top;">path</td><td style="vertical-align:top;">:</td><td><div></div></td></tr><tr><td style="font-weight:bold;vertical-align:top;">secure</td><td style="vertical-align:top;">:</td><td><div></div></td></tr><tr><td style="font-weight:bold;vertical-align:top;">version</td><td style="vertical-align:top;">:</td><td><div></div></td></tr></table></div></td></tr><tr><td style="font-weight:bold;vertical-align:top;">session_id_bootup</td><td style="vertical-align:top;">:</td><td><div>127.0.0.1-ec15de51-7eba-48e2-bbbf-3efdc3718908<table><tr><td style="font-weight:bold;vertical-align:top;">comment</td><td style="vertical-align:top;">:</td><td><div></div></td></tr><tr><td style="font-weight:bold;vertical-align:top;">domain</td><td style="vertical-align:top;">:</td><td><div></div></td></tr><tr><td style="font-weight:bold;vertical-align:top;">expires</td><td style="vertical-align:top;">:</td><td><div></div></td></tr><tr><td style="font-weight:bold;vertical-align:top;">httponly</td><td style="vertical-align:top;">:</td><td><div></div></td></tr><tr><td style="font-weight:bold;vertical-align:top;">max-age</td><td style="vertical-align:top;">:</td><td><div></div></td></tr><tr><td style="font-weight:bold;vertical-align:top;">path</td><td style="vertical-align:top;">:</td><td><div></div></td></tr><tr><td style="font-weight:bold;vertical-align:top;">secure</td><td style="vertical-align:top;">:</td><td><div></div></td></tr><tr><td style="font-weight:bold;vertical-align:top;">version</td><td style="vertical-align:top;">:</td><td><div></div></td></tr></table></div></td></tr></table></div></td></tr><tr><td style="font-weight:bold;vertical-align:top;">env</td><td style="vertical-align:top;">:</td><td><div><table><tr><td style="font-weight:bold;vertical-align:top;">HTTP_ACCEPT</td><td style="vertical-align:top;">:</td><td><div>text/html,application/xhtml+xml,application/xml;q=0.9,image/webp,*/*;q=0.8</div></td></tr><tr><td style="font-weight:bold;vertical-align:top;">HTTP_ACCEPT_ENCODING</td><td style="vertical-align:top;">:</td><td><div>gzip,deflate,sdch</div></td></tr><tr><td style="font-weight:bold;vertical-align:top;">HTTP_ACCEPT_LANGUAGE</td><td style="vertical-align:top;">:</td><td><div>en-US,en;q=0.8</div></td></tr><tr><td style="font-weight:bold;vertical-align:top;">HTTP_CACHE_CONTROL</td><td style="vertical-align:top;">:</td><td><div>max-age=0</div></td></tr><tr><td style="font-weight:bold;vertical-align:top;">HTTP_CONNECTION</td><td style="vertical-align:top;">:</td><td><div>keep-alive</div></td></tr><tr><td style="font-weight:bold;vertical-align:top;">HTTP_COOKIE</td><td style="vertical-align:top;">:</td><td><div>session_id_bootup=127.0.0.1-ec15de51-7eba-48e2-bbbf-3efdc3718908; session_id_admin=127.0.0.1-62b6ee29-c039-4f06-8bc4-c07dac88274e</div></td></tr><tr><td style="font-weight:bold;vertical-align:top;">HTTP_HOST</td><td style="vertical-align:top;">:</td><td><div>127.0.0.1:8000</div></td></tr><tr><td style="font-weight:bold;vertical-align:top;">HTTP_USER_AGENT</td><td style="vertical-align:top;">:</td><td><div>Mozilla/5.0 (Macintosh; Intel Mac OS X 10_9_4) AppleWebKit/537.36 (KHTML, like Gecko) Chrome/38.0.2125.122 Safari/537.36</div></td></tr><tr><td style="font-weight:bold;vertical-align:top;">PATH_INFO</td><td style="vertical-align:top;">:</td><td><div>/bootup/project/index</div></td></tr><tr><td style="font-weight:bold;vertical-align:top;">QUERY_STRING</td><td style="vertical-align:top;">:</td><td><div></div></td></tr><tr><td style="font-weight:bold;vertical-align:top;">REMOTE_ADDR</td><td style="vertical-align:top;">:</td><td><div>127.0.0.1</div></td></tr><tr><td style="font-weight:bold;vertical-align:top;">REMOTE_PORT</td><td style="vertical-align:top;">:</td><td><div>56418</div></td></tr><tr><td style="font-weight:bold;vertical-align:top;">REQUEST_METHOD</td><td style="vertical-align:top;">:</td><td><div>GET</div></td></tr><tr><td style="font-weight:bold;vertical-align:top;">SCRIPT_NAME</td><td style="vertical-align:top;">:</td><td><div></div></td></tr><tr><td style="font-weight:bold;vertical-align:top;">SERVER_NAME</td><td style="vertical-align:top;">:</td><td><div>jt-mbp.local</div></td></tr><tr><td style="font-weight:bold;vertical-align:top;">SERVER_PORT</td><td style="vertical-align:top;">:</td><td><div>8000</div></td></tr><tr><td style="font-weight:bold;vertical-align:top;">SERVER_PROTOCOL</td><td style="vertical-align:top;">:</td><td><div>HTTP/1.1</div></td></tr><tr><td style="font-weight:bold;vertical-align:top;">SERVER_SOFTWARE</td><td style="vertical-align:top;">:</td><td><div>Rocket 1.2.6</div></td></tr><tr><td style="font-weight:bold;vertical-align:top;">app_folders</td><td style="vertical-align:top;">:</td><td><div>set([&#x27;/Users/james/Documents/Dropbox/Uni/Year 4/iapt/assessment/web2py-2.9.11/web2py/applications/admin/&#x27;, &#x27;/Users/james/Documents/Dropbox/Uni/Year 4/iapt/assessment/web2py-2.9.11/web2py/applications/bootup/&#x27;])</div></td></tr><tr><td style="font-weight:bold;vertical-align:top;">applications_parent</td><td style="vertical-align:top;">:</td><td><div>/Users/james/Documents/Dropbox/Uni/Year 4/iapt/assessment/web2py-2.9.11/web2py</div></td></tr><tr><td style="font-weight:bold;vertical-align:top;">cmd_args</td><td style="vertical-align:top;">:</td><td><div><table></table></div></td></tr><tr><td style="font-weight:bold;vertical-align:top;">cmd_options</td><td style="vertical-align:top;">:</td><td><div>&lt;Values at 0x10dd162d8: {&#x27;verbose&#x27;: False, &#x27;ip&#x27;: &#x27;127.0.0.1&#x27;, &#x27;debuglevel&#x27;: 30, &#x27;with_scheduler&#x27;: False, &#x27;ips&#x27;: [&#x27;192.168.1.205&#x27;, &#x27;192.168.1.105&#x27;, &#x27;fe80::82e6:50ff:fe13:c80c%en0&#x27;, &#x27;fe80::82e6:50ff:fe13:c80c%en4&#x27;, &#x27;fe80::e4d:e9ff:feaf:c666%en4&#x27;, &#x27;fe80::e4d:e9ff:feaf:c666%en0&#x27;], &#x27;shutdown_timeout&#x27;: 5, &#x27;taskbar&#x27;: False, &#x27;with_coverage&#x27;: False, &#x27;scheduler_groups&#x27;: None, &#x27;port&#x27;: 8000, &#x27;maxthreads&#x27;: None, &#x27;softcron&#x27;: False, &#x27;server_name&#x27;: &#x27;jt-mbp.local&#x27;, &#x27;bpython&#x27;: False, &#x27;nogui&#x27;: False, &#x27;pid_filename&#x27;: &#x27;httpserver.pid&#x27;, &#x27;extcron&#x27;: False, &#x27;runcron&#x27;: False, &#x27;run_system_tests&#x27;: False, &#x27;test&#x27;: None, &#x27;folder&#x27;: &#x27;/Users/james/Documents/Dropbox/Uni/Year 4/iapt/assessment/web2py-2.9.11/web2py&#x27;, &#x27;config&#x27;: &#x27;&#x27;, &#x27;minthreads&#x27;: None, &#x27;shell&#x27;: None, &#x27;run&#x27;: &#x27;&#x27;, &#x27;log_filename&#x27;: &#x27;httpserver.log&#x27;, &#x27;profiler_dir&#x27;: None, &#x27;args&#x27;: [&#x27;&#x27;], &#x27;socket_timeout&#x27;: 5, &#x27;ssl_ca_certificate&#x27;: None, &#x27;scheduler&#x27;: None, &#x27;interfaces&#x27;: None, &#x27;ssl_private_key&#x27;: &#x27;&#x27;, &#x27;gae&#x27;: None, &#x27;password&#x27;: &#x27;&lt;ask&gt;&#x27;, &#x27;request_queue_size&#x27;: 5, &#x27;ssl_certificate&#x27;: &#x27;&#x27;, &#x27;cronjob&#x27;: False, &#x27;numthreads&#x27;: None, &#x27;quiet&#x27;: False, &#x27;import_models&#x27;: False, &#x27;timeout&#x27;: 10, &#x27;plain&#x27;: False, &#x27;nobanner&#x27;: False}&gt;</div></td></tr><tr><td style="font-weight:bold;vertical-align:top;">db_sessions</td><td style="vertical-align:top;">:</td><td><div>set([])</div></td></tr><tr><td style="font-weight:bold;vertical-align:top;">debugging</td><td style="vertical-align:top;">:</td><td><div>False</div></td></tr><tr><td style="font-weight:bold;vertical-align:top;">gluon_parent</td><td style="vertical-align:top;">:</td><td><div>/Users/james/Documents/Dropbox/Uni/Year 4/iapt/assessment/web2py-2.9.11/web2py</div></td></tr><tr><td style="font-weight:bold;vertical-align:top;">http_accept</td><td style="vertical-align:top;">:</td><td><div>text/html,application/xhtml+xml,application/xml;q=0.9,image/webp,*/*;q=0.8</div></td></tr><tr><td style="font-weight:bold;vertical-align:top;">http_accept_encoding</td><td style="vertical-align:top;">:</td><td><div>gzip,deflate,sdch</div></td></tr><tr><td style="font-weight:bold;vertical-align:top;">http_accept_language</td><td style="vertical-align:top;">:</td><td><div>en-US,en;q=0.8</div></td></tr><tr><td style="font-weight:bold;vertical-align:top;">http_cache_control</td><td style="vertical-align:top;">:</td><td><div>max-age=0</div></td></tr><tr><td style="font-weight:bold;vertical-align:top;">http_connection</td><td style="vertical-align:top;">:</td><td><div>keep-alive</div></td></tr><tr><td style="font-weight:bold;vertical-align:top;">http_cookie</td><td style="vertical-align:top;">:</td><td><div>session_id_bootup=127.0.0.1-ec15de51-7eba-48e2-bbbf-3efdc3718908; session_id_admin=127.0.0.1-62b6ee29-c039-4f06-8bc4-c07dac88274e</div></td></tr><tr><td style="font-weight:bold;vertical-align:top;">http_host</td><td style="vertical-align:top;">:</td><td><div>127.0.0.1:8000</div></td></tr><tr><td style="font-weight:bold;vertical-align:top;">http_user_agent</td><td style="vertical-align:top;">:</td><td><div>Mozilla/5.0 (Macintosh; Intel Mac OS X 10_9_4) AppleWebKit/537.36 (KHTML, like Gecko) Chrome/38.0.2125.122 Safari/537.36</div></td></tr><tr><td style="font-weight:bold;vertical-align:top;">is_jython</td><td style="vertical-align:top;">:</td><td><div>False</div></td></tr><tr><td style="font-weight:bold;vertical-align:top;">is_pypy</td><td style="vertical-align:top;">:</td><td><div>False</div></td></tr><tr><td style="font-weight:bold;vertical-align:top;">is_source</td><td style="vertical-align:top;">:</td><td><div>True</div></td></tr><tr><td style="font-weight:bold;vertical-align:top;">local_hosts</td><td style="vertical-align:top;">:</td><td><div><table><tr><td><div>jt-mbp.local</div></td></tr><tr><td><div>192.168.1.205</div></td></tr><tr><td><div>192.168.1.105</div></td></tr><tr><td><div>::1</div></td></tr><tr><td><div>::ffff:127.0.0.1</div></td></tr><tr><td><div>fe80::82e6:50ff:fe13:c80c%en0</div></td></tr><tr><td><div>fe80::82e6:50ff:fe13:c80c%en4</div></td></tr><tr><td><div>fe80::e4d:e9ff:feaf:c666%en4</div></td></tr><tr><td><div>fe80::e4d:e9ff:feaf:c666%en0</div></td></tr><tr><td><div>127.0.0.1</div></td></tr></table></div></td></tr><tr><td style="font-weight:bold;vertical-align:top;">path_info</td><td style="vertical-align:top;">:</td><td><div>/bootup/project/index</div></td></tr><tr><td style="font-weight:bold;vertical-align:top;">query_string</td><td style="vertical-align:top;">:</td><td><div></div></td></tr><tr><td style="font-weight:bold;vertical-align:top;">remote_addr</td><td style="vertical-align:top;">:</td><td><div>127.0.0.1</div></td></tr><tr><td style="font-weight:bold;vertical-align:top;">remote_port</td><td style="vertical-align:top;">:</td><td><div>56418</div></td></tr><tr><td style="font-weight:bold;vertical-align:top;">request_method</td><td style="vertical-align:top;">:</td><td><div>GET</div></td></tr><tr><td style="font-weight:bold;vertical-align:top;">request_uri</td><td style="vertical-align:top;">:</td><td><div>/bootup/project/index</div></td></tr><tr><td style="font-weight:bold;vertical-align:top;">script_name</td><td style="vertical-align:top;">:</td><td><div></div></td></tr><tr><td style="font-weight:bold;vertical-align:top;">server_name</td><td style="vertical-align:top;">:</td><td><div>jt-mbp.local</div></td></tr><tr><td style="font-weight:bold;vertical-align:top;">server_port</td><td style="vertical-align:top;">:</td><td><div>8000</div></td></tr><tr><td style="font-weight:bold;vertical-align:top;">server_protocol</td><td style="vertical-align:top;">:</td><td><div>HTTP/1.1</div></td></tr><tr><td style="font-weight:bold;vertical-align:top;">server_software</td><td style="vertical-align:top;">:</td><td><div>Rocket 1.2.6</div></td></tr><tr><td style="font-weight:bold;vertical-align:top;">web2py_path</td><td style="vertical-align:top;">:</td><td><div>/Users/james/Documents/Dropbox/Uni/Year 4/iapt/assessment/web2py-2.9.11/web2py</div></td></tr><tr><td style="font-weight:bold;vertical-align:top;">web2py_version</td><td style="vertical-align:top;">:</td><td><div>2.9.11-stable+timestamp.2014.09.15.23.35.11</div></td></tr><tr><td style="font-weight:bold;vertical-align:top;">wsgi.errors</td><td style="vertical-align:top;">:</td><td><div>&lt;open file &#x27;&lt;stderr&gt;&#x27;, mode &#x27;w&#x27; at 0x10ce351e0&gt;</div></td></tr><tr><td style="font-weight:bold;vertical-align:top;">wsgi.file_wrapper</td><td style="vertical-align:top;">:</td><td><div>&lt;class wsgiref.util.FileWrapper at 0x10da48e20&gt;</div></td></tr><tr><td style="font-weight:bold;vertical-align:top;">wsgi.input</td><td style="vertical-align:top;">:</td><td><div>&lt;socket._fileobject object at 0x11809c2d0&gt;</div></td></tr><tr><td style="font-weight:bold;vertical-align:top;">wsgi.multiprocess</td><td style="vertical-align:top;">:</td><td><div>False</div></td></tr><tr><td style="font-weight:bold;vertical-align:top;">wsgi.multithread</td><td style="vertical-align:top;">:</td><td><div>True</div></td></tr><tr><td style="font-weight:bold;vertical-align:top;">wsgi.run_once</td><td style="vertical-align:top;">:</td><td><div>False</div></td></tr><tr><td style="font-weight:bold;vertical-align:top;">wsgi.url_scheme</td><td style="vertical-align:top;">:</td><td><div>http</div></td></tr><tr><td style="font-weight:bold;vertical-align:top;">wsgi.version</td><td style="vertical-align:top;">:</td><td><div><table><tr><td><div>1</div></td></tr><tr><td><div>0</div></td></tr></table></div></td></tr><tr><td style="font-weight:bold;vertical-align:top;">wsgi_errors</td><td style="vertical-align:top;">:</td><td><div>&lt;open file &#x27;&lt;stderr&gt;&#x27;, mode &#x27;w&#x27; at 0x10ce351e0&gt;</div></td></tr><tr><td style="font-weight:bold;vertical-align:top;">wsgi_file_wrapper</td><td style="vertical-align:top;">:</td><td><div>&lt;class wsgiref.util.FileWrapper at 0x10da48e20&gt;</div></td></tr><tr><td style="font-weight:bold;vertical-align:top;">wsgi_input</td><td style="vertical-align:top;">:</td><td><div>&lt;socket._fileobject object at 0x11809c2d0&gt;</div></td></tr><tr><td style="font-weight:bold;vertical-align:top;">wsgi_multiprocess</td><td style="vertical-align:top;">:</td><td><div>False</div></td></tr><tr><td style="font-weight:bold;vertical-align:top;">wsgi_multithread</td><td style="vertical-align:top;">:</td><td><div>True</div></td></tr><tr><td style="font-weight:bold;vertical-align:top;">wsgi_run_once</td><td style="vertical-align:top;">:</td><td><div>False</div></td></tr><tr><td style="font-weight:bold;vertical-align:top;">wsgi_url_scheme</td><td style="vertical-align:top;">:</td><td><div>http</div></td></tr><tr><td style="font-weight:bold;vertical-align:top;">wsgi_version</td><td style="vertical-align:top;">:</td><td><div><table><tr><td><div>1</div></td></tr><tr><td><div>0</div></td></tr></table></div></td></tr></table></div></td></tr><tr><td style="font-weight:bold;vertical-align:top;">extension</td><td style="vertical-align:top;">:</td><td><div>html</div></td></tr><tr><td style="font-weight:bold;vertical-align:top;">folder</td><td style="vertical-align:top;">:</td><td><div>/Users/james/Documents/Dropbox/Uni/Year 4/iapt/assessment/web2py-2.9.11/web2py/applications/bootup/</div></td></tr><tr><td style="font-weight:bold;vertical-align:top;">function</td><td style="vertical-align:top;">:</td><td><div>index</div></td></tr><tr><td style="font-weight:bold;vertical-align:top;">global_settings</td><td style="vertical-align:top;">:</td><td><div><table><tr><td style="font-weight:bold;vertical-align:top;">app_folders</td><td style="vertical-align:top;">:</td><td><div>set([&#x27;/Users/james/Documents/Dropbox/Uni/Year 4/iapt/assessment/web2py-2.9.11/web2py/applications/admin/&#x27;, &#x27;/Users/james/Documents/Dropbox/Uni/Year 4/iapt/assessment/web2py-2.9.11/web2py/applications/bootup/&#x27;])</div></td></tr><tr><td style="font-weight:bold;vertical-align:top;">applications_parent</td><td style="vertical-align:top;">:</td><td><div>/Users/james/Documents/Dropbox/Uni/Year 4/iapt/assessment/web2py-2.9.11/web2py</div></td></tr><tr><td style="font-weight:bold;vertical-align:top;">cmd_args</td><td style="vertical-align:top;">:</td><td><div><table></table></div></td></tr><tr><td style="font-weight:bold;vertical-align:top;">cmd_options</td><td style="vertical-align:top;">:</td><td><div>&lt;Values at 0x10dd162d8: {&#x27;verbose&#x27;: False, &#x27;ip&#x27;: &#x27;127.0.0.1&#x27;, &#x27;debuglevel&#x27;: 30, &#x27;with_scheduler&#x27;: False, &#x27;ips&#x27;: [&#x27;192.168.1.205&#x27;, &#x27;192.168.1.105&#x27;, &#x27;fe80::82e6:50ff:fe13:c80c%en0&#x27;, &#x27;fe80::82e6:50ff:fe13:c80c%en4&#x27;, &#x27;fe80::e4d:e9ff:feaf:c666%en4&#x27;, &#x27;fe80::e4d:e9ff:feaf:c666%en0&#x27;], &#x27;shutdown_timeout&#x27;: 5, &#x27;taskbar&#x27;: False, &#x27;with_coverage&#x27;: False, &#x27;scheduler_groups&#x27;: None, &#x27;port&#x27;: 8000, &#x27;maxthreads&#x27;: None, &#x27;softcron&#x27;: False, &#x27;server_name&#x27;: &#x27;jt-mbp.local&#x27;, &#x27;bpython&#x27;: False, &#x27;nogui&#x27;: False, &#x27;pid_filename&#x27;: &#x27;httpserver.pid&#x27;, &#x27;extcron&#x27;: False, &#x27;runcron&#x27;: False, &#x27;run_system_tests&#x27;: False, &#x27;test&#x27;: None, &#x27;folder&#x27;: &#x27;/Users/james/Documents/Dropbox/Uni/Year 4/iapt/assessment/web2py-2.9.11/web2py&#x27;, &#x27;config&#x27;: &#x27;&#x27;, &#x27;minthreads&#x27;: None, &#x27;shell&#x27;: None, &#x27;run&#x27;: &#x27;&#x27;, &#x27;log_filename&#x27;: &#x27;httpserver.log&#x27;, &#x27;profiler_dir&#x27;: None, &#x27;args&#x27;: [&#x27;&#x27;], &#x27;socket_timeout&#x27;: 5, &#x27;ssl_ca_certificate&#x27;: None, &#x27;scheduler&#x27;: None, &#x27;interfaces&#x27;: None, &#x27;ssl_private_key&#x27;: &#x27;&#x27;, &#x27;gae&#x27;: None, &#x27;password&#x27;: &#x27;&lt;ask&gt;&#x27;, &#x27;request_queue_size&#x27;: 5, &#x27;ssl_certificate&#x27;: &#x27;&#x27;, &#x27;cronjob&#x27;: False, &#x27;numthreads&#x27;: None, &#x27;quiet&#x27;: False, &#x27;import_models&#x27;: False, &#x27;timeout&#x27;: 10, &#x27;plain&#x27;: False, &#x27;nobanner&#x27;: False}&gt;</div></td></tr><tr><td style="font-weight:bold;vertical-align:top;">db_sessions</td><td style="vertical-align:top;">:</td><td><div>set([])</div></td></tr><tr><td style="font-weight:bold;vertical-align:top;">debugging</td><td style="vertical-align:top;">:</td><td><div>False</div></td></tr><tr><td style="font-weight:bold;vertical-align:top;">gluon_parent</td><td style="vertical-align:top;">:</td><td><div>/Users/james/Documents/Dropbox/Uni/Year 4/iapt/assessment/web2py-2.9.11/web2py</div></td></tr><tr><td style="font-weight:bold;vertical-align:top;">is_jython</td><td style="vertical-align:top;">:</td><td><div>False</div></td></tr><tr><td style="font-weight:bold;vertical-align:top;">is_pypy</td><td style="vertical-align:top;">:</td><td><div>False</div></td></tr><tr><td style="font-weight:bold;vertical-align:top;">is_source</td><td style="vertical-align:top;">:</td><td><div>True</div></td></tr><tr><td style="font-weight:bold;vertical-align:top;">local_hosts</td><td style="vertical-align:top;">:</td><td><div><table><tr><td><div>jt-mbp.local</div></td></tr><tr><td><div>192.168.1.205</div></td></tr><tr><td><div>192.168.1.105</div></td></tr><tr><td><div>::1</div></td></tr><tr><td><div>::ffff:127.0.0.1</div></td></tr><tr><td><div>fe80::82e6:50ff:fe13:c80c%en0</div></td></tr><tr><td><div>fe80::82e6:50ff:fe13:c80c%en4</div></td></tr><tr><td><div>fe80::e4d:e9ff:feaf:c666%en4</div></td></tr><tr><td><div>fe80::e4d:e9ff:feaf:c666%en0</div></td></tr><tr><td><div>127.0.0.1</div></td></tr></table></div></td></tr><tr><td style="font-weight:bold;vertical-align:top;">web2py_version</td><td style="vertical-align:top;">:</td><td><div>2.9.11-stable+timestamp.2014.09.15.23.35.11</div></td></tr></table></div></td></tr><tr><td style="font-weight:bold;vertical-align:top;">is_https</td><td style="vertical-align:top;">:</td><td><div>False</div></td></tr><tr><td style="font-weight:bold;vertical-align:top;">is_local</td><td style="vertical-align:top;">:</td><td><div>True</div></td></tr><tr><td style="font-weight:bold;vertical-align:top;">is_restful</td><td style="vertical-align:top;">:</td><td><div>False</div></td></tr><tr><td style="font-weight:bold;vertical-align:top;">is_sheduler</td><td style="vertical-align:top;">:</td><td><div>None</div></td></tr><tr><td style="font-weight:bold;vertical-align:top;">is_shell</td><td style="vertical-align:top;">:</td><td><div>None</div></td></tr><tr><td style="font-weight:bold;vertical-align:top;">now</td><td style="vertical-align:top;">:</td><td><div>datetime.datetime(2014, 11, 22, 22, 31, 31, 921496)</div></td></tr><tr><td style="font-weight:bold;vertical-align:top;">raw_args</td><td style="vertical-align:top;">:</td><td><div></div></td></tr><tr><td style="font-weight:bold;vertical-align:top;">raw_extension</td><td style="vertical-align:top;">:</td><td><div>None</div></td></tr><tr><td style="font-weight:bold;vertical-align:top;">url</td><td style="vertical-align:top;">:</td><td><div>/bootup/project/index</div></td></tr><tr><td style="font-weight:bold;vertical-align:top;">utcnow</td><td style="vertical-align:top;">:</td><td><div>datetime.datetime(2014, 11, 22, 22, 31, 31, 921508)</div></td></tr><tr><td style="font-weight:bold;vertical-align:top;">uuid</td><td style="vertical-align:top;">:</td><td><div>bootup/127.0.0.1.2014-11-22.22-31-31.9f614e48-e99f-4f00-8593-55ce8c9bc9a7</div></td></tr><tr><td style="font-weight:bold;vertical-align:top;">wsgi</td><td style="vertical-align:top;">:</td><td><div>&lt;gluon.main.LazyWSGI object at 0x113d8f210&gt;</div></td></tr></table></div>'
tRp70
sS'frames'
p71
(lp72
(dp73
S'file'
p74
S'/Users/james/Documents/Dropbox/Uni/Year 4/iapt/assessment/web2py-2.9.11/web2py/gluon/restricted.py'
p75
sS'dump'
p76
(dp77
S'environment'
p78
S"{'A': <class 'gluon.html.A'>, 'ANY_OF': <class 'gluon.validators.ANY_OF'>, 'ASSIGNJS': <function ASSIGNJS>, 'B': <class 'gluon.html.B'>, 'BEAUTIFY': <class 'gluon.html.BEAUTIFY'>, 'BODY': <class 'gluon.html.BODY'>, 'BR': <class 'gluon.html.BR'>, 'BUTTON': <class 'gluon.html.BUTTON'>, 'BootUpAuth': <class __restricted__.BootUpAuth>, 'CAT': <class 'gluon.html.CAT'>, ...}"
p79
sS'ccode'
p80
S'<code object <module> at 0x113e97430, file "/Use...web2py/applications/bootup/models/db.py", line 1>'
p81
ssS'lnum'
p82
I224
sS'lines'
p83
(dp84
I224
S'        exec ccode in environment'
p85
sI225
S'    except HTTP:'
p86
sI226
S'        raise'
p87
sI227
S'    except RestrictedError:'
p88
sI228
S'        # do not encapsulate (obfuscate) the original RestrictedError'
p89
sI219
S'    try:'
p90
sI220
S'        if isinstance(code, types.CodeType):'
p91
sI221
S'            ccode = code'
p92
sI222
S'        else:'
p93
sI223
S'            ccode = compile2(code, layer)'
p94
ssS'call'
p95
S'(code="db = DAL(\'sqlite://bootup.db\',pool_size=1,check_...archableprojects = openprojects | closedprojects\\n", environment={\'A\': <class \'gluon.html.A\'>, \'ANY_OF\': <class \'gluon.validators.ANY_OF\'>, \'ASSIGNJS\': <function ASSIGNJS>, \'B\': <class \'gluon.html.B\'>, \'BEAUTIFY\': <class \'gluon.html.BEAUTIFY\'>, \'BODY\': <class \'gluon.html.BODY\'>, \'BR\': <class \'gluon.html.BR\'>, \'BUTTON\': <class \'gluon.html.BUTTON\'>, \'BootUpAuth\': <class __restricted__.BootUpAuth>, \'CAT\': <class \'gluon.html.CAT\'>, ...}, layer=\'/Users/james/Documents/Dropbox/Uni/Year 4/iapt/a...py-2.9.11/web2py/applications/bootup/models/db.py\')'
p96
sS'func'
p97
S'restricted'
p98
sa(dp99
g74
S'/Users/james/Documents/Dropbox/Uni/Year 4/iapt/assessment/web2py-2.9.11/web2py/applications/bootup/models/db.py'
p100
sg76
(dp101
S'db.project'
p102
S'<Table project (idproject,title,shortdescription...iption,story,goal,categoryid,managerid,imageurl)>'
p103
sS'db.project.managerid'
p104
S'<gluon.dal.Field object>'
p105
sS'db'
p106
S'<DAL uri="sqlite://bootup.db">'
p107
sS'auth'
p108
S'<__restricted__.BootUpAuth instance>'
p109
sS'myprojects'
p110
S'1L'
p111
sS'auth.user_id'
p112
S'1L'
p113
ssg82
I175
sg83
(dp114
I170
S"                primarykey=['rewardid','pledgeid'])"
p115
sI171
S''
sI172
S''
sI173
S''
sI174
S''
sI175
S'myprojects = db.project.managerid = auth.user_id'
p116
sI176
S''
sI177
S'closedprojects = db.project.idproject.belongs(db._select(db.closedproject.openprojectid))'
p117
sI178
S'openprojects = db.project.idproject.belongs(db._select(db.openproject.projectid)) & ~closedprojects'
p118
sI179
S'notstartedprojects = ~openprojects & ~closedprojects'
p119
ssg95
S'()'
p120
sg97
S'<module>'
p121
sa(dp122
g74
S'/Users/james/Documents/Dropbox/Uni/Year 4/iapt/assessment/web2py-2.9.11/web2py/gluon/dal.py'
p123
sg76
(dp124
S'builtinSyntaxError'
p125
S"<type 'exceptions.SyntaxError'>"
p126
sS'key'
p127
S"'managerid'"
p128
ssg82
I9171
sg83
(dp129
I9166
S''
sI9167
S'    __getattr__ = __getitem__'
p130
sI9168
S''
sI9169
S'    def __setattr__(self, key, value):'
p131
sI9170
S"        if key[:1]!='_' and key in self:"
p132
sI9171
S"            raise SyntaxError('Object exists and cannot be redefined: %s' % key)"
p133
sI9172
S'        osetattr(self, key, value)'
p134
sI9173
S''
sI9174
S'    def __delitem__(self, key):'
p135
sI9175
S'        if isinstance(key, dict):'
p136
ssg95
S"(self=<Table project (idproject,title,shortdescription...iption,story,goal,categoryid,managerid,imageurl)>, key='managerid', value=1L)"
p137
sg97
g26
sasS'pyver'
p138
S'Python 2.7.5: /usr/bin/python (prefix: /System/Library/Frameworks/Python.framework/Versions/2.7)'
p139
sS'session'
p140
g69
(S's\x99\x00\x00\x00<div><table><tr><td style="font-weight:bold;vertical-align:top;">user</td><td style="vertical-align:top;">:</td><td><div>1L</div></td></tr></table></div>'
tRp141
sS'etype'
p142
S"<type 'exceptions.SyntaxError'>"
p143
sS'date'
p144
S'Sat Nov 22 22:31:31 2014'
p145
sS'response'
p146
g69
(S'sX\x18\x00\x00<div><table><tr><td style="font-weight:bold;vertical-align:top;">body</td><td style="vertical-align:top;">:</td><td><div>&lt;cStringIO.StringO object at 0x113ef0110&gt;</div></td></tr><tr><td style="font-weight:bold;vertical-align:top;">cookies</td><td style="vertical-align:top;">:</td><td><div><table><tr><td style="font-weight:bold;vertical-align:top;">session_id_bootup</td><td style="vertical-align:top;">:</td><td><div>127.0.0.1-ec15de51-7eba-48e2-bbbf-3efdc3718908<table><tr><td style="font-weight:bold;vertical-align:top;">comment</td><td style="vertical-align:top;">:</td><td><div></div></td></tr><tr><td style="font-weight:bold;vertical-align:top;">domain</td><td style="vertical-align:top;">:</td><td><div></div></td></tr><tr><td style="font-weight:bold;vertical-align:top;">expires</td><td style="vertical-align:top;">:</td><td><div></div></td></tr><tr><td style="font-weight:bold;vertical-align:top;">httponly</td><td style="vertical-align:top;">:</td><td><div></div></td></tr><tr><td style="font-weight:bold;vertical-align:top;">max-age</td><td style="vertical-align:top;">:</td><td><div></div></td></tr><tr><td style="font-weight:bold;vertical-align:top;">path</td><td style="vertical-align:top;">:</td><td><div>/</div></td></tr><tr><td style="font-weight:bold;vertical-align:top;">secure</td><td style="vertical-align:top;">:</td><td><div></div></td></tr><tr><td style="font-weight:bold;vertical-align:top;">version</td><td style="vertical-align:top;">:</td><td><div></div></td></tr></table></div></td></tr></table></div></td></tr><tr><td style="font-weight:bold;vertical-align:top;">delimiters</td><td style="vertical-align:top;">:</td><td><div><table><tr><td><div>{{</div></td></tr><tr><td><div>}}</div></td></tr></table></div></td></tr><tr><td style="font-weight:bold;vertical-align:top;">files</td><td style="vertical-align:top;">:</td><td><div><table></table></div></td></tr><tr><td style="font-weight:bold;vertical-align:top;">flash</td><td style="vertical-align:top;">:</td><td><div></div></td></tr><tr><td style="font-weight:bold;vertical-align:top;">form_label_separator</td><td style="vertical-align:top;">:</td><td><div>: </div></td></tr><tr><td style="font-weight:bold;vertical-align:top;">formstyle</td><td style="vertical-align:top;">:</td><td><div>table3cols</div></td></tr><tr><td style="font-weight:bold;vertical-align:top;">generic_patterns</td><td style="vertical-align:top;">:</td><td><div><table><tr><td><div>*</div></td></tr></table></div></td></tr><tr><td style="font-weight:bold;vertical-align:top;">headers</td><td style="vertical-align:top;">:</td><td><div><table><tr><td style="font-weight:bold;vertical-align:top;">X-Powered-By</td><td style="vertical-align:top;">:</td><td><div>web2py</div></td></tr></table></div></td></tr><tr><td style="font-weight:bold;vertical-align:top;">menu</td><td style="vertical-align:top;">:</td><td><div><table></table></div></td></tr><tr><td style="font-weight:bold;vertical-align:top;">meta</td><td style="vertical-align:top;">:</td><td><div><table></table></div></td></tr><tr><td style="font-weight:bold;vertical-align:top;">models_to_run</td><td style="vertical-align:top;">:</td><td><div><table><tr><td><div>^\\w+\\.py$</div></td></tr><tr><td><div>^project/\\w+\\.py$</div></td></tr><tr><td><div>^project/index/\\w+\\.py$</div></td></tr></table></div></td></tr><tr><td style="font-weight:bold;vertical-align:top;">postprocessing</td><td style="vertical-align:top;">:</td><td><div><table></table></div></td></tr><tr><td style="font-weight:bold;vertical-align:top;">session_client</td><td style="vertical-align:top;">:</td><td><div>127.0.0.1</div></td></tr><tr><td style="font-weight:bold;vertical-align:top;">session_cookie_compression_level</td><td style="vertical-align:top;">:</td><td><div>None</div></td></tr><tr><td style="font-weight:bold;vertical-align:top;">session_cookie_expires</td><td style="vertical-align:top;">:</td><td><div>None</div></td></tr><tr><td style="font-weight:bold;vertical-align:top;">session_cookie_key</td><td style="vertical-align:top;">:</td><td><div>None</div></td></tr><tr><td style="font-weight:bold;vertical-align:top;">session_data_name</td><td style="vertical-align:top;">:</td><td><div>session_data_bootup</div></td></tr><tr><td style="font-weight:bold;vertical-align:top;">session_file</td><td style="vertical-align:top;">:</td><td><div>&lt;open file &#x27;/Users/james/Documents/Dropbox/Uni/Year 4/iapt/assessment/web2py-2.9.11/web2py/applications/bootup/sessions/0f5/1f1/127.0.0.1-ec15de51-7eba-48e2-bbbf-3efdc3718908&#x27;, mode &#x27;rb+&#x27; at 0x113c8df60&gt;</div></td></tr><tr><td style="font-weight:bold;vertical-align:top;">session_filename</td><td style="vertical-align:top;">:</td><td><div>/Users/james/Documents/Dropbox/Uni/Year 4/iapt/assessment/web2py-2.9.11/web2py/applications/bootup/sessions/127.0.0.1-ec15de51-7eba-48e2-bbbf-3efdc3718908</div></td></tr><tr><td style="font-weight:bold;vertical-align:top;">session_hash</td><td style="vertical-align:top;">:</td><td><div>defe9cae1f925001e2dae97214df0c1c</div></td></tr><tr><td style="font-weight:bold;vertical-align:top;">session_id</td><td style="vertical-align:top;">:</td><td><div>127.0.0.1-ec15de51-7eba-48e2-bbbf-3efdc3718908</div></td></tr><tr><td style="font-weight:bold;vertical-align:top;">session_id_name</td><td style="vertical-align:top;">:</td><td><div>session_id_bootup</div></td></tr><tr><td style="font-weight:bold;vertical-align:top;">session_locked</td><td style="vertical-align:top;">:</td><td><div>True</div></td></tr><tr><td style="font-weight:bold;vertical-align:top;">session_masterapp</td><td style="vertical-align:top;">:</td><td><div>bootup</div></td></tr><tr><td style="font-weight:bold;vertical-align:top;">session_new</td><td style="vertical-align:top;">:</td><td><div>False</div></td></tr><tr><td style="font-weight:bold;vertical-align:top;">session_storage_type</td><td style="vertical-align:top;">:</td><td><div>file</div></td></tr><tr><td style="font-weight:bold;vertical-align:top;">status</td><td style="vertical-align:top;">:</td><td><div>200</div></td></tr><tr><td style="font-weight:bold;vertical-align:top;">view</td><td style="vertical-align:top;">:</td><td><div>project/index.html</div></td></tr></table></div>'
tRp147
sS'locals'
p148
(dp149
S'self'
p150
S'<Table project (idproject,title,shortdescription...iption,story,goal,categoryid,managerid,imageurl)>'
p151
sS'value'
p152
S'1L'
p153
sS'key'
p154
S"'managerid'"
p155
sssS'traceback'
p156
S'Traceback (most recent call last):\n  File "/Users/james/Documents/Dropbox/Uni/Year 4/iapt/assessment/web2py-2.9.11/web2py/gluon/restricted.py", line 224, in restricted\n    exec ccode in environment\n  File "/Users/james/Documents/Dropbox/Uni/Year 4/iapt/assessment/web2py-2.9.11/web2py/applications/bootup/models/db.py", line 175, in <module>\n    myprojects = db.project.managerid = auth.user_id\n  File "/Users/james/Documents/Dropbox/Uni/Year 4/iapt/assessment/web2py-2.9.11/web2py/gluon/dal.py", line 9171, in __setattr__\n    raise SyntaxError(\'Object exists and cannot be redefined: %s\' % key)\nSyntaxError: Object exists and cannot be redefined: managerid\n'
p157
s.