(dp1
S'output'
p2
S"<class 'sqlite3.OperationalError'> no such column: booting.projectid"
p3
sS'layer'
p4
S'/Users/james/Documents/Dropbox/Uni/Year 4/iapt/assessment/web2py-2.9.11/web2py/applications/bootup/views/project/view.html'
p5
sS'code'
p6
S'categories=db().select(db.category.ALL)\nresponse.write(\'\\n<!DOCTYPE html>\\n<html>\\n<head lang="en">\\n    <meta charset="UTF-8">\\n    <title>Bootups</title>\\n    <link href=\\\'http://fonts.googleapis.com/css?family=Pacifico\\\' rel=\\\'stylesheet\\\' type=\\\'text/css\\\' />\\n    <link rel="stylesheet" href="\', escape=False)\nresponse.write(URL(\'static\',\'css/bootstrap.min.css\'))\nresponse.write(\'" />\\n    <link rel="stylesheet" href="\', escape=False)\nresponse.write(URL(\'static\',\'css/bootups.css\'))\nresponse.write(\'" />\\n\\n    <script src="\', escape=False)\nresponse.write(URL(\'static\',\'js/jquery-1.11.1.min.js\'))\nresponse.write(\'"></script>\\n    <script src="\', escape=False)\nresponse.write(URL(\'static\',\'js/bootstrap.min.js\'))\nresponse.write(\'"></script>\\n</head>\\n<body>\\n    <div class="bootups_nav navbar">\\n        <div class="container">\\n            <div class="navbar-left">\\n                <h1 class="logo">\', escape=False)\nresponse.write(A(\'BootUps\',_href=URL(\'bootup\',\'project\',\'index\')))\nresponse.write(\'</h1>\\n            </div>\\n\\n            <div class="navbar-form navbar-right bootups_nav_search">\\n                \', escape=False)\nresponse.write(\'<form class="bootups_search" method="get" action="\', escape=False)\nresponse.write(URL(\'bootup\',\'project\',\'search\'))\nresponse.write(\'" role="search">\\n    <div class="form-group">\\n        <input type="text" name="q" class="form-control">\\n    </div>\\n\\n    <button type="submit" class="btn btn-default"><span class="glyphicon glyphicon-search"></span></button>\\n</form>\\n\\n\', escape=False)\nresponse.write(\'\\n            </div>\\n        </div>\\n    </div>\\n\\n    <nav class="navbar navbar-default navbar-static-top" role="navigation">\\n      <div class="container">\\n          <ul class="nav navbar-header navbar-nav">\\n            <li>\', escape=False)\nresponse.write(A(\'Create Project\',_href=URL(\'bootup\',\'project\',\'create\')))\nresponse.write(\'</li>\\n            <li class="dropdown">\\n              <a href="#" class="dropdown-toggle" data-toggle="dropdown" role="button" aria-expanded="false">Discover BootUps <span class="caret"></span></a>\\n              <ul class="dropdown-menu" role="menu">\\n          \', escape=False)\nfor menucategory in categories:\n    response.write(\'\\n                <li>\', escape=False)\n    response.write(A(menucategory.name, _href=URL(\'bootup\',\'category\',\'view\',args=[menucategory.url])))\n    response.write(\'</li>\\n          \', escape=False)\n    pass\nresponse.write(\'\\n              </ul>\\n            </li>\\n          </ul>\\n          <ul class="nav navbar-nav navbar-right">\\n\\n\\n              \', escape=False)\nif auth.is_logged_in():\n    response.write(\'\\n                    <li>\', escape=False)\n    response.write(A(\'My Account\',_href=URL(\'bootup\',\'user\',\'index\')))\n    response.write(\'</li>\\n                    <li>\', escape=False)\n    response.write(A(\'Log Out\',_href=URL(\'bootup\',\'user\',\'logout\')))\n    response.write(\'</li>\\n              \', escape=False)\nelse:\n    response.write(\'\\n                    <li>\', escape=False)\n    response.write(A(\'Login\',_href=URL(\'bootup\',\'user\',\'login\')))\n    response.write(\'</li>\\n                    <li>\', escape=False)\n    response.write(A(\'Register\',_href=URL(\'bootup\',\'user\',\'register\')))\n    response.write(\'</li>\\n              \', escape=False)\n    pass\nresponse.write(\'\\n          </ul>\\n        </div>\\n\\n    </nav>\\n\\n    <div class="container" role="main">\\n        \', escape=False)\nresponse.write(\'\\n\\n\', escape=False)\nresponse.write(H2(record.project.title))\nresponse.write(\'\\n<div class="row">\\n\\n    <div class="col-md-8 col-sm-8 col-lg-8 col-xs-12">\\n        \', escape=False)\nresponse.write(record.project.shortdescription)\nresponse.write(\'\\n\\n\\n\\n\\n        <h3>Project Backers</h3>\\n            \', escape=False)\nresponse.write(record.project.bootings())\nresponse.write(\'\\n        for contribution in record.project.contributions():\\n            =H4(contribution.user.name)\\n            =P("Purchased the following reward " + contribution.reward.description)\\n            =P(contribution.pledge.pledgedate)\\n        pass\\n    </div>\\n\\n    <div class="col-md-4 col-sm-4 col-lg-4 col-xs-12">\\n        <h1>&pound;\', escape=False)\nresponse.write(record.projectstat.totalvalue)\nresponse.write(\' raised</h1>\\n        <h1>&pound;\', escape=False)\nresponse.write(record.project.goal)\nresponse.write(\' goal</h1>\\n        <h1>\', escape=False)\nresponse.write(record.projectstat.bootings)\nresponse.write(\' bootings</h1>\\n        \', escape=False)\nif record.project.hascontributed():\n    response.write(\'\\n            You have contributed to this project\\n        \', escape=False)\n    pass\nresponse.write(\'\\n        <h4>Rewards</h4>\\n        \', escape=False)\nfor pledge in record.project.pledges():\n    response.write(\'\\n            \', escape=False)\n    response.write(\'<div class="pledge_summary">\\n    <div class="pledge_value">&pound;\', escape=False)\n    response.write(pledge.pledge.value)\n    response.write(\'</div>\\n    <h5>\', escape=False)\n    response.write(pledge.pledge.description)\n    response.write(\'</h5>\\n    <ul class="pledge_rewards">\\n        \', escape=False)\n    for reward in pledge.pledge.rewards():\n        response.write(\'\\n            <li>\', escape=False)\n        response.write(reward.description)\n        response.write(\'</li>\\n        \', escape=False)\n        pass\n    response.write(\'\\n    </ul>\\n\\n</div>\', escape=False)\n    response.write(\'\\n        \', escape=False)\n    pass\nresponse.write(\'\\n    </div>\\n</div>\\n\\n\\n\', escape=False)\nresponse.write(\'\\n    </div>\\n\\n    \', escape=False)\npass\nresponse.write(\'\\n\\n\\n</body>\\n</html>\', escape=False)'
p7
sS'snapshot'
p8
(dp9
S'exception'
p10
(dp11
S'__module__'
p12
S"'sqlite3'"
p13
sS'__getslice__'
p14
S"<method-wrapper '__getslice__' of OperationalError object>"
p15
sS'__str__'
p16
S"<method-wrapper '__str__' of OperationalError object>"
p17
sS'__reduce__'
p18
S'<built-in method __reduce__ of OperationalError object>'
p19
sS'__dict__'
p20
S'{}'
p21
sS'__sizeof__'
p22
S'<built-in method __sizeof__ of OperationalError object>'
p23
sS'__weakref__'
p24
S'None'
p25
sS'__init__'
p26
S"<method-wrapper '__init__' of OperationalError object>"
p27
sS'__setattr__'
p28
S"<method-wrapper '__setattr__' of OperationalError object>"
p29
sS'__reduce_ex__'
p30
S'<built-in method __reduce_ex__ of OperationalError object>'
p31
sS'__new__'
p32
S'<built-in method __new__ of type object>'
p33
sS'__format__'
p34
S'<built-in method __format__ of OperationalError object>'
p35
sS'__class__'
p36
S"<class 'sqlite3.OperationalError'>"
p37
sS'__doc__'
p38
S'None'
p39
sS'__getitem__'
p40
S"<method-wrapper '__getitem__' of OperationalError object>"
p41
sS'__setstate__'
p42
S'<built-in method __setstate__ of OperationalError object>'
p43
sS'__getattribute__'
p44
S"<method-wrapper '__getattribute__' of OperationalError object>"
p45
sS'args'
p46
S"('no such column: booting.projectid',)"
p47
sS'__subclasshook__'
p48
S'<built-in method __subclasshook__ of type object>'
p49
sS'__unicode__'
p50
S'<built-in method __unicode__ of OperationalError object>'
p51
sS'__delattr__'
p52
S"<method-wrapper '__delattr__' of OperationalError object>"
p53
sS'__repr__'
p54
S"<method-wrapper '__repr__' of OperationalError object>"
p55
sS'__hash__'
p56
S"<method-wrapper '__hash__' of OperationalError object>"
p57
ssS'evalue'
p58
S'no such column: booting.projectid'
p59
sS'request'
p60
cgluon.html
XML_unpickle
p61
(S's\x0cX\x00\x00<div><table><tr><td style="font-weight:bold;vertical-align:top;">ajax</td><td style="vertical-align:top;">:</td><td><div>False</div></td></tr><tr><td style="font-weight:bold;vertical-align:top;">application</td><td style="vertical-align:top;">:</td><td><div>bootup</div></td></tr><tr><td style="font-weight:bold;vertical-align:top;">args</td><td style="vertical-align:top;">:</td><td><div><table><tr><td><div>6</div></td></tr></table></div></td></tr><tr><td style="font-weight:bold;vertical-align:top;">cid</td><td style="vertical-align:top;">:</td><td><div>None</div></td></tr><tr><td style="font-weight:bold;vertical-align:top;">client</td><td style="vertical-align:top;">:</td><td><div>127.0.0.1</div></td></tr><tr><td style="font-weight:bold;vertical-align:top;">controller</td><td style="vertical-align:top;">:</td><td><div>project</div></td></tr><tr><td style="font-weight:bold;vertical-align:top;">cookies</td><td style="vertical-align:top;">:</td><td><div><table><tr><td style="font-weight:bold;vertical-align:top;">session_id_admin</td><td style="vertical-align:top;">:</td><td><div>127.0.0.1-d5f035ce-fe78-483c-907e-4bbdee1f8d57<table><tr><td style="font-weight:bold;vertical-align:top;">comment</td><td style="vertical-align:top;">:</td><td><div></div></td></tr><tr><td style="font-weight:bold;vertical-align:top;">domain</td><td style="vertical-align:top;">:</td><td><div></div></td></tr><tr><td style="font-weight:bold;vertical-align:top;">expires</td><td style="vertical-align:top;">:</td><td><div></div></td></tr><tr><td style="font-weight:bold;vertical-align:top;">httponly</td><td style="vertical-align:top;">:</td><td><div></div></td></tr><tr><td style="font-weight:bold;vertical-align:top;">max-age</td><td style="vertical-align:top;">:</td><td><div></div></td></tr><tr><td style="font-weight:bold;vertical-align:top;">path</td><td style="vertical-align:top;">:</td><td><div></div></td></tr><tr><td style="font-weight:bold;vertical-align:top;">secure</td><td style="vertical-align:top;">:</td><td><div></div></td></tr><tr><td style="font-weight:bold;vertical-align:top;">version</td><td style="vertical-align:top;">:</td><td><div></div></td></tr></table></div></td></tr><tr><td style="font-weight:bold;vertical-align:top;">session_id_bootup</td><td style="vertical-align:top;">:</td><td><div>127.0.0.1-6543c37b-0e7c-4341-b2b0-67667ed320d5<table><tr><td style="font-weight:bold;vertical-align:top;">comment</td><td style="vertical-align:top;">:</td><td><div></div></td></tr><tr><td style="font-weight:bold;vertical-align:top;">domain</td><td style="vertical-align:top;">:</td><td><div></div></td></tr><tr><td style="font-weight:bold;vertical-align:top;">expires</td><td style="vertical-align:top;">:</td><td><div></div></td></tr><tr><td style="font-weight:bold;vertical-align:top;">httponly</td><td style="vertical-align:top;">:</td><td><div></div></td></tr><tr><td style="font-weight:bold;vertical-align:top;">max-age</td><td style="vertical-align:top;">:</td><td><div></div></td></tr><tr><td style="font-weight:bold;vertical-align:top;">path</td><td style="vertical-align:top;">:</td><td><div></div></td></tr><tr><td style="font-weight:bold;vertical-align:top;">secure</td><td style="vertical-align:top;">:</td><td><div></div></td></tr><tr><td style="font-weight:bold;vertical-align:top;">version</td><td style="vertical-align:top;">:</td><td><div></div></td></tr></table></div></td></tr></table></div></td></tr><tr><td style="font-weight:bold;vertical-align:top;">env</td><td style="vertical-align:top;">:</td><td><div><table><tr><td style="font-weight:bold;vertical-align:top;">HTTP_ACCEPT</td><td style="vertical-align:top;">:</td><td><div>text/html,application/xhtml+xml,application/xml;q=0.9,image/webp,*/*;q=0.8</div></td></tr><tr><td style="font-weight:bold;vertical-align:top;">HTTP_ACCEPT_ENCODING</td><td style="vertical-align:top;">:</td><td><div>gzip,deflate,sdch</div></td></tr><tr><td style="font-weight:bold;vertical-align:top;">HTTP_ACCEPT_LANGUAGE</td><td style="vertical-align:top;">:</td><td><div>en-US,en;q=0.8</div></td></tr><tr><td style="font-weight:bold;vertical-align:top;">HTTP_CACHE_CONTROL</td><td style="vertical-align:top;">:</td><td><div>max-age=0</div></td></tr><tr><td style="font-weight:bold;vertical-align:top;">HTTP_CONNECTION</td><td style="vertical-align:top;">:</td><td><div>keep-alive</div></td></tr><tr><td style="font-weight:bold;vertical-align:top;">HTTP_COOKIE</td><td style="vertical-align:top;">:</td><td><div>session_id_bootup=127.0.0.1-6543c37b-0e7c-4341-b2b0-67667ed320d5; session_id_admin=127.0.0.1-d5f035ce-fe78-483c-907e-4bbdee1f8d57</div></td></tr><tr><td style="font-weight:bold;vertical-align:top;">HTTP_HOST</td><td style="vertical-align:top;">:</td><td><div>127.0.0.1:8000</div></td></tr><tr><td style="font-weight:bold;vertical-align:top;">HTTP_USER_AGENT</td><td style="vertical-align:top;">:</td><td><div>Mozilla/5.0 (Macintosh; Intel Mac OS X 10_9_4) AppleWebKit/537.36 (KHTML, like Gecko) Chrome/38.0.2125.122 Safari/537.36</div></td></tr><tr><td style="font-weight:bold;vertical-align:top;">PATH_INFO</td><td style="vertical-align:top;">:</td><td><div>/bootup/project/view/6</div></td></tr><tr><td style="font-weight:bold;vertical-align:top;">QUERY_STRING</td><td style="vertical-align:top;">:</td><td><div></div></td></tr><tr><td style="font-weight:bold;vertical-align:top;">REMOTE_ADDR</td><td style="vertical-align:top;">:</td><td><div>127.0.0.1</div></td></tr><tr><td style="font-weight:bold;vertical-align:top;">REMOTE_PORT</td><td style="vertical-align:top;">:</td><td><div>55599</div></td></tr><tr><td style="font-weight:bold;vertical-align:top;">REQUEST_METHOD</td><td style="vertical-align:top;">:</td><td><div>GET</div></td></tr><tr><td style="font-weight:bold;vertical-align:top;">SCRIPT_NAME</td><td style="vertical-align:top;">:</td><td><div></div></td></tr><tr><td style="font-weight:bold;vertical-align:top;">SERVER_NAME</td><td style="vertical-align:top;">:</td><td><div>jt-mbp.default</div></td></tr><tr><td style="font-weight:bold;vertical-align:top;">SERVER_PORT</td><td style="vertical-align:top;">:</td><td><div>8000</div></td></tr><tr><td style="font-weight:bold;vertical-align:top;">SERVER_PROTOCOL</td><td style="vertical-align:top;">:</td><td><div>HTTP/1.1</div></td></tr><tr><td style="font-weight:bold;vertical-align:top;">SERVER_SOFTWARE</td><td style="vertical-align:top;">:</td><td><div>Rocket 1.2.6</div></td></tr><tr><td style="font-weight:bold;vertical-align:top;">app_folders</td><td style="vertical-align:top;">:</td><td><div>set([&#x27;/Users/james/Documents/Dropbox/Uni/Year 4/iapt/assessment/web2py-2.9.11/web2py/applications/admin/&#x27;, &#x27;/Users/james/Documents/Dropbox/Uni/Year 4/iapt/assessment/web2py-2.9.11/web2py/applications/bootup/&#x27;])</div></td></tr><tr><td style="font-weight:bold;vertical-align:top;">applications_parent</td><td style="vertical-align:top;">:</td><td><div>/Users/james/Documents/Dropbox/Uni/Year 4/iapt/assessment/web2py-2.9.11/web2py</div></td></tr><tr><td style="font-weight:bold;vertical-align:top;">cmd_args</td><td style="vertical-align:top;">:</td><td><div><table></table></div></td></tr><tr><td style="font-weight:bold;vertical-align:top;">cmd_options</td><td style="vertical-align:top;">:</td><td><div>&lt;Values at 0x1037e72d8: {&#x27;verbose&#x27;: False, &#x27;ip&#x27;: &#x27;127.0.0.1&#x27;, &#x27;debuglevel&#x27;: 30, &#x27;with_scheduler&#x27;: False, &#x27;ips&#x27;: [&#x27;192.168.1.105&#x27;], &#x27;shutdown_timeout&#x27;: 5, &#x27;taskbar&#x27;: False, &#x27;with_coverage&#x27;: False, &#x27;scheduler_groups&#x27;: None, &#x27;port&#x27;: 8000, &#x27;maxthreads&#x27;: None, &#x27;softcron&#x27;: False, &#x27;server_name&#x27;: &#x27;jt-mbp.default&#x27;, &#x27;bpython&#x27;: False, &#x27;nogui&#x27;: False, &#x27;pid_filename&#x27;: &#x27;httpserver.pid&#x27;, &#x27;extcron&#x27;: False, &#x27;runcron&#x27;: False, &#x27;run_system_tests&#x27;: False, &#x27;test&#x27;: None, &#x27;folder&#x27;: &#x27;/Users/james/Documents/Dropbox/Uni/Year 4/iapt/assessment/web2py-2.9.11/web2py&#x27;, &#x27;config&#x27;: &#x27;&#x27;, &#x27;minthreads&#x27;: None, &#x27;shell&#x27;: None, &#x27;run&#x27;: &#x27;&#x27;, &#x27;log_filename&#x27;: &#x27;httpserver.log&#x27;, &#x27;profiler_dir&#x27;: None, &#x27;args&#x27;: [&#x27;&#x27;], &#x27;socket_timeout&#x27;: 5, &#x27;ssl_ca_certificate&#x27;: None, &#x27;scheduler&#x27;: None, &#x27;interfaces&#x27;: None, &#x27;ssl_private_key&#x27;: &#x27;&#x27;, &#x27;gae&#x27;: None, &#x27;password&#x27;: &#x27;&lt;ask&gt;&#x27;, &#x27;request_queue_size&#x27;: 5, &#x27;ssl_certificate&#x27;: &#x27;&#x27;, &#x27;cronjob&#x27;: False, &#x27;numthreads&#x27;: None, &#x27;quiet&#x27;: False, &#x27;import_models&#x27;: False, &#x27;timeout&#x27;: 10, &#x27;plain&#x27;: False, &#x27;nobanner&#x27;: False}&gt;</div></td></tr><tr><td style="font-weight:bold;vertical-align:top;">db_sessions</td><td style="vertical-align:top;">:</td><td><div>set([])</div></td></tr><tr><td style="font-weight:bold;vertical-align:top;">debugging</td><td style="vertical-align:top;">:</td><td><div>False</div></td></tr><tr><td style="font-weight:bold;vertical-align:top;">gluon_parent</td><td style="vertical-align:top;">:</td><td><div>/Users/james/Documents/Dropbox/Uni/Year 4/iapt/assessment/web2py-2.9.11/web2py</div></td></tr><tr><td style="font-weight:bold;vertical-align:top;">http_accept</td><td style="vertical-align:top;">:</td><td><div>text/html,application/xhtml+xml,application/xml;q=0.9,image/webp,*/*;q=0.8</div></td></tr><tr><td style="font-weight:bold;vertical-align:top;">http_accept_encoding</td><td style="vertical-align:top;">:</td><td><div>gzip,deflate,sdch</div></td></tr><tr><td style="font-weight:bold;vertical-align:top;">http_accept_language</td><td style="vertical-align:top;">:</td><td><div>en-US,en;q=0.8</div></td></tr><tr><td style="font-weight:bold;vertical-align:top;">http_cache_control</td><td style="vertical-align:top;">:</td><td><div>max-age=0</div></td></tr><tr><td style="font-weight:bold;vertical-align:top;">http_connection</td><td style="vertical-align:top;">:</td><td><div>keep-alive</div></td></tr><tr><td style="font-weight:bold;vertical-align:top;">http_cookie</td><td style="vertical-align:top;">:</td><td><div>session_id_bootup=127.0.0.1-6543c37b-0e7c-4341-b2b0-67667ed320d5; session_id_admin=127.0.0.1-d5f035ce-fe78-483c-907e-4bbdee1f8d57</div></td></tr><tr><td style="font-weight:bold;vertical-align:top;">http_host</td><td style="vertical-align:top;">:</td><td><div>127.0.0.1:8000</div></td></tr><tr><td style="font-weight:bold;vertical-align:top;">http_user_agent</td><td style="vertical-align:top;">:</td><td><div>Mozilla/5.0 (Macintosh; Intel Mac OS X 10_9_4) AppleWebKit/537.36 (KHTML, like Gecko) Chrome/38.0.2125.122 Safari/537.36</div></td></tr><tr><td style="font-weight:bold;vertical-align:top;">is_jython</td><td style="vertical-align:top;">:</td><td><div>False</div></td></tr><tr><td style="font-weight:bold;vertical-align:top;">is_pypy</td><td style="vertical-align:top;">:</td><td><div>False</div></td></tr><tr><td style="font-weight:bold;vertical-align:top;">is_source</td><td style="vertical-align:top;">:</td><td><div>True</div></td></tr><tr><td style="font-weight:bold;vertical-align:top;">local_hosts</td><td style="vertical-align:top;">:</td><td><div><table><tr><td><div>jt-mbp.default</div></td></tr><tr><td><div>::1</div></td></tr><tr><td><div>::ffff:127.0.0.1</div></td></tr><tr><td><div>127.0.0.1</div></td></tr><tr><td><div>192.168.1.105</div></td></tr></table></div></td></tr><tr><td style="font-weight:bold;vertical-align:top;">path_info</td><td style="vertical-align:top;">:</td><td><div>/bootup/project/view/6</div></td></tr><tr><td style="font-weight:bold;vertical-align:top;">query_string</td><td style="vertical-align:top;">:</td><td><div></div></td></tr><tr><td style="font-weight:bold;vertical-align:top;">remote_addr</td><td style="vertical-align:top;">:</td><td><div>127.0.0.1</div></td></tr><tr><td style="font-weight:bold;vertical-align:top;">remote_port</td><td style="vertical-align:top;">:</td><td><div>55599</div></td></tr><tr><td style="font-weight:bold;vertical-align:top;">request_method</td><td style="vertical-align:top;">:</td><td><div>GET</div></td></tr><tr><td style="font-weight:bold;vertical-align:top;">request_uri</td><td style="vertical-align:top;">:</td><td><div>/bootup/project/view/6</div></td></tr><tr><td style="font-weight:bold;vertical-align:top;">script_name</td><td style="vertical-align:top;">:</td><td><div></div></td></tr><tr><td style="font-weight:bold;vertical-align:top;">server_name</td><td style="vertical-align:top;">:</td><td><div>jt-mbp.default</div></td></tr><tr><td style="font-weight:bold;vertical-align:top;">server_port</td><td style="vertical-align:top;">:</td><td><div>8000</div></td></tr><tr><td style="font-weight:bold;vertical-align:top;">server_protocol</td><td style="vertical-align:top;">:</td><td><div>HTTP/1.1</div></td></tr><tr><td style="font-weight:bold;vertical-align:top;">server_software</td><td style="vertical-align:top;">:</td><td><div>Rocket 1.2.6</div></td></tr><tr><td style="font-weight:bold;vertical-align:top;">web2py_path</td><td style="vertical-align:top;">:</td><td><div>/Users/james/Documents/Dropbox/Uni/Year 4/iapt/assessment/web2py-2.9.11/web2py</div></td></tr><tr><td style="font-weight:bold;vertical-align:top;">web2py_version</td><td style="vertical-align:top;">:</td><td><div>2.9.11-stable+timestamp.2014.09.15.23.35.11</div></td></tr><tr><td style="font-weight:bold;vertical-align:top;">wsgi.errors</td><td style="vertical-align:top;">:</td><td><div>&lt;open file &#x27;&lt;stderr&gt;&#x27;, mode &#x27;w&#x27; at 0x1029061e0&gt;</div></td></tr><tr><td style="font-weight:bold;vertical-align:top;">wsgi.file_wrapper</td><td style="vertical-align:top;">:</td><td><div>&lt;class wsgiref.util.FileWrapper at 0x103519e20&gt;</div></td></tr><tr><td style="font-weight:bold;vertical-align:top;">wsgi.input</td><td style="vertical-align:top;">:</td><td><div>&lt;socket._fileobject object at 0x105843150&gt;</div></td></tr><tr><td style="font-weight:bold;vertical-align:top;">wsgi.multiprocess</td><td style="vertical-align:top;">:</td><td><div>False</div></td></tr><tr><td style="font-weight:bold;vertical-align:top;">wsgi.multithread</td><td style="vertical-align:top;">:</td><td><div>True</div></td></tr><tr><td style="font-weight:bold;vertical-align:top;">wsgi.run_once</td><td style="vertical-align:top;">:</td><td><div>False</div></td></tr><tr><td style="font-weight:bold;vertical-align:top;">wsgi.url_scheme</td><td style="vertical-align:top;">:</td><td><div>http</div></td></tr><tr><td style="font-weight:bold;vertical-align:top;">wsgi.version</td><td style="vertical-align:top;">:</td><td><div><table><tr><td><div>1</div></td></tr><tr><td><div>0</div></td></tr></table></div></td></tr><tr><td style="font-weight:bold;vertical-align:top;">wsgi_errors</td><td style="vertical-align:top;">:</td><td><div>&lt;open file &#x27;&lt;stderr&gt;&#x27;, mode &#x27;w&#x27; at 0x1029061e0&gt;</div></td></tr><tr><td style="font-weight:bold;vertical-align:top;">wsgi_file_wrapper</td><td style="vertical-align:top;">:</td><td><div>&lt;class wsgiref.util.FileWrapper at 0x103519e20&gt;</div></td></tr><tr><td style="font-weight:bold;vertical-align:top;">wsgi_input</td><td style="vertical-align:top;">:</td><td><div>&lt;socket._fileobject object at 0x105843150&gt;</div></td></tr><tr><td style="font-weight:bold;vertical-align:top;">wsgi_multiprocess</td><td style="vertical-align:top;">:</td><td><div>False</div></td></tr><tr><td style="font-weight:bold;vertical-align:top;">wsgi_multithread</td><td style="vertical-align:top;">:</td><td><div>True</div></td></tr><tr><td style="font-weight:bold;vertical-align:top;">wsgi_run_once</td><td style="vertical-align:top;">:</td><td><div>False</div></td></tr><tr><td style="font-weight:bold;vertical-align:top;">wsgi_url_scheme</td><td style="vertical-align:top;">:</td><td><div>http</div></td></tr><tr><td style="font-weight:bold;vertical-align:top;">wsgi_version</td><td style="vertical-align:top;">:</td><td><div><table><tr><td><div>1</div></td></tr><tr><td><div>0</div></td></tr></table></div></td></tr></table></div></td></tr><tr><td style="font-weight:bold;vertical-align:top;">extension</td><td style="vertical-align:top;">:</td><td><div>html</div></td></tr><tr><td style="font-weight:bold;vertical-align:top;">folder</td><td style="vertical-align:top;">:</td><td><div>/Users/james/Documents/Dropbox/Uni/Year 4/iapt/assessment/web2py-2.9.11/web2py/applications/bootup/</div></td></tr><tr><td style="font-weight:bold;vertical-align:top;">function</td><td style="vertical-align:top;">:</td><td><div>view</div></td></tr><tr><td style="font-weight:bold;vertical-align:top;">global_settings</td><td style="vertical-align:top;">:</td><td><div><table><tr><td style="font-weight:bold;vertical-align:top;">app_folders</td><td style="vertical-align:top;">:</td><td><div>set([&#x27;/Users/james/Documents/Dropbox/Uni/Year 4/iapt/assessment/web2py-2.9.11/web2py/applications/admin/&#x27;, &#x27;/Users/james/Documents/Dropbox/Uni/Year 4/iapt/assessment/web2py-2.9.11/web2py/applications/bootup/&#x27;])</div></td></tr><tr><td style="font-weight:bold;vertical-align:top;">applications_parent</td><td style="vertical-align:top;">:</td><td><div>/Users/james/Documents/Dropbox/Uni/Year 4/iapt/assessment/web2py-2.9.11/web2py</div></td></tr><tr><td style="font-weight:bold;vertical-align:top;">cmd_args</td><td style="vertical-align:top;">:</td><td><div><table></table></div></td></tr><tr><td style="font-weight:bold;vertical-align:top;">cmd_options</td><td style="vertical-align:top;">:</td><td><div>&lt;Values at 0x1037e72d8: {&#x27;verbose&#x27;: False, &#x27;ip&#x27;: &#x27;127.0.0.1&#x27;, &#x27;debuglevel&#x27;: 30, &#x27;with_scheduler&#x27;: False, &#x27;ips&#x27;: [&#x27;192.168.1.105&#x27;], &#x27;shutdown_timeout&#x27;: 5, &#x27;taskbar&#x27;: False, &#x27;with_coverage&#x27;: False, &#x27;scheduler_groups&#x27;: None, &#x27;port&#x27;: 8000, &#x27;maxthreads&#x27;: None, &#x27;softcron&#x27;: False, &#x27;server_name&#x27;: &#x27;jt-mbp.default&#x27;, &#x27;bpython&#x27;: False, &#x27;nogui&#x27;: False, &#x27;pid_filename&#x27;: &#x27;httpserver.pid&#x27;, &#x27;extcron&#x27;: False, &#x27;runcron&#x27;: False, &#x27;run_system_tests&#x27;: False, &#x27;test&#x27;: None, &#x27;folder&#x27;: &#x27;/Users/james/Documents/Dropbox/Uni/Year 4/iapt/assessment/web2py-2.9.11/web2py&#x27;, &#x27;config&#x27;: &#x27;&#x27;, &#x27;minthreads&#x27;: None, &#x27;shell&#x27;: None, &#x27;run&#x27;: &#x27;&#x27;, &#x27;log_filename&#x27;: &#x27;httpserver.log&#x27;, &#x27;profiler_dir&#x27;: None, &#x27;args&#x27;: [&#x27;&#x27;], &#x27;socket_timeout&#x27;: 5, &#x27;ssl_ca_certificate&#x27;: None, &#x27;scheduler&#x27;: None, &#x27;interfaces&#x27;: None, &#x27;ssl_private_key&#x27;: &#x27;&#x27;, &#x27;gae&#x27;: None, &#x27;password&#x27;: &#x27;&lt;ask&gt;&#x27;, &#x27;request_queue_size&#x27;: 5, &#x27;ssl_certificate&#x27;: &#x27;&#x27;, &#x27;cronjob&#x27;: False, &#x27;numthreads&#x27;: None, &#x27;quiet&#x27;: False, &#x27;import_models&#x27;: False, &#x27;timeout&#x27;: 10, &#x27;plain&#x27;: False, &#x27;nobanner&#x27;: False}&gt;</div></td></tr><tr><td style="font-weight:bold;vertical-align:top;">db_sessions</td><td style="vertical-align:top;">:</td><td><div>set([])</div></td></tr><tr><td style="font-weight:bold;vertical-align:top;">debugging</td><td style="vertical-align:top;">:</td><td><div>False</div></td></tr><tr><td style="font-weight:bold;vertical-align:top;">gluon_parent</td><td style="vertical-align:top;">:</td><td><div>/Users/james/Documents/Dropbox/Uni/Year 4/iapt/assessment/web2py-2.9.11/web2py</div></td></tr><tr><td style="font-weight:bold;vertical-align:top;">is_jython</td><td style="vertical-align:top;">:</td><td><div>False</div></td></tr><tr><td style="font-weight:bold;vertical-align:top;">is_pypy</td><td style="vertical-align:top;">:</td><td><div>False</div></td></tr><tr><td style="font-weight:bold;vertical-align:top;">is_source</td><td style="vertical-align:top;">:</td><td><div>True</div></td></tr><tr><td style="font-weight:bold;vertical-align:top;">local_hosts</td><td style="vertical-align:top;">:</td><td><div><table><tr><td><div>jt-mbp.default</div></td></tr><tr><td><div>::1</div></td></tr><tr><td><div>::ffff:127.0.0.1</div></td></tr><tr><td><div>127.0.0.1</div></td></tr><tr><td><div>192.168.1.105</div></td></tr></table></div></td></tr><tr><td style="font-weight:bold;vertical-align:top;">web2py_version</td><td style="vertical-align:top;">:</td><td><div>2.9.11-stable+timestamp.2014.09.15.23.35.11</div></td></tr></table></div></td></tr><tr><td style="font-weight:bold;vertical-align:top;">is_https</td><td style="vertical-align:top;">:</td><td><div>False</div></td></tr><tr><td style="font-weight:bold;vertical-align:top;">is_local</td><td style="vertical-align:top;">:</td><td><div>True</div></td></tr><tr><td style="font-weight:bold;vertical-align:top;">is_restful</td><td style="vertical-align:top;">:</td><td><div>False</div></td></tr><tr><td style="font-weight:bold;vertical-align:top;">is_sheduler</td><td style="vertical-align:top;">:</td><td><div>None</div></td></tr><tr><td style="font-weight:bold;vertical-align:top;">is_shell</td><td style="vertical-align:top;">:</td><td><div>None</div></td></tr><tr><td style="font-weight:bold;vertical-align:top;">now</td><td style="vertical-align:top;">:</td><td><div>datetime.datetime(2014, 11, 24, 0, 29, 47, 380405)</div></td></tr><tr><td style="font-weight:bold;vertical-align:top;">raw_args</td><td style="vertical-align:top;">:</td><td><div>6</div></td></tr><tr><td style="font-weight:bold;vertical-align:top;">raw_extension</td><td style="vertical-align:top;">:</td><td><div>None</div></td></tr><tr><td style="font-weight:bold;vertical-align:top;">url</td><td style="vertical-align:top;">:</td><td><div>/bootup/project/view/6</div></td></tr><tr><td style="font-weight:bold;vertical-align:top;">utcnow</td><td style="vertical-align:top;">:</td><td><div>datetime.datetime(2014, 11, 24, 0, 29, 47, 380417)</div></td></tr><tr><td style="font-weight:bold;vertical-align:top;">uuid</td><td style="vertical-align:top;">:</td><td><div>bootup/127.0.0.1.2014-11-24.00-29-47.f07d5d9d-ac04-416b-8cee-6110c73b4328</div></td></tr><tr><td style="font-weight:bold;vertical-align:top;">wsgi</td><td style="vertical-align:top;">:</td><td><div>&lt;gluon.main.LazyWSGI object at 0x109d384d0&gt;</div></td></tr></table></div>'
tRp62
sS'frames'
p63
(lp64
(dp65
S'file'
p66
S'/Users/james/Documents/Dropbox/Uni/Year 4/iapt/assessment/web2py-2.9.11/web2py/gluon/restricted.py'
p67
sS'dump'
p68
(dp69
S'environment'
p70
S"{'A': <class 'gluon.html.A'>, 'ANY_OF': <class 'gluon.validators.ANY_OF'>, 'ASSIGNJS': <function ASSIGNJS>, 'B': <class 'gluon.html.B'>, 'BEAUTIFY': <class 'gluon.html.BEAUTIFY'>, 'BODY': <class 'gluon.html.BODY'>, 'BR': <class 'gluon.html.BR'>, 'BUTTON': <class 'gluon.html.BUTTON'>, 'BootUpAuth': <class __restricted__.BootUpAuth>, 'CAT': <class 'gluon.html.CAT'>, ...}"
p71
sS'ccode'
p72
S'<code object <module> at 0x109ccb830, file "/Use...ications/bootup/views/project/view.html", line 1>'
p73
ssS'lnum'
p74
I224
sS'lines'
p75
(dp76
I224
S'        exec ccode in environment'
p77
sI225
S'    except HTTP:'
p78
sI226
S'        raise'
p79
sI227
S'    except RestrictedError:'
p80
sI228
S'        # do not encapsulate (obfuscate) the original RestrictedError'
p81
sI219
S'    try:'
p82
sI220
S'        if isinstance(code, types.CodeType):'
p83
sI221
S'            ccode = code'
p84
sI222
S'        else:'
p85
sI223
S'            ccode = compile2(code, layer)'
p86
ssS'call'
p87
S'(code="categories=db().select(db.category.ALL)\\nresponse...nse.write(\'\\\\n\\\\n\\\\n</body>\\\\n</html>\', escape=False)", environment={\'A\': <class \'gluon.html.A\'>, \'ANY_OF\': <class \'gluon.validators.ANY_OF\'>, \'ASSIGNJS\': <function ASSIGNJS>, \'B\': <class \'gluon.html.B\'>, \'BEAUTIFY\': <class \'gluon.html.BEAUTIFY\'>, \'BODY\': <class \'gluon.html.BODY\'>, \'BR\': <class \'gluon.html.BR\'>, \'BUTTON\': <class \'gluon.html.BUTTON\'>, \'BootUpAuth\': <class __restricted__.BootUpAuth>, \'CAT\': <class \'gluon.html.CAT\'>, ...}, layer=\'/Users/james/Documents/Dropbox/Uni/Year 4/iapt/a...eb2py/applications/bootup/views/project/view.html\')'
p88
sS'func'
p89
S'restricted'
p90
sa(dp91
g66
S'/Users/james/Documents/Dropbox/Uni/Year 4/iapt/assessment/web2py-2.9.11/web2py/applications/bootup/views/project/view.html'
p92
sg68
(dp93
sg74
I44
sg75
(dp94
I35
S"    response.write(A('Register',_href=URL('bootup','user','register')))"
p95
sI36
S"    response.write('</li>\\n              ', escape=False)"
p96
sI37
S'    pass'
p97
sI38
S'response.write(\'\\n          </ul>\\n        </div>\\n\\n    </nav>\\n\\n    <div class="container" role="main">\\n        \', escape=False)'
p98
sI39
S"response.write('\\n\\n', escape=False)"
p99
sI40
S'response.write(H2(record.project.title))'
p100
sI41
S'response.write(\'\\n<div class="row">\\n\\n    <div class="col-md-8 col-sm-8 col-lg-8 col-xs-12">\\n        \', escape=False)'
p101
sI42
S'response.write(record.project.shortdescription)'
p102
sI43
S"response.write('\\n\\n\\n\\n\\n        <h3>Project Backers</h3>\\n            ', escape=False)"
p103
sI44
S'response.write(record.project.bootings())'
p104
sI45
S'response.write(\'\\n        for contribution in record.project.contributions():\\n            =H4(contribution.user.name)\\n            =P("Purchased the following reward " + contribution.reward.description)\\n            =P(contribution.pledge.pledgedate)\\n        pass\\n    </div>\\n\\n    <div class="col-md-4 col-sm-4 col-lg-4 col-xs-12">\\n        <h1>&pound;\', escape=False)'
p105
sI46
S'response.write(record.projectstat.totalvalue)'
p106
sI47
S"response.write(' raised</h1>\\n        <h1>&pound;', escape=False)"
p107
sI48
S'response.write(record.project.goal)'
p108
sI49
S"response.write(' goal</h1>\\n        <h1>', escape=False)"
p109
sI50
S'response.write(record.projectstat.bootings)'
p110
sI51
S"response.write(' bootings</h1>\\n        ', escape=False)"
p111
sI52
S'if record.project.hascontributed():'
p112
sI53
S"    response.write('\\n            You have contributed to this project\\n        ', escape=False)"
p113
sI54
S'    pass'
p114
ssg87
S'()'
p115
sg89
S'<module>'
p116
sa(dp117
g66
S'/Users/james/Documents/Dropbox/Uni/Year 4/iapt/assessment/web2py-2.9.11/web2py/gluon/dal.py'
p118
sg68
(dp119
S'self.row'
p120
S"<Row {'project': {'categoryid': 1L, 'longdescrip...': 17L, 'totalvalue': 20.0, 'remaining': 100.5}}>"
p121
sS'self'
p122
S'<gluon.dal.VirtualCommand object>'
p123
sS'args'
p124
S'()'
p125
sS'self.method'
p126
S'<function <lambda>>'
p127
sS'kwargs'
p128
g21
ssg74
I10958
sg75
(dp129
I10953
S'class VirtualCommand(object):'
p130
sI10954
S'    def __init__(self, method, row):'
p131
sI10955
S'        self.method=method'
p132
sI10956
S'        self.row=row'
p133
sI10957
S'    def __call__(self, *args, **kwargs):'
p134
sI10958
S'        return self.method(self.row, *args, **kwargs)'
p135
sI10959
S''
sI10960
S''
sI10961
S'def lazy_virtualfield(f):'
p136
sI10962
S'    f.__lazy__ = True'
p137
ssg87
S'(self=<gluon.dal.VirtualCommand object>, *args=(), **kwargs={})'
p138
sg89
S'__call__'
p139
sa(dp140
g66
S'/Users/james/Documents/Dropbox/Uni/Year 4/iapt/assessment/web2py-2.9.11/web2py/applications/bootup/models/db.py'
p141
sg68
(dp142
S').select'
p143
S'undefined'
p144
sS'global Field'
p145
S"<class 'gluon.dal.Field'>"
p146
sS'Field.Method'
p147
S"<class 'gluon.dal.FieldMethod'>"
p148
sS'db.rewardpledge.pledgeid'
p149
S'<gluon.dal.Field object>'
p150
sS'db.booting.ALL'
p151
S'<gluon.dal.SQLALL object>'
p152
sS'db.pledge.idpledge'
p153
S'<gluon.dal.Field object>'
p154
sS'row'
p155
S"<Row {'project': {'categoryid': 1L, 'longdescrip...': 17L, 'totalvalue': 20.0, 'remaining': 100.5}}>"
p156
sS'db.user.iduser'
p157
S'<gluon.dal.Field object>'
p158
sS'db.reward.idreward'
p159
S'<gluon.dal.Field object>'
p160
sS'row.project'
p161
S"<Row {'categoryid': 1L, 'longdescription': 'test...e6a7067.jpg', 'shortdescription': 'testing 123'}>"
p162
sS'db.user'
p163
S'<Table user (iduser,realname,username,dateofbirth)>'
p164
sS'db.pledge.ALL'
p165
S'<gluon.dal.SQLALL object>'
p166
sS'db.booting'
p167
S'<Table booting (idbooting,userid,projectid,pledgeid)>'
p168
sS'db.booting.idbooting'
p169
S'<gluon.dal.Field object>'
p170
sS'orderby'
p171
g144
sS'db.pledge'
p172
S'<Table pledge (idpledge,description,value,projectid)>'
p173
sS'row.project.idproject'
p174
S'1L'
p175
sS'db.booting.projectid'
p176
S'<gluon.dal.Field object>'
p177
sS'db.reward'
p178
S'<Table reward (idreward,description,projectid)>'
p179
sS'db.rewardpledge.rewardid'
p180
S'<gluon.dal.Field object>'
p181
sS'db.reward.ALL'
p182
S'<gluon.dal.SQLALL object>'
p183
sS'db.booting.userid'
p184
S'<gluon.dal.Field object>'
p185
sS'db.booting.pledgeid'
p186
S'<gluon.dal.Field object>'
p187
sS'db.rewardpledge'
p188
S'<Table rewardpledge (rewardid,pledgeid)>'
p189
sS'global db'
p190
S'<DAL uri="sqlite://bootup.db">'
p191
sS'db.user.ALL'
p192
S'<gluon.dal.SQLALL object>'
p193
ssg74
I146
sg75
(dp194
I141
S"                Field.Method('candelete', lambda row: auth.user_id==row.project.managerid and (db(db.openproject.projectid==row.project.idproject).count()==0 or db(db.closedproject.openprojectid==row.project.idproject).count()==1)),"
p195
sI142
S"                Field.Method('canedit', lambda row: auth.user_id==row.project.managerid and db(db.openproject.projectid==row.project.idproject).count()==0),"
p196
sI143
S''
sI144
S"                Field.Method('hascontributed', lambda row: db((db.booting.projectid==row.project.idproject) & (db.booting.userid == auth.user_id)) > 0),"
p197
sI145
S"                Field.Method('pledges', lambda row: db((db.pledge.projectid==row.project.idproject) & pledgestats).select(db.pledge.ALL,db.pledgestat.ALL, orderby=db.pledge.value)),"
p198
sI146
S"                Field.Method('bootings', lambda row: db((db.booting.projectid==row.project.idproject) & (db.pledge.idpledge==db.booting.pledgeid) & (db.user.iduser==db.booting.userid) & (db.rewardpledge.pledgeid==db.pledge.idpledge) & (db.reward.idreward==db.rewardpledge.rewardid)).select(db.user.ALL,db.booting.ALL,db.pledge.ALL,db.reward.ALL, orderby=db.booting.idbooting))"
p199
sI147
S''
sI148
S')'
sI149
S''
sI150
S"db.define_table('pledge',"
p200
ssg87
S"(row=<Row {'project': {'categoryid': 1L, 'longdescrip...': 17L, 'totalvalue': 20.0, 'remaining': 100.5}}>)"
p201
sg89
S'<lambda>'
p202
sa(dp203
g66
S'/Users/james/Documents/Dropbox/Uni/Year 4/iapt/assessment/web2py-2.9.11/web2py/gluon/dal.py'
p204
sg68
(dp205
S'self.query'
p206
S'<Query (((((booting.projectid = 1) AND (pledge.i...) AND (reward.idreward = rewardpledge.rewardid))>'
p207
sS'adapter.select'
p208
S'<bound method SQLiteAdapter.select of <gluon.dal.SQLiteAdapter object>>'
p209
sS'fields'
p210
S'[<gluon.dal.Field object>, <gluon.dal.Field object>, <gluon.dal.Field object>, <gluon.dal.Field object>, <gluon.dal.Field object>, <gluon.dal.Field object>, <gluon.dal.Field object>, <gluon.dal.Field object>, <gluon.dal.Field object>, <gluon.dal.Field object>, <gluon.dal.Field object>, <gluon.dal.Field object>, <gluon.dal.Field object>, <gluon.dal.Field object>, <gluon.dal.Field object>]'
p211
sS'adapter'
p212
S'<gluon.dal.SQLiteAdapter object>'
p213
sS'attributes'
p214
S"{'orderby': <gluon.dal.Field object>}"
p215
sS'self'
p216
S'<Set (((((booting.projectid = 1) AND (pledge.idp...) AND (reward.idreward = rewardpledge.rewardid))>'
p217
ssg74
I10749
sg75
(dp218
I10752
S'        return Expression(self.db, self._select(*fields, **attributes))'
p219
sI10753
S''
sI10744
S"                                    attributes.get('join', None),"
p220
sI10745
S"                                    attributes.get('left', None),"
p221
sI10746
S"                                    attributes.get('orderby', None),"
p222
sI10747
S"                                    attributes.get('groupby', None))"
p223
sI10748
S'        fields = adapter.expand_all(fields, tablenames)'
p224
sI10749
S'        return adapter.select(self.query, fields, attributes)'
p225
sI10750
S''
sI10751
S'    def nested_select(self, *fields, **attributes):'
p226
ssg87
S"(self=<Set (((((booting.projectid = 1) AND (pledge.idp...) AND (reward.idreward = rewardpledge.rewardid))>, *fields=[<gluon.dal.Field object>, <gluon.dal.Field object>, <gluon.dal.Field object>, <gluon.dal.Field object>, <gluon.dal.Field object>, <gluon.dal.Field object>, <gluon.dal.Field object>, <gluon.dal.Field object>, <gluon.dal.Field object>, <gluon.dal.Field object>, <gluon.dal.Field object>, <gluon.dal.Field object>, <gluon.dal.Field object>, <gluon.dal.Field object>, <gluon.dal.Field object>], **attributes={'orderby': <gluon.dal.Field object>})"
p227
sg89
S'select'
p228
sa(dp229
g66
S'/Users/james/Documents/Dropbox/Uni/Year 4/iapt/assessment/web2py-2.9.11/web2py/gluon/dal.py'
p230
sg68
(dp231
S'fields'
p232
S'[<gluon.dal.Field object>, <gluon.dal.Field object>, <gluon.dal.Field object>, <gluon.dal.Field object>, <gluon.dal.Field object>, <gluon.dal.Field object>, <gluon.dal.Field object>, <gluon.dal.Field object>, <gluon.dal.Field object>, <gluon.dal.Field object>, <gluon.dal.Field object>, <gluon.dal.Field object>, <gluon.dal.Field object>, <gluon.dal.Field object>, <gluon.dal.Field object>]'
p233
sS'self'
p234
S'<gluon.dal.SQLiteAdapter object>'
p235
sS').select'
p236
S'<bound method SQLiteAdapter.select of <gluon.dal.SQLiteAdapter object>>'
p237
sS'attributes'
p238
S"{'orderby': <gluon.dal.Field object>}"
p239
sS'global SQLiteAdapter'
p240
S"<class 'gluon.dal.SQLiteAdapter'>"
p241
sS'query'
p242
S'<Query (((((booting.projectid = 1) AND (pledge.i...) AND (reward.idreward = rewardpledge.rewardid))>'
p243
sS'builtinsuper'
p244
S"<type 'super'>"
p245
ssg74
I2472
sg75
(dp246
I2467
S'        Note that the entire database, rather than one record, is locked'
p247
sI2468
S'        (it will be locked eventually anyway by the following UPDATE).'
p248
sI2469
S'        """'
p249
sI2470
S"        if attributes.get('for_update', False) and not 'cache' in attributes:"
p250
sI2471
S"            self.execute('BEGIN IMMEDIATE TRANSACTION;')"
p251
sI2472
S'        return super(SQLiteAdapter, self).select(query, fields, attributes)'
p252
sI2473
S''
sI2474
S''
sI2475
S'class SpatiaLiteAdapter(SQLiteAdapter):'
p253
sI2476
S"    drivers = ('sqlite3', 'sqlite2')"
p254
ssg87
S"(self=<gluon.dal.SQLiteAdapter object>, query=<Query (((((booting.projectid = 1) AND (pledge.i...) AND (reward.idreward = rewardpledge.rewardid))>, fields=[<gluon.dal.Field object>, <gluon.dal.Field object>, <gluon.dal.Field object>, <gluon.dal.Field object>, <gluon.dal.Field object>, <gluon.dal.Field object>, <gluon.dal.Field object>, <gluon.dal.Field object>, <gluon.dal.Field object>, <gluon.dal.Field object>, <gluon.dal.Field object>, <gluon.dal.Field object>, <gluon.dal.Field object>, <gluon.dal.Field object>, <gluon.dal.Field object>], attributes={'orderby': <gluon.dal.Field object>})"
p255
sg89
g228
sa(dp256
g66
S'/Users/james/Documents/Dropbox/Uni/Year 4/iapt/assessment/web2py-2.9.11/web2py/gluon/dal.py'
p257
sg68
(dp258
S'fields'
p259
S'[<gluon.dal.Field object>, <gluon.dal.Field object>, <gluon.dal.Field object>, <gluon.dal.Field object>, <gluon.dal.Field object>, <gluon.dal.Field object>, <gluon.dal.Field object>, <gluon.dal.Field object>, <gluon.dal.Field object>, <gluon.dal.Field object>, <gluon.dal.Field object>, <gluon.dal.Field object>, <gluon.dal.Field object>, <gluon.dal.Field object>, <gluon.dal.Field object>]'
p260
sS'self'
p261
S'<gluon.dal.SQLiteAdapter object>'
p262
sS'attributes'
p263
S"{'orderby': <gluon.dal.Field object>}"
p264
sS'self._select_aux'
p265
S'<bound method SQLiteAdapter._select_aux of <gluon.dal.SQLiteAdapter object>>'
p266
sS'sql'
p267
S"'SELECT  user.iduser, user.realname, user.usernam...wardpledge.rewardid)) ORDER BY booting.idbooting;'"
p268
ssg74
I1881
sg75
(dp269
I1876
S'            return cache_model('
p270
sI1877
S'                key,'
p271
sI1878
S'                lambda self=self, args=args: self._select_aux(*args),'
p272
sI1879
S'                time_expire)'
p273
sI1880
S'        else:'
p274
sI1881
S'            return self._select_aux(sql, fields, attributes)'
p275
sI1882
S''
sI1883
S'    def _count(self, query, distinct=None):'
p276
sI1884
S'        tablenames = self.tables(query)'
p277
sI1885
S'        if query:'
p278
ssg87
S"(self=<gluon.dal.SQLiteAdapter object>, query=<Query (((((booting.projectid = 1) AND (pledge.i...) AND (reward.idreward = rewardpledge.rewardid))>, fields=[<gluon.dal.Field object>, <gluon.dal.Field object>, <gluon.dal.Field object>, <gluon.dal.Field object>, <gluon.dal.Field object>, <gluon.dal.Field object>, <gluon.dal.Field object>, <gluon.dal.Field object>, <gluon.dal.Field object>, <gluon.dal.Field object>, <gluon.dal.Field object>, <gluon.dal.Field object>, <gluon.dal.Field object>, <gluon.dal.Field object>, <gluon.dal.Field object>], attributes={'orderby': <gluon.dal.Field object>})"
p279
sg89
g228
sa(dp280
g66
S'/Users/james/Documents/Dropbox/Uni/Year 4/iapt/assessment/web2py-2.9.11/web2py/gluon/dal.py'
p281
sg68
(dp282
S'self'
p283
S'<gluon.dal.SQLiteAdapter object>'
p284
sS'self.execute'
p285
S'<bound method SQLiteAdapter.execute of <gluon.dal.SQLiteAdapter object>>'
p286
sS'sql'
p287
S"'SELECT  user.iduser, user.realname, user.usernam...wardpledge.rewardid)) ORDER BY booting.idbooting;'"
p288
ssg74
I1846
sg75
(dp289
I1841
S''
sI1842
S'    def _select_aux(self, sql, fields, attributes):'
p290
sI1843
S'        args_get = attributes.get'
p291
sI1844
S"        cache = args_get('cache',None)"
p292
sI1845
S'        if not cache:'
p293
sI1846
S'            self.execute(sql)'
p294
sI1847
S'            rows = self._fetchall()'
p295
sI1848
S'        else:'
p296
sI1849
S'            (cache_model, time_expire) = cache'
p297
sI1850
S"            key = self.uri + '/' + sql + '/rows'"
p298
ssg87
S"(self=<gluon.dal.SQLiteAdapter object>, sql='SELECT  user.iduser, user.realname, user.usernam...wardpledge.rewardid)) ORDER BY booting.idbooting;', fields=[<gluon.dal.Field object>, <gluon.dal.Field object>, <gluon.dal.Field object>, <gluon.dal.Field object>, <gluon.dal.Field object>, <gluon.dal.Field object>, <gluon.dal.Field object>, <gluon.dal.Field object>, <gluon.dal.Field object>, <gluon.dal.Field object>, <gluon.dal.Field object>, <gluon.dal.Field object>, <gluon.dal.Field object>, <gluon.dal.Field object>, <gluon.dal.Field object>], attributes={'orderby': <gluon.dal.Field object>})"
p299
sg89
S'_select_aux'
p300
sa(dp301
g66
S'/Users/james/Documents/Dropbox/Uni/Year 4/iapt/assessment/web2py-2.9.11/web2py/gluon/dal.py'
p302
sg68
(dp303
S'a'
S"('SELECT  user.iduser, user.realname, user.usernam...wardpledge.rewardid)) ORDER BY booting.idbooting;',)"
p304
sS'self'
p305
S'<gluon.dal.SQLiteAdapter object>'
p306
sS'b'
g21
sS'self.log_execute'
p307
S'<bound method SQLiteAdapter.log_execute of <gluon.dal.SQLiteAdapter object>>'
p308
ssg74
I1967
sg75
(dp309
I1962
S'        self.db._timings.append((command, time.time()-t0))'
p310
sI1963
S'        del self.db._timings[:-TIMINGSSIZE]'
p311
sI1964
S'        return ret'
p312
sI1965
S''
sI1966
S'    def execute(self, *a, **b):'
p313
sI1967
S'        return self.log_execute(*a, **b)'
p314
sI1968
S''
sI1969
S'    def represent(self, obj, fieldtype):'
p315
sI1970
S'        field_is_type = fieldtype.startswith'
p316
sI1971
S'        if isinstance(obj, CALLABLETYPES):'
p317
ssg87
S"(self=<gluon.dal.SQLiteAdapter object>, *a=('SELECT  user.iduser, user.realname, user.usernam...wardpledge.rewardid)) ORDER BY booting.idbooting;',), **b={})"
p318
sg89
S'execute'
p319
sa(dp320
g66
S'/Users/james/Documents/Dropbox/Uni/Year 4/iapt/assessment/web2py-2.9.11/web2py/gluon/dal.py'
p321
sg68
(dp322
S'a'
S"('SELECT  user.iduser, user.realname, user.usernam...wardpledge.rewardid)) ORDER BY booting.idbooting;',)"
p323
sS'b'
g21
sS'self'
p324
S'<gluon.dal.SQLiteAdapter object>'
p325
sS'ret'
p326
g144
sS'self.cursor'
p327
S'<sqlite3.Cursor object>'
p328
sS'command'
p329
S"'SELECT  user.iduser, user.realname, user.usernam...wardpledge.rewardid)) ORDER BY booting.idbooting;'"
p330
sS'self.cursor.execute'
p331
S'<built-in method execute of sqlite3.Cursor object>'
p332
ssg74
I1961
sg75
(dp333
I1956
S'            command = self.filter_sql_command(command)'
p334
sI1957
S'        if self.db._debug:'
p335
sI1958
S"            LOGGER.debug('SQL: %s' % command)"
p336
sI1959
S'        self.db._lastsql = command'
p337
sI1960
S'        t0 = time.time()'
p338
sI1961
S'        ret = self.cursor.execute(command, *a[1:], **b)'
p339
sI1962
S'        self.db._timings.append((command, time.time()-t0))'
p340
sI1963
S'        del self.db._timings[:-TIMINGSSIZE]'
p341
sI1964
S'        return ret'
p342
sI1965
S''
ssg87
S"(self=<gluon.dal.SQLiteAdapter object>, *a=('SELECT  user.iduser, user.realname, user.usernam...wardpledge.rewardid)) ORDER BY booting.idbooting;',), **b={})"
p343
sg89
S'log_execute'
p344
sasS'pyver'
p345
S'Python 2.7.5: /usr/bin/python (prefix: /System/Library/Frameworks/Python.framework/Versions/2.7)'
p346
sS'session'
p347
g61
(S's\x99\x00\x00\x00<div><table><tr><td style="font-weight:bold;vertical-align:top;">user</td><td style="vertical-align:top;">:</td><td><div>1L</div></td></tr></table></div>'
tRp348
sS'etype'
p349
S"<class 'sqlite3.OperationalError'>"
p350
sS'date'
p351
S'Mon Nov 24 00:29:47 2014'
p352
sS'response'
p353
g61
(S'sV\x18\x00\x00<div><table><tr><td style="font-weight:bold;vertical-align:top;">body</td><td style="vertical-align:top;">:</td><td><div>&lt;cStringIO.StringO object at 0x10587bc70&gt;</div></td></tr><tr><td style="font-weight:bold;vertical-align:top;">cookies</td><td style="vertical-align:top;">:</td><td><div><table><tr><td style="font-weight:bold;vertical-align:top;">session_id_bootup</td><td style="vertical-align:top;">:</td><td><div>127.0.0.1-6543c37b-0e7c-4341-b2b0-67667ed320d5<table><tr><td style="font-weight:bold;vertical-align:top;">comment</td><td style="vertical-align:top;">:</td><td><div></div></td></tr><tr><td style="font-weight:bold;vertical-align:top;">domain</td><td style="vertical-align:top;">:</td><td><div></div></td></tr><tr><td style="font-weight:bold;vertical-align:top;">expires</td><td style="vertical-align:top;">:</td><td><div></div></td></tr><tr><td style="font-weight:bold;vertical-align:top;">httponly</td><td style="vertical-align:top;">:</td><td><div></div></td></tr><tr><td style="font-weight:bold;vertical-align:top;">max-age</td><td style="vertical-align:top;">:</td><td><div></div></td></tr><tr><td style="font-weight:bold;vertical-align:top;">path</td><td style="vertical-align:top;">:</td><td><div>/</div></td></tr><tr><td style="font-weight:bold;vertical-align:top;">secure</td><td style="vertical-align:top;">:</td><td><div></div></td></tr><tr><td style="font-weight:bold;vertical-align:top;">version</td><td style="vertical-align:top;">:</td><td><div></div></td></tr></table></div></td></tr></table></div></td></tr><tr><td style="font-weight:bold;vertical-align:top;">delimiters</td><td style="vertical-align:top;">:</td><td><div><table><tr><td><div>{{</div></td></tr><tr><td><div>}}</div></td></tr></table></div></td></tr><tr><td style="font-weight:bold;vertical-align:top;">files</td><td style="vertical-align:top;">:</td><td><div><table></table></div></td></tr><tr><td style="font-weight:bold;vertical-align:top;">flash</td><td style="vertical-align:top;">:</td><td><div></div></td></tr><tr><td style="font-weight:bold;vertical-align:top;">form_label_separator</td><td style="vertical-align:top;">:</td><td><div>: </div></td></tr><tr><td style="font-weight:bold;vertical-align:top;">formstyle</td><td style="vertical-align:top;">:</td><td><div>table3cols</div></td></tr><tr><td style="font-weight:bold;vertical-align:top;">generic_patterns</td><td style="vertical-align:top;">:</td><td><div><table><tr><td><div>*</div></td></tr></table></div></td></tr><tr><td style="font-weight:bold;vertical-align:top;">headers</td><td style="vertical-align:top;">:</td><td><div><table><tr><td style="font-weight:bold;vertical-align:top;">X-Powered-By</td><td style="vertical-align:top;">:</td><td><div>web2py</div></td></tr></table></div></td></tr><tr><td style="font-weight:bold;vertical-align:top;">menu</td><td style="vertical-align:top;">:</td><td><div><table></table></div></td></tr><tr><td style="font-weight:bold;vertical-align:top;">meta</td><td style="vertical-align:top;">:</td><td><div><table></table></div></td></tr><tr><td style="font-weight:bold;vertical-align:top;">models_to_run</td><td style="vertical-align:top;">:</td><td><div><table><tr><td><div>^\\w+\\.py$</div></td></tr><tr><td><div>^project/\\w+\\.py$</div></td></tr><tr><td><div>^project/view/\\w+\\.py$</div></td></tr></table></div></td></tr><tr><td style="font-weight:bold;vertical-align:top;">postprocessing</td><td style="vertical-align:top;">:</td><td><div><table></table></div></td></tr><tr><td style="font-weight:bold;vertical-align:top;">session_client</td><td style="vertical-align:top;">:</td><td><div>127.0.0.1</div></td></tr><tr><td style="font-weight:bold;vertical-align:top;">session_cookie_compression_level</td><td style="vertical-align:top;">:</td><td><div>None</div></td></tr><tr><td style="font-weight:bold;vertical-align:top;">session_cookie_expires</td><td style="vertical-align:top;">:</td><td><div>None</div></td></tr><tr><td style="font-weight:bold;vertical-align:top;">session_cookie_key</td><td style="vertical-align:top;">:</td><td><div>None</div></td></tr><tr><td style="font-weight:bold;vertical-align:top;">session_data_name</td><td style="vertical-align:top;">:</td><td><div>session_data_bootup</div></td></tr><tr><td style="font-weight:bold;vertical-align:top;">session_file</td><td style="vertical-align:top;">:</td><td><div>&lt;open file &#x27;/Users/james/Documents/Dropbox/Uni/Year 4/iapt/assessment/web2py-2.9.11/web2py/applications/bootup/sessions/1dd/1f1/127.0.0.1-6543c37b-0e7c-4341-b2b0-67667ed320d5&#x27;, mode &#x27;rb+&#x27; at 0x10cc61db0&gt;</div></td></tr><tr><td style="font-weight:bold;vertical-align:top;">session_filename</td><td style="vertical-align:top;">:</td><td><div>/Users/james/Documents/Dropbox/Uni/Year 4/iapt/assessment/web2py-2.9.11/web2py/applications/bootup/sessions/127.0.0.1-6543c37b-0e7c-4341-b2b0-67667ed320d5</div></td></tr><tr><td style="font-weight:bold;vertical-align:top;">session_hash</td><td style="vertical-align:top;">:</td><td><div>f3939949c4b6da42a51b79e05ae73bbc</div></td></tr><tr><td style="font-weight:bold;vertical-align:top;">session_id</td><td style="vertical-align:top;">:</td><td><div>127.0.0.1-6543c37b-0e7c-4341-b2b0-67667ed320d5</div></td></tr><tr><td style="font-weight:bold;vertical-align:top;">session_id_name</td><td style="vertical-align:top;">:</td><td><div>session_id_bootup</div></td></tr><tr><td style="font-weight:bold;vertical-align:top;">session_locked</td><td style="vertical-align:top;">:</td><td><div>True</div></td></tr><tr><td style="font-weight:bold;vertical-align:top;">session_masterapp</td><td style="vertical-align:top;">:</td><td><div>bootup</div></td></tr><tr><td style="font-weight:bold;vertical-align:top;">session_new</td><td style="vertical-align:top;">:</td><td><div>False</div></td></tr><tr><td style="font-weight:bold;vertical-align:top;">session_storage_type</td><td style="vertical-align:top;">:</td><td><div>file</div></td></tr><tr><td style="font-weight:bold;vertical-align:top;">status</td><td style="vertical-align:top;">:</td><td><div>200</div></td></tr><tr><td style="font-weight:bold;vertical-align:top;">view</td><td style="vertical-align:top;">:</td><td><div>project/view.html</div></td></tr></table></div>'
tRp354
sS'locals'
p355
(dp356
S'a'
S"('SELECT  user.iduser, user.realname, user.usernam...wardpledge.rewardid)) ORDER BY booting.idbooting;',)"
p357
sS'self'
p358
S'<gluon.dal.SQLiteAdapter object>'
p359
sS'b'
g21
sS'command'
p360
S"'SELECT  user.iduser, user.realname, user.usernam...wardpledge.rewardid)) ORDER BY booting.idbooting;'"
p361
sS't0'
p362
S'1416788987.408602'
p363
sssS'traceback'
p364
S'Traceback (most recent call last):\n  File "/Users/james/Documents/Dropbox/Uni/Year 4/iapt/assessment/web2py-2.9.11/web2py/gluon/restricted.py", line 224, in restricted\n    exec ccode in environment\n  File "/Users/james/Documents/Dropbox/Uni/Year 4/iapt/assessment/web2py-2.9.11/web2py/applications/bootup/views/project/view.html", line 44, in <module>\n  File "/Users/james/Documents/Dropbox/Uni/Year 4/iapt/assessment/web2py-2.9.11/web2py/gluon/dal.py", line 10958, in __call__\n    return self.method(self.row, *args, **kwargs)\n  File "/Users/james/Documents/Dropbox/Uni/Year 4/iapt/assessment/web2py-2.9.11/web2py/applications/bootup/models/db.py", line 146, in <lambda>\n    Field.Method(\'bootings\', lambda row: db((db.booting.projectid==row.project.idproject) & (db.pledge.idpledge==db.booting.pledgeid) & (db.user.iduser==db.booting.userid) & (db.rewardpledge.pledgeid==db.pledge.idpledge) & (db.reward.idreward==db.rewardpledge.rewardid)).select(db.user.ALL,db.booting.ALL,db.pledge.ALL,db.reward.ALL, orderby=db.booting.idbooting))\n  File "/Users/james/Documents/Dropbox/Uni/Year 4/iapt/assessment/web2py-2.9.11/web2py/gluon/dal.py", line 10749, in select\n    return adapter.select(self.query, fields, attributes)\n  File "/Users/james/Documents/Dropbox/Uni/Year 4/iapt/assessment/web2py-2.9.11/web2py/gluon/dal.py", line 2472, in select\n    return super(SQLiteAdapter, self).select(query, fields, attributes)\n  File "/Users/james/Documents/Dropbox/Uni/Year 4/iapt/assessment/web2py-2.9.11/web2py/gluon/dal.py", line 1881, in select\n    return self._select_aux(sql, fields, attributes)\n  File "/Users/james/Documents/Dropbox/Uni/Year 4/iapt/assessment/web2py-2.9.11/web2py/gluon/dal.py", line 1846, in _select_aux\n    self.execute(sql)\n  File "/Users/james/Documents/Dropbox/Uni/Year 4/iapt/assessment/web2py-2.9.11/web2py/gluon/dal.py", line 1967, in execute\n    return self.log_execute(*a, **b)\n  File "/Users/james/Documents/Dropbox/Uni/Year 4/iapt/assessment/web2py-2.9.11/web2py/gluon/dal.py", line 1961, in log_execute\n    ret = self.cursor.execute(command, *a[1:], **b)\nOperationalError: no such column: booting.projectid\n'
p365
s.