(dp1
S'output'
p2
S"<class 'sqlite3.OperationalError'> no such column: credential.salt"
p3
sS'layer'
p4
S'/Users/james/Documents/Dropbox/Uni/Year 4/iapt/assessment/web2py-2.9.11/web2py/applications/bootup/controllers/user.py'
p5
sS'code'
p6
S'import hashlib,os\n\nfrom applications.bootup.forms.bootupform import BOOTUPFORM\n\n\nclass REGISTRATIONFORM(BOOTUPFORM):\n    @staticmethod\n    def factory():\n        return REGISTRATIONFORM(\n            DAL(None).define_table(\'user\', db.user, Field(\'password\',type="password"),\n            Field(\'confirmpassword\',type=\'password\',label="Confirm Password", requires=IS_EQUAL_TO(request.vars.password, error_message="Passwords do not match")),\n            db.address))\n\n\n    def insertuserinfo(self,form):\n        user = db.user.insert(**db.user._filter_fields(form.vars))\n        form.vars.userid = user[\'iduser\']\n\n        db.address.insert(**db.address._filter_fields(form.vars))\n\n        credentialvars =dict()\n        credentialvars[\'user\'] = user[\'iduser\']\n        credentialvars[\'salt\'] = os.urandom(12).encode(\'base_64\')\n        credentialvars[\'hash\'] = hashlib.sha256(hashlib.sha256(form.vars.password).hexdigest() + credentialvars[\'salt\']).hexdigest()\n        db.credential.update_or_insert(**credentialvars)\n\n\n    def process(self,**kwargs):\n        return super(REGISTRATIONFORM,self).process(onvalidation=self.insertuserinfo,**kwargs)\n\n\n\nclass LOGINFORM(BOOTUPFORM):\n    def checkuser(self,form):\n        user = db((db.credential.userid==db.user.iduser) & (db.user.username.like(form.vars.username))).select(db.user.iduser,db.credential.salt,db.credential.hash).first()\n        if user is None:\n            form.errors.username = "User is not registered"\n        elif hashlib.sha256(hashlib.sha256(form.vars.password).hexdigest() + user.credential.salt).hexdigest() != user.credential.hash:\n            form.errors.password = "Incorrect password"\n        else:\n            session.user = user.user.iduser\n\n\n    def process(self,**kwargs):\n        return super(LOGINFORM,self).process(onvalidation=self.checkuser,**kwargs)\n\n    @staticmethod\n    def factory(**kwargs):\n        return LOGINFORM(DAL(None).define_table("no_table",\n                Field(\'username\'),\n                Field(\'password\', type=\'password\')\n        ), **kwargs)\n\n\n\n\n\ndef register():\n    form=REGISTRATIONFORM.factory()\n\n\n    message=""\n\n    if form.process().accepted:\n        message = \'form accepted\'\n    elif form.errors:\n        message = \'form has errors\'\n    return dict(form=form,message=message)\n\ndef login():\n    form=LOGINFORM.factory()\n    message=""\n\n    if form.process().accepted:\n        message = \'form accepted\'\n\n\n\n    elif form.errors:\n        message = \'form has errors\'\n    return dict(form=form,message=message)\n\nresponse._vars=response._caller(login)\n'
p7
sS'snapshot'
p8
(dp9
S'exception'
p10
(dp11
S'__module__'
p12
S"'sqlite3'"
p13
sS'__getslice__'
p14
S"<method-wrapper '__getslice__' of OperationalError object>"
p15
sS'__str__'
p16
S"<method-wrapper '__str__' of OperationalError object>"
p17
sS'__reduce__'
p18
S'<built-in method __reduce__ of OperationalError object>'
p19
sS'__dict__'
p20
S'{}'
p21
sS'__sizeof__'
p22
S'<built-in method __sizeof__ of OperationalError object>'
p23
sS'__weakref__'
p24
S'None'
p25
sS'__init__'
p26
S"<method-wrapper '__init__' of OperationalError object>"
p27
sS'__setattr__'
p28
S"<method-wrapper '__setattr__' of OperationalError object>"
p29
sS'__reduce_ex__'
p30
S'<built-in method __reduce_ex__ of OperationalError object>'
p31
sS'__new__'
p32
S'<built-in method __new__ of type object>'
p33
sS'__format__'
p34
S'<built-in method __format__ of OperationalError object>'
p35
sS'__class__'
p36
S"<class 'sqlite3.OperationalError'>"
p37
sS'__doc__'
p38
S'None'
p39
sS'__getitem__'
p40
S"<method-wrapper '__getitem__' of OperationalError object>"
p41
sS'__setstate__'
p42
S'<built-in method __setstate__ of OperationalError object>'
p43
sS'__getattribute__'
p44
S"<method-wrapper '__getattribute__' of OperationalError object>"
p45
sS'args'
p46
S"('no such column: credential.salt',)"
p47
sS'__subclasshook__'
p48
S'<built-in method __subclasshook__ of type object>'
p49
sS'__unicode__'
p50
S'<built-in method __unicode__ of OperationalError object>'
p51
sS'__delattr__'
p52
S"<method-wrapper '__delattr__' of OperationalError object>"
p53
sS'__repr__'
p54
S"<method-wrapper '__repr__' of OperationalError object>"
p55
sS'__hash__'
p56
S"<method-wrapper '__hash__' of OperationalError object>"
p57
ssS'evalue'
p58
S'no such column: credential.salt'
p59
sS'request'
p60
cgluon.html
XML_unpickle
p61
(S's]c\x00\x00<div><table><tr><td style="font-weight:bold;vertical-align:top;">ajax</td><td style="vertical-align:top;">:</td><td><div>False</div></td></tr><tr><td style="font-weight:bold;vertical-align:top;">application</td><td style="vertical-align:top;">:</td><td><div>bootup</div></td></tr><tr><td style="font-weight:bold;vertical-align:top;">args</td><td style="vertical-align:top;">:</td><td><div><table></table></div></td></tr><tr><td style="font-weight:bold;vertical-align:top;">cid</td><td style="vertical-align:top;">:</td><td><div>None</div></td></tr><tr><td style="font-weight:bold;vertical-align:top;">client</td><td style="vertical-align:top;">:</td><td><div>127.0.0.1</div></td></tr><tr><td style="font-weight:bold;vertical-align:top;">controller</td><td style="vertical-align:top;">:</td><td><div>user</div></td></tr><tr><td style="font-weight:bold;vertical-align:top;">cookies</td><td style="vertical-align:top;">:</td><td><div><table><tr><td style="font-weight:bold;vertical-align:top;">session_id_admin</td><td style="vertical-align:top;">:</td><td><div>127.0.0.1-62b6ee29-c039-4f06-8bc4-c07dac88274e<table><tr><td style="font-weight:bold;vertical-align:top;">comment</td><td style="vertical-align:top;">:</td><td><div></div></td></tr><tr><td style="font-weight:bold;vertical-align:top;">domain</td><td style="vertical-align:top;">:</td><td><div></div></td></tr><tr><td style="font-weight:bold;vertical-align:top;">expires</td><td style="vertical-align:top;">:</td><td><div></div></td></tr><tr><td style="font-weight:bold;vertical-align:top;">httponly</td><td style="vertical-align:top;">:</td><td><div></div></td></tr><tr><td style="font-weight:bold;vertical-align:top;">max-age</td><td style="vertical-align:top;">:</td><td><div></div></td></tr><tr><td style="font-weight:bold;vertical-align:top;">path</td><td style="vertical-align:top;">:</td><td><div></div></td></tr><tr><td style="font-weight:bold;vertical-align:top;">secure</td><td style="vertical-align:top;">:</td><td><div></div></td></tr><tr><td style="font-weight:bold;vertical-align:top;">version</td><td style="vertical-align:top;">:</td><td><div></div></td></tr></table></div></td></tr><tr><td style="font-weight:bold;vertical-align:top;">session_id_bootup</td><td style="vertical-align:top;">:</td><td><div>127.0.0.1-ec15de51-7eba-48e2-bbbf-3efdc3718908<table><tr><td style="font-weight:bold;vertical-align:top;">comment</td><td style="vertical-align:top;">:</td><td><div></div></td></tr><tr><td style="font-weight:bold;vertical-align:top;">domain</td><td style="vertical-align:top;">:</td><td><div></div></td></tr><tr><td style="font-weight:bold;vertical-align:top;">expires</td><td style="vertical-align:top;">:</td><td><div></div></td></tr><tr><td style="font-weight:bold;vertical-align:top;">httponly</td><td style="vertical-align:top;">:</td><td><div></div></td></tr><tr><td style="font-weight:bold;vertical-align:top;">max-age</td><td style="vertical-align:top;">:</td><td><div></div></td></tr><tr><td style="font-weight:bold;vertical-align:top;">path</td><td style="vertical-align:top;">:</td><td><div></div></td></tr><tr><td style="font-weight:bold;vertical-align:top;">secure</td><td style="vertical-align:top;">:</td><td><div></div></td></tr><tr><td style="font-weight:bold;vertical-align:top;">version</td><td style="vertical-align:top;">:</td><td><div></div></td></tr></table></div></td></tr></table></div></td></tr><tr><td style="font-weight:bold;vertical-align:top;">env</td><td style="vertical-align:top;">:</td><td><div><table><tr><td style="font-weight:bold;vertical-align:top;">CONTENT_LENGTH</td><td style="vertical-align:top;">:</td><td><div>484</div></td></tr><tr><td style="font-weight:bold;vertical-align:top;">CONTENT_TYPE</td><td style="vertical-align:top;">:</td><td><div>multipart/form-data; boundary=----WebKitFormBoundaryvdi8LdZ5KLSSK7J7</div></td></tr><tr><td style="font-weight:bold;vertical-align:top;">HTTP_ACCEPT</td><td style="vertical-align:top;">:</td><td><div>text/html,application/xhtml+xml,application/xml;q=0.9,image/webp,*/*;q=0.8</div></td></tr><tr><td style="font-weight:bold;vertical-align:top;">HTTP_ACCEPT_ENCODING</td><td style="vertical-align:top;">:</td><td><div>gzip,deflate</div></td></tr><tr><td style="font-weight:bold;vertical-align:top;">HTTP_ACCEPT_LANGUAGE</td><td style="vertical-align:top;">:</td><td><div>en-US,en;q=0.8</div></td></tr><tr><td style="font-weight:bold;vertical-align:top;">HTTP_CACHE_CONTROL</td><td style="vertical-align:top;">:</td><td><div>max-age=0</div></td></tr><tr><td style="font-weight:bold;vertical-align:top;">HTTP_CONNECTION</td><td style="vertical-align:top;">:</td><td><div>keep-alive</div></td></tr><tr><td style="font-weight:bold;vertical-align:top;">HTTP_CONTENT_LENGTH</td><td style="vertical-align:top;">:</td><td><div>484</div></td></tr><tr><td style="font-weight:bold;vertical-align:top;">HTTP_CONTENT_TYPE</td><td style="vertical-align:top;">:</td><td><div>multipart/form-data; boundary=----WebKitFormBoundaryvdi8LdZ5KLSSK7J7</div></td></tr><tr><td style="font-weight:bold;vertical-align:top;">HTTP_COOKIE</td><td style="vertical-align:top;">:</td><td><div>session_id_bootup=127.0.0.1-ec15de51-7eba-48e2-bbbf-3efdc3718908; session_id_admin=127.0.0.1-62b6ee29-c039-4f06-8bc4-c07dac88274e</div></td></tr><tr><td style="font-weight:bold;vertical-align:top;">HTTP_HOST</td><td style="vertical-align:top;">:</td><td><div>127.0.0.1:8000</div></td></tr><tr><td style="font-weight:bold;vertical-align:top;">HTTP_ORIGIN</td><td style="vertical-align:top;">:</td><td><div>http://127.0.0.1:8000</div></td></tr><tr><td style="font-weight:bold;vertical-align:top;">HTTP_REFERER</td><td style="vertical-align:top;">:</td><td><div>http://127.0.0.1:8000/bootup/user/login</div></td></tr><tr><td style="font-weight:bold;vertical-align:top;">HTTP_USER_AGENT</td><td style="vertical-align:top;">:</td><td><div>Mozilla/5.0 (Macintosh; Intel Mac OS X 10_9_4) AppleWebKit/537.36 (KHTML, like Gecko) Chrome/38.0.2125.122 Safari/537.36</div></td></tr><tr><td style="font-weight:bold;vertical-align:top;">PATH_INFO</td><td style="vertical-align:top;">:</td><td><div>/bootup/user/login</div></td></tr><tr><td style="font-weight:bold;vertical-align:top;">QUERY_STRING</td><td style="vertical-align:top;">:</td><td><div></div></td></tr><tr><td style="font-weight:bold;vertical-align:top;">REMOTE_ADDR</td><td style="vertical-align:top;">:</td><td><div>127.0.0.1</div></td></tr><tr><td style="font-weight:bold;vertical-align:top;">REMOTE_PORT</td><td style="vertical-align:top;">:</td><td><div>53709</div></td></tr><tr><td style="font-weight:bold;vertical-align:top;">REQUEST_METHOD</td><td style="vertical-align:top;">:</td><td><div>POST</div></td></tr><tr><td style="font-weight:bold;vertical-align:top;">SCRIPT_NAME</td><td style="vertical-align:top;">:</td><td><div></div></td></tr><tr><td style="font-weight:bold;vertical-align:top;">SERVER_NAME</td><td style="vertical-align:top;">:</td><td><div>jt-mbp.local</div></td></tr><tr><td style="font-weight:bold;vertical-align:top;">SERVER_PORT</td><td style="vertical-align:top;">:</td><td><div>8000</div></td></tr><tr><td style="font-weight:bold;vertical-align:top;">SERVER_PROTOCOL</td><td style="vertical-align:top;">:</td><td><div>HTTP/1.1</div></td></tr><tr><td style="font-weight:bold;vertical-align:top;">SERVER_SOFTWARE</td><td style="vertical-align:top;">:</td><td><div>Rocket 1.2.6</div></td></tr><tr><td style="font-weight:bold;vertical-align:top;">app_folders</td><td style="vertical-align:top;">:</td><td><div>set([&#x27;/Users/james/Documents/Dropbox/Uni/Year 4/iapt/assessment/web2py-2.9.11/web2py/applications/admin/&#x27;, &#x27;/Users/james/Documents/Dropbox/Uni/Year 4/iapt/assessment/web2py-2.9.11/web2py/applications/bootup/&#x27;])</div></td></tr><tr><td style="font-weight:bold;vertical-align:top;">applications_parent</td><td style="vertical-align:top;">:</td><td><div>/Users/james/Documents/Dropbox/Uni/Year 4/iapt/assessment/web2py-2.9.11/web2py</div></td></tr><tr><td style="font-weight:bold;vertical-align:top;">cmd_args</td><td style="vertical-align:top;">:</td><td><div><table></table></div></td></tr><tr><td style="font-weight:bold;vertical-align:top;">cmd_options</td><td style="vertical-align:top;">:</td><td><div>&lt;Values at 0x10dd162d8: {&#x27;verbose&#x27;: False, &#x27;ip&#x27;: &#x27;127.0.0.1&#x27;, &#x27;debuglevel&#x27;: 30, &#x27;with_scheduler&#x27;: False, &#x27;ips&#x27;: [&#x27;192.168.1.205&#x27;, &#x27;192.168.1.105&#x27;, &#x27;fe80::82e6:50ff:fe13:c80c%en0&#x27;, &#x27;fe80::82e6:50ff:fe13:c80c%en4&#x27;, &#x27;fe80::e4d:e9ff:feaf:c666%en4&#x27;, &#x27;fe80::e4d:e9ff:feaf:c666%en0&#x27;], &#x27;shutdown_timeout&#x27;: 5, &#x27;taskbar&#x27;: False, &#x27;with_coverage&#x27;: False, &#x27;scheduler_groups&#x27;: None, &#x27;port&#x27;: 8000, &#x27;maxthreads&#x27;: None, &#x27;softcron&#x27;: False, &#x27;server_name&#x27;: &#x27;jt-mbp.local&#x27;, &#x27;bpython&#x27;: False, &#x27;nogui&#x27;: False, &#x27;pid_filename&#x27;: &#x27;httpserver.pid&#x27;, &#x27;extcron&#x27;: False, &#x27;runcron&#x27;: False, &#x27;run_system_tests&#x27;: False, &#x27;test&#x27;: None, &#x27;folder&#x27;: &#x27;/Users/james/Documents/Dropbox/Uni/Year 4/iapt/assessment/web2py-2.9.11/web2py&#x27;, &#x27;config&#x27;: &#x27;&#x27;, &#x27;minthreads&#x27;: None, &#x27;shell&#x27;: None, &#x27;run&#x27;: &#x27;&#x27;, &#x27;log_filename&#x27;: &#x27;httpserver.log&#x27;, &#x27;profiler_dir&#x27;: None, &#x27;args&#x27;: [&#x27;&#x27;], &#x27;socket_timeout&#x27;: 5, &#x27;ssl_ca_certificate&#x27;: None, &#x27;scheduler&#x27;: None, &#x27;interfaces&#x27;: None, &#x27;ssl_private_key&#x27;: &#x27;&#x27;, &#x27;gae&#x27;: None, &#x27;password&#x27;: &#x27;&lt;ask&gt;&#x27;, &#x27;request_queue_size&#x27;: 5, &#x27;ssl_certificate&#x27;: &#x27;&#x27;, &#x27;cronjob&#x27;: False, &#x27;numthreads&#x27;: None, &#x27;quiet&#x27;: False, &#x27;import_models&#x27;: False, &#x27;timeout&#x27;: 10, &#x27;plain&#x27;: False, &#x27;nobanner&#x27;: False}&gt;</div></td></tr><tr><td style="font-weight:bold;vertical-align:top;">content_length</td><td style="vertical-align:top;">:</td><td><div>484</div></td></tr><tr><td style="font-weight:bold;vertical-align:top;">content_type</td><td style="vertical-align:top;">:</td><td><div>multipart/form-data; boundary=----WebKitFormBoundaryvdi8LdZ5KLSSK7J7</div></td></tr><tr><td style="font-weight:bold;vertical-align:top;">db_sessions</td><td style="vertical-align:top;">:</td><td><div>set([])</div></td></tr><tr><td style="font-weight:bold;vertical-align:top;">debugging</td><td style="vertical-align:top;">:</td><td><div>False</div></td></tr><tr><td style="font-weight:bold;vertical-align:top;">gluon_parent</td><td style="vertical-align:top;">:</td><td><div>/Users/james/Documents/Dropbox/Uni/Year 4/iapt/assessment/web2py-2.9.11/web2py</div></td></tr><tr><td style="font-weight:bold;vertical-align:top;">http_accept</td><td style="vertical-align:top;">:</td><td><div>text/html,application/xhtml+xml,application/xml;q=0.9,image/webp,*/*;q=0.8</div></td></tr><tr><td style="font-weight:bold;vertical-align:top;">http_accept_encoding</td><td style="vertical-align:top;">:</td><td><div>gzip,deflate</div></td></tr><tr><td style="font-weight:bold;vertical-align:top;">http_accept_language</td><td style="vertical-align:top;">:</td><td><div>en-US,en;q=0.8</div></td></tr><tr><td style="font-weight:bold;vertical-align:top;">http_cache_control</td><td style="vertical-align:top;">:</td><td><div>max-age=0</div></td></tr><tr><td style="font-weight:bold;vertical-align:top;">http_connection</td><td style="vertical-align:top;">:</td><td><div>keep-alive</div></td></tr><tr><td style="font-weight:bold;vertical-align:top;">http_content_length</td><td style="vertical-align:top;">:</td><td><div>484</div></td></tr><tr><td style="font-weight:bold;vertical-align:top;">http_content_type</td><td style="vertical-align:top;">:</td><td><div>multipart/form-data; boundary=----WebKitFormBoundaryvdi8LdZ5KLSSK7J7</div></td></tr><tr><td style="font-weight:bold;vertical-align:top;">http_cookie</td><td style="vertical-align:top;">:</td><td><div>session_id_bootup=127.0.0.1-ec15de51-7eba-48e2-bbbf-3efdc3718908; session_id_admin=127.0.0.1-62b6ee29-c039-4f06-8bc4-c07dac88274e</div></td></tr><tr><td style="font-weight:bold;vertical-align:top;">http_host</td><td style="vertical-align:top;">:</td><td><div>127.0.0.1:8000</div></td></tr><tr><td style="font-weight:bold;vertical-align:top;">http_origin</td><td style="vertical-align:top;">:</td><td><div>http://127.0.0.1:8000</div></td></tr><tr><td style="font-weight:bold;vertical-align:top;">http_referer</td><td style="vertical-align:top;">:</td><td><div>http://127.0.0.1:8000/bootup/user/login</div></td></tr><tr><td style="font-weight:bold;vertical-align:top;">http_user_agent</td><td style="vertical-align:top;">:</td><td><div>Mozilla/5.0 (Macintosh; Intel Mac OS X 10_9_4) AppleWebKit/537.36 (KHTML, like Gecko) Chrome/38.0.2125.122 Safari/537.36</div></td></tr><tr><td style="font-weight:bold;vertical-align:top;">is_jython</td><td style="vertical-align:top;">:</td><td><div>False</div></td></tr><tr><td style="font-weight:bold;vertical-align:top;">is_pypy</td><td style="vertical-align:top;">:</td><td><div>False</div></td></tr><tr><td style="font-weight:bold;vertical-align:top;">is_source</td><td style="vertical-align:top;">:</td><td><div>True</div></td></tr><tr><td style="font-weight:bold;vertical-align:top;">local_hosts</td><td style="vertical-align:top;">:</td><td><div><table><tr><td><div>jt-mbp.local</div></td></tr><tr><td><div>192.168.1.205</div></td></tr><tr><td><div>192.168.1.105</div></td></tr><tr><td><div>::1</div></td></tr><tr><td><div>::ffff:127.0.0.1</div></td></tr><tr><td><div>fe80::82e6:50ff:fe13:c80c%en0</div></td></tr><tr><td><div>fe80::82e6:50ff:fe13:c80c%en4</div></td></tr><tr><td><div>fe80::e4d:e9ff:feaf:c666%en4</div></td></tr><tr><td><div>fe80::e4d:e9ff:feaf:c666%en0</div></td></tr><tr><td><div>127.0.0.1</div></td></tr></table></div></td></tr><tr><td style="font-weight:bold;vertical-align:top;">path_info</td><td style="vertical-align:top;">:</td><td><div>/bootup/user/login</div></td></tr><tr><td style="font-weight:bold;vertical-align:top;">query_string</td><td style="vertical-align:top;">:</td><td><div></div></td></tr><tr><td style="font-weight:bold;vertical-align:top;">remote_addr</td><td style="vertical-align:top;">:</td><td><div>127.0.0.1</div></td></tr><tr><td style="font-weight:bold;vertical-align:top;">remote_port</td><td style="vertical-align:top;">:</td><td><div>53709</div></td></tr><tr><td style="font-weight:bold;vertical-align:top;">request_method</td><td style="vertical-align:top;">:</td><td><div>POST</div></td></tr><tr><td style="font-weight:bold;vertical-align:top;">request_uri</td><td style="vertical-align:top;">:</td><td><div>/bootup/user/login</div></td></tr><tr><td style="font-weight:bold;vertical-align:top;">script_name</td><td style="vertical-align:top;">:</td><td><div></div></td></tr><tr><td style="font-weight:bold;vertical-align:top;">server_name</td><td style="vertical-align:top;">:</td><td><div>jt-mbp.local</div></td></tr><tr><td style="font-weight:bold;vertical-align:top;">server_port</td><td style="vertical-align:top;">:</td><td><div>8000</div></td></tr><tr><td style="font-weight:bold;vertical-align:top;">server_protocol</td><td style="vertical-align:top;">:</td><td><div>HTTP/1.1</div></td></tr><tr><td style="font-weight:bold;vertical-align:top;">server_software</td><td style="vertical-align:top;">:</td><td><div>Rocket 1.2.6</div></td></tr><tr><td style="font-weight:bold;vertical-align:top;">web2py_path</td><td style="vertical-align:top;">:</td><td><div>/Users/james/Documents/Dropbox/Uni/Year 4/iapt/assessment/web2py-2.9.11/web2py</div></td></tr><tr><td style="font-weight:bold;vertical-align:top;">web2py_version</td><td style="vertical-align:top;">:</td><td><div>2.9.11-stable+timestamp.2014.09.15.23.35.11</div></td></tr><tr><td style="font-weight:bold;vertical-align:top;">wsgi.errors</td><td style="vertical-align:top;">:</td><td><div>&lt;open file &#x27;&lt;stderr&gt;&#x27;, mode &#x27;w&#x27; at 0x10ce351e0&gt;</div></td></tr><tr><td style="font-weight:bold;vertical-align:top;">wsgi.file_wrapper</td><td style="vertical-align:top;">:</td><td><div>&lt;class wsgiref.util.FileWrapper at 0x10da48e20&gt;</div></td></tr><tr><td style="font-weight:bold;vertical-align:top;">wsgi.input</td><td style="vertical-align:top;">:</td><td><div>&lt;socket._fileobject object at 0x113d833d0&gt;</div></td></tr><tr><td style="font-weight:bold;vertical-align:top;">wsgi.multiprocess</td><td style="vertical-align:top;">:</td><td><div>False</div></td></tr><tr><td style="font-weight:bold;vertical-align:top;">wsgi.multithread</td><td style="vertical-align:top;">:</td><td><div>True</div></td></tr><tr><td style="font-weight:bold;vertical-align:top;">wsgi.run_once</td><td style="vertical-align:top;">:</td><td><div>False</div></td></tr><tr><td style="font-weight:bold;vertical-align:top;">wsgi.url_scheme</td><td style="vertical-align:top;">:</td><td><div>http</div></td></tr><tr><td style="font-weight:bold;vertical-align:top;">wsgi.version</td><td style="vertical-align:top;">:</td><td><div><table><tr><td><div>1</div></td></tr><tr><td><div>0</div></td></tr></table></div></td></tr><tr><td style="font-weight:bold;vertical-align:top;">wsgi_errors</td><td style="vertical-align:top;">:</td><td><div>&lt;open file &#x27;&lt;stderr&gt;&#x27;, mode &#x27;w&#x27; at 0x10ce351e0&gt;</div></td></tr><tr><td style="font-weight:bold;vertical-align:top;">wsgi_file_wrapper</td><td style="vertical-align:top;">:</td><td><div>&lt;class wsgiref.util.FileWrapper at 0x10da48e20&gt;</div></td></tr><tr><td style="font-weight:bold;vertical-align:top;">wsgi_input</td><td style="vertical-align:top;">:</td><td><div>&lt;socket._fileobject object at 0x113d833d0&gt;</div></td></tr><tr><td style="font-weight:bold;vertical-align:top;">wsgi_multiprocess</td><td style="vertical-align:top;">:</td><td><div>False</div></td></tr><tr><td style="font-weight:bold;vertical-align:top;">wsgi_multithread</td><td style="vertical-align:top;">:</td><td><div>True</div></td></tr><tr><td style="font-weight:bold;vertical-align:top;">wsgi_run_once</td><td style="vertical-align:top;">:</td><td><div>False</div></td></tr><tr><td style="font-weight:bold;vertical-align:top;">wsgi_url_scheme</td><td style="vertical-align:top;">:</td><td><div>http</div></td></tr><tr><td style="font-weight:bold;vertical-align:top;">wsgi_version</td><td style="vertical-align:top;">:</td><td><div><table><tr><td><div>1</div></td></tr><tr><td><div>0</div></td></tr></table></div></td></tr></table></div></td></tr><tr><td style="font-weight:bold;vertical-align:top;">extension</td><td style="vertical-align:top;">:</td><td><div>html</div></td></tr><tr><td style="font-weight:bold;vertical-align:top;">folder</td><td style="vertical-align:top;">:</td><td><div>/Users/james/Documents/Dropbox/Uni/Year 4/iapt/assessment/web2py-2.9.11/web2py/applications/bootup/</div></td></tr><tr><td style="font-weight:bold;vertical-align:top;">function</td><td style="vertical-align:top;">:</td><td><div>login</div></td></tr><tr><td style="font-weight:bold;vertical-align:top;">global_settings</td><td style="vertical-align:top;">:</td><td><div><table><tr><td style="font-weight:bold;vertical-align:top;">app_folders</td><td style="vertical-align:top;">:</td><td><div>set([&#x27;/Users/james/Documents/Dropbox/Uni/Year 4/iapt/assessment/web2py-2.9.11/web2py/applications/admin/&#x27;, &#x27;/Users/james/Documents/Dropbox/Uni/Year 4/iapt/assessment/web2py-2.9.11/web2py/applications/bootup/&#x27;])</div></td></tr><tr><td style="font-weight:bold;vertical-align:top;">applications_parent</td><td style="vertical-align:top;">:</td><td><div>/Users/james/Documents/Dropbox/Uni/Year 4/iapt/assessment/web2py-2.9.11/web2py</div></td></tr><tr><td style="font-weight:bold;vertical-align:top;">cmd_args</td><td style="vertical-align:top;">:</td><td><div><table></table></div></td></tr><tr><td style="font-weight:bold;vertical-align:top;">cmd_options</td><td style="vertical-align:top;">:</td><td><div>&lt;Values at 0x10dd162d8: {&#x27;verbose&#x27;: False, &#x27;ip&#x27;: &#x27;127.0.0.1&#x27;, &#x27;debuglevel&#x27;: 30, &#x27;with_scheduler&#x27;: False, &#x27;ips&#x27;: [&#x27;192.168.1.205&#x27;, &#x27;192.168.1.105&#x27;, &#x27;fe80::82e6:50ff:fe13:c80c%en0&#x27;, &#x27;fe80::82e6:50ff:fe13:c80c%en4&#x27;, &#x27;fe80::e4d:e9ff:feaf:c666%en4&#x27;, &#x27;fe80::e4d:e9ff:feaf:c666%en0&#x27;], &#x27;shutdown_timeout&#x27;: 5, &#x27;taskbar&#x27;: False, &#x27;with_coverage&#x27;: False, &#x27;scheduler_groups&#x27;: None, &#x27;port&#x27;: 8000, &#x27;maxthreads&#x27;: None, &#x27;softcron&#x27;: False, &#x27;server_name&#x27;: &#x27;jt-mbp.local&#x27;, &#x27;bpython&#x27;: False, &#x27;nogui&#x27;: False, &#x27;pid_filename&#x27;: &#x27;httpserver.pid&#x27;, &#x27;extcron&#x27;: False, &#x27;runcron&#x27;: False, &#x27;run_system_tests&#x27;: False, &#x27;test&#x27;: None, &#x27;folder&#x27;: &#x27;/Users/james/Documents/Dropbox/Uni/Year 4/iapt/assessment/web2py-2.9.11/web2py&#x27;, &#x27;config&#x27;: &#x27;&#x27;, &#x27;minthreads&#x27;: None, &#x27;shell&#x27;: None, &#x27;run&#x27;: &#x27;&#x27;, &#x27;log_filename&#x27;: &#x27;httpserver.log&#x27;, &#x27;profiler_dir&#x27;: None, &#x27;args&#x27;: [&#x27;&#x27;], &#x27;socket_timeout&#x27;: 5, &#x27;ssl_ca_certificate&#x27;: None, &#x27;scheduler&#x27;: None, &#x27;interfaces&#x27;: None, &#x27;ssl_private_key&#x27;: &#x27;&#x27;, &#x27;gae&#x27;: None, &#x27;password&#x27;: &#x27;&lt;ask&gt;&#x27;, &#x27;request_queue_size&#x27;: 5, &#x27;ssl_certificate&#x27;: &#x27;&#x27;, &#x27;cronjob&#x27;: False, &#x27;numthreads&#x27;: None, &#x27;quiet&#x27;: False, &#x27;import_models&#x27;: False, &#x27;timeout&#x27;: 10, &#x27;plain&#x27;: False, &#x27;nobanner&#x27;: False}&gt;</div></td></tr><tr><td style="font-weight:bold;vertical-align:top;">db_sessions</td><td style="vertical-align:top;">:</td><td><div>set([])</div></td></tr><tr><td style="font-weight:bold;vertical-align:top;">debugging</td><td style="vertical-align:top;">:</td><td><div>False</div></td></tr><tr><td style="font-weight:bold;vertical-align:top;">gluon_parent</td><td style="vertical-align:top;">:</td><td><div>/Users/james/Documents/Dropbox/Uni/Year 4/iapt/assessment/web2py-2.9.11/web2py</div></td></tr><tr><td style="font-weight:bold;vertical-align:top;">is_jython</td><td style="vertical-align:top;">:</td><td><div>False</div></td></tr><tr><td style="font-weight:bold;vertical-align:top;">is_pypy</td><td style="vertical-align:top;">:</td><td><div>False</div></td></tr><tr><td style="font-weight:bold;vertical-align:top;">is_source</td><td style="vertical-align:top;">:</td><td><div>True</div></td></tr><tr><td style="font-weight:bold;vertical-align:top;">local_hosts</td><td style="vertical-align:top;">:</td><td><div><table><tr><td><div>jt-mbp.local</div></td></tr><tr><td><div>192.168.1.205</div></td></tr><tr><td><div>192.168.1.105</div></td></tr><tr><td><div>::1</div></td></tr><tr><td><div>::ffff:127.0.0.1</div></td></tr><tr><td><div>fe80::82e6:50ff:fe13:c80c%en0</div></td></tr><tr><td><div>fe80::82e6:50ff:fe13:c80c%en4</div></td></tr><tr><td><div>fe80::e4d:e9ff:feaf:c666%en4</div></td></tr><tr><td><div>fe80::e4d:e9ff:feaf:c666%en0</div></td></tr><tr><td><div>127.0.0.1</div></td></tr></table></div></td></tr><tr><td style="font-weight:bold;vertical-align:top;">web2py_version</td><td style="vertical-align:top;">:</td><td><div>2.9.11-stable+timestamp.2014.09.15.23.35.11</div></td></tr></table></div></td></tr><tr><td style="font-weight:bold;vertical-align:top;">is_https</td><td style="vertical-align:top;">:</td><td><div>False</div></td></tr><tr><td style="font-weight:bold;vertical-align:top;">is_local</td><td style="vertical-align:top;">:</td><td><div>True</div></td></tr><tr><td style="font-weight:bold;vertical-align:top;">is_restful</td><td style="vertical-align:top;">:</td><td><div>False</div></td></tr><tr><td style="font-weight:bold;vertical-align:top;">is_sheduler</td><td style="vertical-align:top;">:</td><td><div>None</div></td></tr><tr><td style="font-weight:bold;vertical-align:top;">is_shell</td><td style="vertical-align:top;">:</td><td><div>None</div></td></tr><tr><td style="font-weight:bold;vertical-align:top;">now</td><td style="vertical-align:top;">:</td><td><div>datetime.datetime(2014, 11, 22, 16, 26, 47, 608579)</div></td></tr><tr><td style="font-weight:bold;vertical-align:top;">raw_args</td><td style="vertical-align:top;">:</td><td><div></div></td></tr><tr><td style="font-weight:bold;vertical-align:top;">raw_extension</td><td style="vertical-align:top;">:</td><td><div>None</div></td></tr><tr><td style="font-weight:bold;vertical-align:top;">url</td><td style="vertical-align:top;">:</td><td><div>/bootup/user/login</div></td></tr><tr><td style="font-weight:bold;vertical-align:top;">utcnow</td><td style="vertical-align:top;">:</td><td><div>datetime.datetime(2014, 11, 22, 16, 26, 47, 608588)</div></td></tr><tr><td style="font-weight:bold;vertical-align:top;">uuid</td><td style="vertical-align:top;">:</td><td><div>bootup/127.0.0.1.2014-11-22.16-26-47.28824102-c1d4-45ab-a030-8b93369225cb</div></td></tr><tr><td style="font-weight:bold;vertical-align:top;">wsgi</td><td style="vertical-align:top;">:</td><td><div>&lt;gluon.main.LazyWSGI object at 0x10e602350&gt;</div></td></tr></table></div>'
tRp62
sS'frames'
p63
(lp64
(dp65
S'file'
p66
S'/Users/james/Documents/Dropbox/Uni/Year 4/iapt/assessment/web2py-2.9.11/web2py/gluon/restricted.py'
p67
sS'dump'
p68
(dp69
S'environment'
p70
S"{'A': <class 'gluon.html.A'>, 'ANY_OF': <class 'gluon.validators.ANY_OF'>, 'ASSIGNJS': <function ASSIGNJS>, 'B': <class 'gluon.html.B'>, 'BEAUTIFY': <class 'gluon.html.BEAUTIFY'>, 'BODY': <class 'gluon.html.BODY'>, 'BOOTUPFORM': <class 'applications.bootup.forms.bootupform.BOOTUPFORM'>, 'BR': <class 'gluon.html.BR'>, 'BUTTON': <class 'gluon.html.BUTTON'>, 'BootUpAuth': <class __restricted__.BootUpAuth>, ...}"
p71
sS'ccode'
p72
S'<code object <module> at 0x113d7b2b0, file "/Use...applications/bootup/controllers/user.py", line 1>'
p73
ssS'lnum'
p74
I224
sS'lines'
p75
(dp76
I224
S'        exec ccode in environment'
p77
sI225
S'    except HTTP:'
p78
sI226
S'        raise'
p79
sI227
S'    except RestrictedError:'
p80
sI228
S'        # do not encapsulate (obfuscate) the original RestrictedError'
p81
sI219
S'    try:'
p82
sI220
S'        if isinstance(code, types.CodeType):'
p83
sI221
S'            ccode = code'
p84
sI222
S'        else:'
p85
sI223
S'            ccode = compile2(code, layer)'
p86
ssS'call'
p87
S"(code='import hashlib,os\\n\\nfrom applications.bootup.form...message)\\n\\nresponse._vars=response._caller(login)\\n', environment={'A': <class 'gluon.html.A'>, 'ANY_OF': <class 'gluon.validators.ANY_OF'>, 'ASSIGNJS': <function ASSIGNJS>, 'B': <class 'gluon.html.B'>, 'BEAUTIFY': <class 'gluon.html.BEAUTIFY'>, 'BODY': <class 'gluon.html.BODY'>, 'BOOTUPFORM': <class 'applications.bootup.forms.bootupform.BOOTUPFORM'>, 'BR': <class 'gluon.html.BR'>, 'BUTTON': <class 'gluon.html.BUTTON'>, 'BootUpAuth': <class __restricted__.BootUpAuth>, ...}, layer='/Users/james/Documents/Dropbox/Uni/Year 4/iapt/a...11/web2py/applications/bootup/controllers/user.py')"
p88
sS'func'
p89
S'restricted'
p90
sa(dp91
g66
S'/Users/james/Documents/Dropbox/Uni/Year 4/iapt/assessment/web2py-2.9.11/web2py/applications/bootup/controllers/user.py'
p92
sg68
(dp93
sg74
I83
sg75
(dp94
I72
S'    message=""'
p95
sI73
S''
sI74
S'    if form.process().accepted:'
p96
sI75
S"        message = 'form accepted'"
p97
sI76
S''
sI77
S''
sI78
S''
sI79
S'    elif form.errors:'
p98
sI80
S"        message = 'form has errors'"
p99
sI81
S'    return dict(form=form,message=message)'
p100
ssg87
S'()'
p101
sg89
S'<module>'
p102
sa(dp103
g66
S'/Users/james/Documents/Dropbox/Uni/Year 4/iapt/assessment/web2py-2.9.11/web2py/gluon/globals.py'
p104
sg68
(dp105
S'self'
p106
S'undefined'
p107
sS'f'
S'<function login>'
p108
ssg74
I392
sg75
(dp109
I387
S"        self.flash = ''            # used by the default view layout"
p110
sI388
S'        self.meta = Storage()      # used by web2py_ajax.html'
p111
sI389
S'        self.menu = []             # used by the default view layout'
p112
sI390
S'        self.files = []            # used by web2py_ajax.html'
p113
sI391
S'        self._vars = None'
p114
sI392
S'        self._caller = lambda f: f()'
p115
sI393
S'        self._view_environment = None'
p116
sI394
S'        self._custom_commit = None'
p117
sI395
S'        self._custom_rollback = None'
p118
sI396
S"        self.generic_patterns = ['*']"
p119
ssg87
S'(f=<function login>)'
p120
sg89
S'<lambda>'
p121
sa(dp122
g66
S'/Users/james/Documents/Dropbox/Uni/Year 4/iapt/assessment/web2py-2.9.11/web2py/applications/bootup/controllers/user.py'
p123
sg68
(dp124
S'form.process'
p125
S'<bound method LOGINFORM.process of <__restricted__.LOGINFORM object>>'
p126
sS').accepted'
p127
g107
sS'form'
p128
S'<__restricted__.LOGINFORM object>'
p129
ssg74
I74
sg75
(dp130
I69
S''
sI70
S'def login():'
p131
sI71
S'    form=LOGINFORM.factory()'
p132
sI72
S'    message=""'
p133
sI73
S''
sI74
S'    if form.process().accepted:'
p134
sI75
S"        message = 'form accepted'"
p135
sI76
S''
sI77
S''
sI78
S''
ssg87
S'()'
p136
sg89
S'login'
p137
sa(dp138
g66
S'/Users/james/Documents/Dropbox/Uni/Year 4/iapt/assessment/web2py-2.9.11/web2py/applications/bootup/controllers/user.py'
p139
sg68
(dp140
S'self.checkuser'
p141
S'<bound method LOGINFORM.checkuser of <__restricted__.LOGINFORM object>>'
p142
sS'self'
p143
S'<__restricted__.LOGINFORM object>'
p144
sS'global LOGINFORM'
p145
S"<class '__restricted__.LOGINFORM'>"
p146
sS').process'
p147
S'<bound method LOGINFORM.process of <__restricted__.LOGINFORM object>>'
p148
sS'onvalidation'
p149
g107
sS'kwargs'
p150
g21
sS'builtinsuper'
p151
S"<type 'super'>"
p152
ssg74
I45
sg75
(dp153
I40
S'        else:'
p154
sI41
S'            session.user = user.user.iduser'
p155
sI42
S''
sI43
S''
sI44
S'    def process(self,**kwargs):'
p156
sI45
S'        return super(LOGINFORM,self).process(onvalidation=self.checkuser,**kwargs)'
p157
sI46
S''
sI47
S'    @staticmethod'
p158
sI48
S'    def factory(**kwargs):'
p159
sI49
S'        return LOGINFORM(DAL(None).define_table("no_table",'
p160
ssg87
S'(self=<__restricted__.LOGINFORM object>, **kwargs={})'
p161
sg89
S'process'
p162
sa(dp163
g66
S'/Users/james/Documents/Dropbox/Uni/Year 4/iapt/assessment/web2py-2.9.11/web2py/applications/bootup/forms/bootupform.py'
p164
sg68
(dp165
S'kwargs'
p166
S"{'onvalidation': <bound method LOGINFORM.checkuser of <__restricted__.LOGINFORM object>>}"
p167
sS'builtinsuper'
p168
S"<type 'super'>"
p169
sS'global BOOTUPFORM'
p170
S"<class 'applications.bootup.forms.bootupform.BOOTUPFORM'>"
p171
sS'self'
p172
S'<__restricted__.LOGINFORM object>'
p173
sS').process'
p174
S'<bound method LOGINFORM.process of <__restricted__.LOGINFORM object>>'
p175
ssg74
I86
sg75
(dp176
I81
S''
sI82
S'    def process(self,*args, **kwargs):'
p177
sI83
S"        if('beforevalidation' in kwargs):"
p178
sI84
S"            call_as_list(kwargs['beforevalidation'], self)"
p179
sI85
S''
sI86
S'        return super(BOOTUPFORM,self).process(**kwargs)'
p180
sI87
S''
sI88
S'    def getFieldRequirements(self,fieldname):'
p181
sI89
S''
sI90
S'        field = (self.table[fieldname] if fieldname in self.table.fields'
p182
ssg87
S"(self=<__restricted__.LOGINFORM object>, *args=(), **kwargs={'onvalidation': <bound method LOGINFORM.checkuser of <__restricted__.LOGINFORM object>>})"
p183
sg89
g162
sa(dp184
g66
S'/Users/james/Documents/Dropbox/Uni/Year 4/iapt/assessment/web2py-2.9.11/web2py/gluon/html.py'
p185
sg68
(dp186
S'self'
p187
S'<__restricted__.LOGINFORM object>'
p188
sS'self.validate'
p189
S'<bound method LOGINFORM.validate of <__restricted__.LOGINFORM object>>'
p190
sS'kwargs'
p191
S"{'dbio': True, 'onvalidation': <bound method LOGINFORM.checkuser of <__restricted__.LOGINFORM object>>}"
p192
ssg74
I2303
sg75
(dp193
I2304
S'        return self'
p194
sI2305
S''
sI2306
S'    REDIRECT_JS = "window.location=\'%s\';return false"'
p195
sI2307
S''
sI2298
S''
sI2299
S''
sI2300
S'        """'
p196
sI2301
S"        kwargs['dbio'] = kwargs.get('dbio', True)"
p197
sI2302
S'                                    # necessary for SQLHTML forms'
p198
sI2303
S'        self.validate(**kwargs)'
p199
ssg87
S"(self=<__restricted__.LOGINFORM object>, **kwargs={'dbio': True, 'onvalidation': <bound method LOGINFORM.checkuser of <__restricted__.LOGINFORM object>>})"
p200
sg89
g162
sa(dp201
g66
S'/Users/james/Documents/Dropbox/Uni/Year 4/iapt/assessment/web2py-2.9.11/web2py/gluon/html.py'
p202
sg68
(dp203
S'self'
p204
S'<__restricted__.LOGINFORM object>'
p205
sS'self.accepts'
p206
S'<bound method LOGINFORM.accepts of <__restricted__.LOGINFORM object>>'
p207
sS'kwargs'
p208
S"{'dbio': True, 'onvalidation': <bound method LOGINFORM.checkuser of <__restricted__.LOGINFORM object>>, 'request_vars': <Storage {'username': 'test', '_formkey': '22a34...ssword': 'test', '_formname': 'no_table/create'}>, 'session': <Storage {'_formkey[user/create]': ['8f792253-c0...dfb63', '9b2a1615-a3d6-484c-ae40-cc4aa304564f']}>}"
p209
ssg74
I2240
sg75
(dp210
I2240
S'        if self.accepts(**kwargs):'
p211
sI2241
S"            if onsuccess == 'flash':"
p212
sI2242
S'                if next:'
p213
sI2243
S'                    current.session.flash = message_onsuccess'
p214
sI2244
S'                else:'
p215
sI2235
S"        for key in ('message_onsuccess', 'message_onfailure', 'onsuccess',"
p216
sI2236
S"                    'onfailure', 'next', 'message_onchange', 'onchange'):"
p217
sI2237
S'            if key in kwargs:'
p218
sI2238
S'                del kwargs[key]'
p219
sI2239
S''
ssg87
S"(self=<__restricted__.LOGINFORM object>, **kwargs={'dbio': True, 'onvalidation': <bound method LOGINFORM.checkuser of <__restricted__.LOGINFORM object>>, 'request_vars': <Storage {'username': 'test', '_formkey': '22a34...ssword': 'test', '_formname': 'no_table/create'}>, 'session': <Storage {'_formkey[user/create]': ['8f792253-c0...dfb63', '9b2a1615-a3d6-484c-ae40-cc4aa304564f']}>})"
p220
sg89
S'validate'
p221
sa(dp222
g66
S'/Users/james/Documents/Dropbox/Uni/Year 4/iapt/assessment/web2py-2.9.11/web2py/gluon/sqlhtml.py'
p223
sg68
(dp224
S'kwargs'
p225
g21
ssg74
I1455
sg75
(dp226
I1450
S'            session,'
p227
sI1451
S'            formname,'
p228
sI1452
S'            keepvalues,'
p229
sI1453
S'            onvalidation,'
p230
sI1454
S'            hideerror=hideerror,'
p231
sI1455
S'            **kwargs'
p232
sI1456
S'        )'
p233
sI1457
S''
sI1458
S'        self.deleted = \\'
p234
sI1459
S'            request_vars.get(self.FIELDNAME_REQUEST_DELETE, False)'
p235
ssg87
S"(self=<__restricted__.LOGINFORM object>, request_vars=<Storage {'username': 'test', '_formkey': '22a34...ssword': 'test', '_formname': 'no_table/create'}>, session=<Storage {'_formkey[user/create]': ['8f792253-c0...dfb63', '9b2a1615-a3d6-484c-ae40-cc4aa304564f']}>, formname='no_table/create', keepvalues=False, onvalidation=<bound method LOGINFORM.checkuser of <__restricted__.LOGINFORM object>>, dbio=True, hideerror=False, detect_record_change=False, **kwargs={})"
p236
sg89
S'accepts'
p237
sa(dp238
g66
S'/Users/james/Documents/Dropbox/Uni/Year 4/iapt/assessment/web2py-2.9.11/web2py/gluon/html.py'
p239
sg68
(dp240
S'global call_as_list'
p241
S'<function call_as_list>'
p242
sS'self'
p243
S'<__restricted__.LOGINFORM object>'
p244
sS'onvalidation'
p245
S'<bound method LOGINFORM.checkuser of <__restricted__.LOGINFORM object>>'
p246
ssg74
I2141
sg75
(dp247
I2144
S'        if not session is None:'
p248
sI2145
S"            if hasattr(self, 'record_hash'):"
p249
sI2136
S'                if changed:'
p250
sI2137
S'                    if onchange and self.record_changed and \\'
p251
sI2138
S'                            self.detect_record_change:'
p252
sI2139
S'                        call_as_list(onchange,self)'
p253
sI2140
S'            elif status:'
p254
sI2141
S'                call_as_list(onvalidation, self)'
p255
sI2142
S'        if self.errors:'
p256
sI2143
S'            status = False'
p257
ssg87
S"(self=<__restricted__.LOGINFORM object>, request_vars=<Storage {'username': 'test', '_formkey': '22a34...ssword': 'test', '_formname': 'no_table/create'}>, session=<Storage {'_formkey[user/create]': ['8f792253-c0...dfb63', '9b2a1615-a3d6-484c-ae40-cc4aa304564f']}>, formname='no_table/create', keepvalues=False, onvalidation=<bound method LOGINFORM.checkuser of <__restricted__.LOGINFORM object>>, hideerror=False, **kwargs={})"
p258
sg89
g237
sa(dp259
g66
S'/Users/james/Documents/Dropbox/Uni/Year 4/iapt/assessment/web2py-2.9.11/web2py/gluon/html.py'
p260
sg68
(dp261
S'a'
S'(<__restricted__.LOGINFORM object>,)'
p262
sS'item'
p263
S'<bound method LOGINFORM.checkuser of <__restricted__.LOGINFORM object>>'
p264
sS'b'
g21
ssg74
I146
sg75
(dp265
I141
S''
sI142
S'def call_as_list(f,*a,**b):'
p266
sI143
S'    if not isinstance(f, (list,tuple)):'
p267
sI144
S'        f = [f]'
p268
sI145
S'    for item in f:'
p269
sI146
S'        item(*a,**b)'
p270
sI147
S''
sI148
S"def truncate_string(text, length, dots='...'):"
p271
sI149
S"    text = text.decode('utf-8')"
p272
sI150
S'    if len(text) > length:'
p273
ssg87
S'(f=[<bound method LOGINFORM.checkuser of <__restricted__.LOGINFORM object>>], *a=(<__restricted__.LOGINFORM object>,), **b={})'
p274
sg89
S'call_as_list'
p275
sa(dp276
g66
S'/Users/james/Documents/Dropbox/Uni/Year 4/iapt/assessment/web2py-2.9.11/web2py/applications/bootup/controllers/user.py'
p277
sg68
(dp278
S'form.vars'
p279
S"<Storage {'username': 'test', 'password': 'test'}>"
p280
sS'db.user.iduser'
p281
S'<gluon.dal.Field object>'
p282
sS'form'
p283
S'<__restricted__.LOGINFORM object>'
p284
sS'db.user.username.like'
p285
S'<bound method Field.like of <gluon.dal.Field object>>'
p286
sS'form.vars.username'
p287
S"'test'"
p288
sS'db.user'
p289
S'<Table user (iduser,realname,username,dateofbirth)>'
p290
sS'db.credential.userid'
p291
S'<gluon.dal.Field object>'
p292
sS'db.user.username'
p293
S'<gluon.dal.Field object>'
p294
sS'db.credential'
p295
S'<Table credential (userid,hash,salt)>'
p296
sS').select'
p297
g107
sS'user'
p298
g107
sS'global db'
p299
S'<DAL uri="sqlite://bootup.db">'
p300
sS'db.credential.hash'
p301
S'<gluon.dal.Field object>'
p302
sS').first'
p303
S'None'
p304
sS'db.credential.salt'
p305
S'<gluon.dal.Field object>'
p306
ssg74
I35
sg75
(dp307
I32
S''
sI33
S'class LOGINFORM(BOOTUPFORM):'
p308
sI34
S'    def checkuser(self,form):'
p309
sI35
S'        user = db((db.credential.userid==db.user.iduser) & (db.user.username.like(form.vars.username))).select(db.user.iduser,db.credential.salt,db.credential.hash).first()'
p310
sI36
S'        if user is None:'
p311
sI37
S'            form.errors.username = "User is not registered"'
p312
sI38
S'        elif hashlib.sha256(hashlib.sha256(form.vars.password).hexdigest() + user.credential.salt).hexdigest() != user.credential.hash:'
p313
sI39
S'            form.errors.password = "Incorrect password"'
p314
sI30
S''
sI31
S''
ssg87
S'(self=<__restricted__.LOGINFORM object>, form=<__restricted__.LOGINFORM object>)'
p315
sg89
S'checkuser'
p316
sa(dp317
g66
S'/Users/james/Documents/Dropbox/Uni/Year 4/iapt/assessment/web2py-2.9.11/web2py/gluon/dal.py'
p318
sg68
(dp319
S'self.query'
p320
S"<Query ((credential.userid = user.iduser) AND (user.username LIKE 'test'))>"
p321
sS'adapter.select'
p322
S'<bound method SQLiteAdapter.select of <gluon.dal.SQLiteAdapter object>>'
p323
sS'fields'
p324
S'[<gluon.dal.Field object>, <gluon.dal.Field object>, <gluon.dal.Field object>]'
p325
sS'adapter'
p326
S'<gluon.dal.SQLiteAdapter object>'
p327
sS'attributes'
p328
g21
sS'self'
p329
S"<Set ((credential.userid = user.iduser) AND (user.username LIKE 'test'))>"
p330
ssg74
I10749
sg75
(dp331
I10752
S'        return Expression(self.db, self._select(*fields, **attributes))'
p332
sI10753
S''
sI10744
S"                                    attributes.get('join', None),"
p333
sI10745
S"                                    attributes.get('left', None),"
p334
sI10746
S"                                    attributes.get('orderby', None),"
p335
sI10747
S"                                    attributes.get('groupby', None))"
p336
sI10748
S'        fields = adapter.expand_all(fields, tablenames)'
p337
sI10749
S'        return adapter.select(self.query, fields, attributes)'
p338
sI10750
S''
sI10751
S'    def nested_select(self, *fields, **attributes):'
p339
ssg87
S"(self=<Set ((credential.userid = user.iduser) AND (user.username LIKE 'test'))>, *fields=[<gluon.dal.Field object>, <gluon.dal.Field object>, <gluon.dal.Field object>], **attributes={})"
p340
sg89
S'select'
p341
sa(dp342
g66
S'/Users/james/Documents/Dropbox/Uni/Year 4/iapt/assessment/web2py-2.9.11/web2py/gluon/dal.py'
p343
sg68
(dp344
S'fields'
p345
S'[<gluon.dal.Field object>, <gluon.dal.Field object>, <gluon.dal.Field object>]'
p346
sS'self'
p347
S'<gluon.dal.SQLiteAdapter object>'
p348
sS').select'
p349
S'<bound method SQLiteAdapter.select of <gluon.dal.SQLiteAdapter object>>'
p350
sS'attributes'
p351
g21
sS'global SQLiteAdapter'
p352
S"<class 'gluon.dal.SQLiteAdapter'>"
p353
sS'query'
p354
S"<Query ((credential.userid = user.iduser) AND (user.username LIKE 'test'))>"
p355
sS'builtinsuper'
p356
S"<type 'super'>"
p357
ssg74
I2472
sg75
(dp358
I2467
S'        Note that the entire database, rather than one record, is locked'
p359
sI2468
S'        (it will be locked eventually anyway by the following UPDATE).'
p360
sI2469
S'        """'
p361
sI2470
S"        if attributes.get('for_update', False) and not 'cache' in attributes:"
p362
sI2471
S"            self.execute('BEGIN IMMEDIATE TRANSACTION;')"
p363
sI2472
S'        return super(SQLiteAdapter, self).select(query, fields, attributes)'
p364
sI2473
S''
sI2474
S''
sI2475
S'class SpatiaLiteAdapter(SQLiteAdapter):'
p365
sI2476
S"    drivers = ('sqlite3', 'sqlite2')"
p366
ssg87
S"(self=<gluon.dal.SQLiteAdapter object>, query=<Query ((credential.userid = user.iduser) AND (user.username LIKE 'test'))>, fields=[<gluon.dal.Field object>, <gluon.dal.Field object>, <gluon.dal.Field object>], attributes={})"
p367
sg89
g341
sa(dp368
g66
S'/Users/james/Documents/Dropbox/Uni/Year 4/iapt/assessment/web2py-2.9.11/web2py/gluon/dal.py'
p369
sg68
(dp370
S'fields'
p371
S'[<gluon.dal.Field object>, <gluon.dal.Field object>, <gluon.dal.Field object>]'
p372
sS'self'
p373
S'<gluon.dal.SQLiteAdapter object>'
p374
sS'attributes'
p375
g21
sS'self._select_aux'
p376
S'<bound method SQLiteAdapter._select_aux of <gluon.dal.SQLiteAdapter object>>'
p377
sS'sql'
p378
S'"SELECT  user.iduser, credential.salt, credential... = user.iduser) AND (user.username LIKE \'test\'));"'
p379
ssg74
I1881
sg75
(dp380
I1876
S'            return cache_model('
p381
sI1877
S'                key,'
p382
sI1878
S'                lambda self=self, args=args: self._select_aux(*args),'
p383
sI1879
S'                time_expire)'
p384
sI1880
S'        else:'
p385
sI1881
S'            return self._select_aux(sql, fields, attributes)'
p386
sI1882
S''
sI1883
S'    def _count(self, query, distinct=None):'
p387
sI1884
S'        tablenames = self.tables(query)'
p388
sI1885
S'        if query:'
p389
ssg87
S"(self=<gluon.dal.SQLiteAdapter object>, query=<Query ((credential.userid = user.iduser) AND (user.username LIKE 'test'))>, fields=[<gluon.dal.Field object>, <gluon.dal.Field object>, <gluon.dal.Field object>], attributes={})"
p390
sg89
g341
sa(dp391
g66
S'/Users/james/Documents/Dropbox/Uni/Year 4/iapt/assessment/web2py-2.9.11/web2py/gluon/dal.py'
p392
sg68
(dp393
S'self'
p394
S'<gluon.dal.SQLiteAdapter object>'
p395
sS'self.execute'
p396
S'<bound method SQLiteAdapter.execute of <gluon.dal.SQLiteAdapter object>>'
p397
sS'sql'
p398
S'"SELECT  user.iduser, credential.salt, credential... = user.iduser) AND (user.username LIKE \'test\'));"'
p399
ssg74
I1846
sg75
(dp400
I1841
S''
sI1842
S'    def _select_aux(self, sql, fields, attributes):'
p401
sI1843
S'        args_get = attributes.get'
p402
sI1844
S"        cache = args_get('cache',None)"
p403
sI1845
S'        if not cache:'
p404
sI1846
S'            self.execute(sql)'
p405
sI1847
S'            rows = self._fetchall()'
p406
sI1848
S'        else:'
p407
sI1849
S'            (cache_model, time_expire) = cache'
p408
sI1850
S"            key = self.uri + '/' + sql + '/rows'"
p409
ssg87
S'(self=<gluon.dal.SQLiteAdapter object>, sql="SELECT  user.iduser, credential.salt, credential... = user.iduser) AND (user.username LIKE \'test\'));", fields=[<gluon.dal.Field object>, <gluon.dal.Field object>, <gluon.dal.Field object>], attributes={})'
p410
sg89
S'_select_aux'
p411
sa(dp412
g66
S'/Users/james/Documents/Dropbox/Uni/Year 4/iapt/assessment/web2py-2.9.11/web2py/gluon/dal.py'
p413
sg68
(dp414
S'a'
S'("SELECT  user.iduser, credential.salt, credential... = user.iduser) AND (user.username LIKE \'test\'));",)'
p415
sS'self'
p416
S'<gluon.dal.SQLiteAdapter object>'
p417
sS'b'
g21
sS'self.log_execute'
p418
S'<bound method SQLiteAdapter.log_execute of <gluon.dal.SQLiteAdapter object>>'
p419
ssg74
I1967
sg75
(dp420
I1962
S'        self.db._timings.append((command, time.time()-t0))'
p421
sI1963
S'        del self.db._timings[:-TIMINGSSIZE]'
p422
sI1964
S'        return ret'
p423
sI1965
S''
sI1966
S'    def execute(self, *a, **b):'
p424
sI1967
S'        return self.log_execute(*a, **b)'
p425
sI1968
S''
sI1969
S'    def represent(self, obj, fieldtype):'
p426
sI1970
S'        field_is_type = fieldtype.startswith'
p427
sI1971
S'        if isinstance(obj, CALLABLETYPES):'
p428
ssg87
S'(self=<gluon.dal.SQLiteAdapter object>, *a=("SELECT  user.iduser, credential.salt, credential... = user.iduser) AND (user.username LIKE \'test\'));",), **b={})'
p429
sg89
S'execute'
p430
sa(dp431
g66
S'/Users/james/Documents/Dropbox/Uni/Year 4/iapt/assessment/web2py-2.9.11/web2py/gluon/dal.py'
p432
sg68
(dp433
S'a'
S'("SELECT  user.iduser, credential.salt, credential... = user.iduser) AND (user.username LIKE \'test\'));",)'
p434
sS'b'
g21
sS'self'
p435
S'<gluon.dal.SQLiteAdapter object>'
p436
sS'ret'
p437
g107
sS'self.cursor'
p438
S'<sqlite3.Cursor object>'
p439
sS'command'
p440
S'"SELECT  user.iduser, credential.salt, credential... = user.iduser) AND (user.username LIKE \'test\'));"'
p441
sS'self.cursor.execute'
p442
S'<built-in method execute of sqlite3.Cursor object>'
p443
ssg74
I1961
sg75
(dp444
I1956
S'            command = self.filter_sql_command(command)'
p445
sI1957
S'        if self.db._debug:'
p446
sI1958
S"            LOGGER.debug('SQL: %s' % command)"
p447
sI1959
S'        self.db._lastsql = command'
p448
sI1960
S'        t0 = time.time()'
p449
sI1961
S'        ret = self.cursor.execute(command, *a[1:], **b)'
p450
sI1962
S'        self.db._timings.append((command, time.time()-t0))'
p451
sI1963
S'        del self.db._timings[:-TIMINGSSIZE]'
p452
sI1964
S'        return ret'
p453
sI1965
S''
ssg87
S'(self=<gluon.dal.SQLiteAdapter object>, *a=("SELECT  user.iduser, credential.salt, credential... = user.iduser) AND (user.username LIKE \'test\'));",), **b={})'
p454
sg89
S'log_execute'
p455
sasS'pyver'
p456
S'Python 2.7.5: /usr/bin/python (prefix: /System/Library/Frameworks/Python.framework/Versions/2.7)'
p457
sS'session'
p458
g61
(S's\x1a\x00\x00\x00<div><table></table></div>'
tRp459
sS'etype'
p460
S"<class 'sqlite3.OperationalError'>"
p461
sS'date'
p462
S'Sat Nov 22 16:26:47 2014'
p463
sS'response'
p464
g61
(S'sO\x18\x00\x00<div><table><tr><td style="font-weight:bold;vertical-align:top;">body</td><td style="vertical-align:top;">:</td><td><div>&lt;cStringIO.StringO object at 0x113da80a0&gt;</div></td></tr><tr><td style="font-weight:bold;vertical-align:top;">cookies</td><td style="vertical-align:top;">:</td><td><div><table><tr><td style="font-weight:bold;vertical-align:top;">session_id_bootup</td><td style="vertical-align:top;">:</td><td><div>127.0.0.1-ec15de51-7eba-48e2-bbbf-3efdc3718908<table><tr><td style="font-weight:bold;vertical-align:top;">comment</td><td style="vertical-align:top;">:</td><td><div></div></td></tr><tr><td style="font-weight:bold;vertical-align:top;">domain</td><td style="vertical-align:top;">:</td><td><div></div></td></tr><tr><td style="font-weight:bold;vertical-align:top;">expires</td><td style="vertical-align:top;">:</td><td><div></div></td></tr><tr><td style="font-weight:bold;vertical-align:top;">httponly</td><td style="vertical-align:top;">:</td><td><div></div></td></tr><tr><td style="font-weight:bold;vertical-align:top;">max-age</td><td style="vertical-align:top;">:</td><td><div></div></td></tr><tr><td style="font-weight:bold;vertical-align:top;">path</td><td style="vertical-align:top;">:</td><td><div>/</div></td></tr><tr><td style="font-weight:bold;vertical-align:top;">secure</td><td style="vertical-align:top;">:</td><td><div></div></td></tr><tr><td style="font-weight:bold;vertical-align:top;">version</td><td style="vertical-align:top;">:</td><td><div></div></td></tr></table></div></td></tr></table></div></td></tr><tr><td style="font-weight:bold;vertical-align:top;">delimiters</td><td style="vertical-align:top;">:</td><td><div><table><tr><td><div>{{</div></td></tr><tr><td><div>}}</div></td></tr></table></div></td></tr><tr><td style="font-weight:bold;vertical-align:top;">files</td><td style="vertical-align:top;">:</td><td><div><table></table></div></td></tr><tr><td style="font-weight:bold;vertical-align:top;">flash</td><td style="vertical-align:top;">:</td><td><div></div></td></tr><tr><td style="font-weight:bold;vertical-align:top;">form_label_separator</td><td style="vertical-align:top;">:</td><td><div>: </div></td></tr><tr><td style="font-weight:bold;vertical-align:top;">formstyle</td><td style="vertical-align:top;">:</td><td><div>table3cols</div></td></tr><tr><td style="font-weight:bold;vertical-align:top;">generic_patterns</td><td style="vertical-align:top;">:</td><td><div><table><tr><td><div>*</div></td></tr></table></div></td></tr><tr><td style="font-weight:bold;vertical-align:top;">headers</td><td style="vertical-align:top;">:</td><td><div><table><tr><td style="font-weight:bold;vertical-align:top;">X-Powered-By</td><td style="vertical-align:top;">:</td><td><div>web2py</div></td></tr></table></div></td></tr><tr><td style="font-weight:bold;vertical-align:top;">menu</td><td style="vertical-align:top;">:</td><td><div><table></table></div></td></tr><tr><td style="font-weight:bold;vertical-align:top;">meta</td><td style="vertical-align:top;">:</td><td><div><table></table></div></td></tr><tr><td style="font-weight:bold;vertical-align:top;">models_to_run</td><td style="vertical-align:top;">:</td><td><div><table><tr><td><div>^\\w+\\.py$</div></td></tr><tr><td><div>^user/\\w+\\.py$</div></td></tr><tr><td><div>^user/login/\\w+\\.py$</div></td></tr></table></div></td></tr><tr><td style="font-weight:bold;vertical-align:top;">postprocessing</td><td style="vertical-align:top;">:</td><td><div><table></table></div></td></tr><tr><td style="font-weight:bold;vertical-align:top;">session_client</td><td style="vertical-align:top;">:</td><td><div>127.0.0.1</div></td></tr><tr><td style="font-weight:bold;vertical-align:top;">session_cookie_compression_level</td><td style="vertical-align:top;">:</td><td><div>None</div></td></tr><tr><td style="font-weight:bold;vertical-align:top;">session_cookie_expires</td><td style="vertical-align:top;">:</td><td><div>None</div></td></tr><tr><td style="font-weight:bold;vertical-align:top;">session_cookie_key</td><td style="vertical-align:top;">:</td><td><div>None</div></td></tr><tr><td style="font-weight:bold;vertical-align:top;">session_data_name</td><td style="vertical-align:top;">:</td><td><div>session_data_bootup</div></td></tr><tr><td style="font-weight:bold;vertical-align:top;">session_file</td><td style="vertical-align:top;">:</td><td><div>&lt;open file &#x27;/Users/james/Documents/Dropbox/Uni/Year 4/iapt/assessment/web2py-2.9.11/web2py/applications/bootup/sessions/0f5/1f1/127.0.0.1-ec15de51-7eba-48e2-bbbf-3efdc3718908&#x27;, mode &#x27;rb+&#x27; at 0x11809d540&gt;</div></td></tr><tr><td style="font-weight:bold;vertical-align:top;">session_filename</td><td style="vertical-align:top;">:</td><td><div>/Users/james/Documents/Dropbox/Uni/Year 4/iapt/assessment/web2py-2.9.11/web2py/applications/bootup/sessions/127.0.0.1-ec15de51-7eba-48e2-bbbf-3efdc3718908</div></td></tr><tr><td style="font-weight:bold;vertical-align:top;">session_hash</td><td style="vertical-align:top;">:</td><td><div>d9f9d302530b7ae88340a3723703f112</div></td></tr><tr><td style="font-weight:bold;vertical-align:top;">session_id</td><td style="vertical-align:top;">:</td><td><div>127.0.0.1-ec15de51-7eba-48e2-bbbf-3efdc3718908</div></td></tr><tr><td style="font-weight:bold;vertical-align:top;">session_id_name</td><td style="vertical-align:top;">:</td><td><div>session_id_bootup</div></td></tr><tr><td style="font-weight:bold;vertical-align:top;">session_locked</td><td style="vertical-align:top;">:</td><td><div>True</div></td></tr><tr><td style="font-weight:bold;vertical-align:top;">session_masterapp</td><td style="vertical-align:top;">:</td><td><div>bootup</div></td></tr><tr><td style="font-weight:bold;vertical-align:top;">session_new</td><td style="vertical-align:top;">:</td><td><div>False</div></td></tr><tr><td style="font-weight:bold;vertical-align:top;">session_storage_type</td><td style="vertical-align:top;">:</td><td><div>file</div></td></tr><tr><td style="font-weight:bold;vertical-align:top;">status</td><td style="vertical-align:top;">:</td><td><div>200</div></td></tr><tr><td style="font-weight:bold;vertical-align:top;">view</td><td style="vertical-align:top;">:</td><td><div>user/login.html</div></td></tr></table></div>'
tRp465
sS'locals'
p466
(dp467
S'a'
S'("SELECT  user.iduser, credential.salt, credential... = user.iduser) AND (user.username LIKE \'test\'));",)'
p468
sS'self'
p469
S'<gluon.dal.SQLiteAdapter object>'
p470
sS'b'
g21
sS'command'
p471
S'"SELECT  user.iduser, credential.salt, credential... = user.iduser) AND (user.username LIKE \'test\'));"'
p472
sS't0'
p473
S'1416673607.614519'
p474
sssS'traceback'
p475
S'Traceback (most recent call last):\n  File "/Users/james/Documents/Dropbox/Uni/Year 4/iapt/assessment/web2py-2.9.11/web2py/gluon/restricted.py", line 224, in restricted\n    exec ccode in environment\n  File "/Users/james/Documents/Dropbox/Uni/Year 4/iapt/assessment/web2py-2.9.11/web2py/applications/bootup/controllers/user.py", line 83, in <module>\n  File "/Users/james/Documents/Dropbox/Uni/Year 4/iapt/assessment/web2py-2.9.11/web2py/gluon/globals.py", line 392, in <lambda>\n    self._caller = lambda f: f()\n  File "/Users/james/Documents/Dropbox/Uni/Year 4/iapt/assessment/web2py-2.9.11/web2py/applications/bootup/controllers/user.py", line 74, in login\n    if form.process().accepted:\n  File "/Users/james/Documents/Dropbox/Uni/Year 4/iapt/assessment/web2py-2.9.11/web2py/applications/bootup/controllers/user.py", line 45, in process\n    return super(LOGINFORM,self).process(onvalidation=self.checkuser,**kwargs)\n  File "applications/bootup/forms/bootupform.py", line 86, in process\n    return super(BOOTUPFORM,self).process(**kwargs)\n  File "/Users/james/Documents/Dropbox/Uni/Year 4/iapt/assessment/web2py-2.9.11/web2py/gluon/html.py", line 2303, in process\n    self.validate(**kwargs)\n  File "/Users/james/Documents/Dropbox/Uni/Year 4/iapt/assessment/web2py-2.9.11/web2py/gluon/html.py", line 2240, in validate\n    if self.accepts(**kwargs):\n  File "/Users/james/Documents/Dropbox/Uni/Year 4/iapt/assessment/web2py-2.9.11/web2py/gluon/sqlhtml.py", line 1455, in accepts\n    **kwargs\n  File "/Users/james/Documents/Dropbox/Uni/Year 4/iapt/assessment/web2py-2.9.11/web2py/gluon/html.py", line 2141, in accepts\n    call_as_list(onvalidation, self)\n  File "/Users/james/Documents/Dropbox/Uni/Year 4/iapt/assessment/web2py-2.9.11/web2py/gluon/html.py", line 146, in call_as_list\n    item(*a,**b)\n  File "/Users/james/Documents/Dropbox/Uni/Year 4/iapt/assessment/web2py-2.9.11/web2py/applications/bootup/controllers/user.py", line 35, in checkuser\n    user = db((db.credential.userid==db.user.iduser) & (db.user.username.like(form.vars.username))).select(db.user.iduser,db.credential.salt,db.credential.hash).first()\n  File "/Users/james/Documents/Dropbox/Uni/Year 4/iapt/assessment/web2py-2.9.11/web2py/gluon/dal.py", line 10749, in select\n    return adapter.select(self.query, fields, attributes)\n  File "/Users/james/Documents/Dropbox/Uni/Year 4/iapt/assessment/web2py-2.9.11/web2py/gluon/dal.py", line 2472, in select\n    return super(SQLiteAdapter, self).select(query, fields, attributes)\n  File "/Users/james/Documents/Dropbox/Uni/Year 4/iapt/assessment/web2py-2.9.11/web2py/gluon/dal.py", line 1881, in select\n    return self._select_aux(sql, fields, attributes)\n  File "/Users/james/Documents/Dropbox/Uni/Year 4/iapt/assessment/web2py-2.9.11/web2py/gluon/dal.py", line 1846, in _select_aux\n    self.execute(sql)\n  File "/Users/james/Documents/Dropbox/Uni/Year 4/iapt/assessment/web2py-2.9.11/web2py/gluon/dal.py", line 1967, in execute\n    return self.log_execute(*a, **b)\n  File "/Users/james/Documents/Dropbox/Uni/Year 4/iapt/assessment/web2py-2.9.11/web2py/gluon/dal.py", line 1961, in log_execute\n    ret = self.cursor.execute(command, *a[1:], **b)\nOperationalError: no such column: credential.salt\n'
p476
s.