(dp1
S'output'
p2
S"<type 'exceptions.NameError'> name 'project' is not defined"
p3
sS'layer'
p4
S'/Users/james/Documents/Dropbox/Uni/Year 4/iapt/assessment/web2py-2.9.11/web2py/applications/bootup/views/user/projects.html'
p5
sS'code'
p6
S'categories=db().select(db.category.ALL)\nresponse.write(\'\\n<!DOCTYPE html>\\n<html>\\n<head lang="en">\\n    <meta charset="UTF-8">\\n    <title>Bootups</title>\\n    <link href=\\\'http://fonts.googleapis.com/css?family=Pacifico\\\' rel=\\\'stylesheet\\\' type=\\\'text/css\\\' />\\n    <link rel="stylesheet" href="\', escape=False)\nresponse.write(URL(\'static\',\'css/bootstrap.min.css\'))\nresponse.write(\'" />\\n    <link rel="stylesheet" href="\', escape=False)\nresponse.write(URL(\'static\',\'css/bootups.css\'))\nresponse.write(\'" />\\n\\n    <script src="\', escape=False)\nresponse.write(URL(\'static\',\'js/jquery-1.11.1.min.js\'))\nresponse.write(\'"></script>\\n    <script src="\', escape=False)\nresponse.write(URL(\'static\',\'js/bootstrap.min.js\'))\nresponse.write(\'"></script>\\n</head>\\n<body>\\n    <div class="bootups_nav navbar">\\n        <div class="container">\\n            <div class="navbar-left">\\n                <h1 class="logo">\', escape=False)\nresponse.write(A(\'BootUps\',_href=URL(\'bootup\',\'project\',\'index\')))\nresponse.write(\'</h1>\\n            </div>\\n\\n            <div class="navbar-form navbar-right bootups_nav_search">\\n                \', escape=False)\nresponse.write(\'<form class="bootups_search" method="get" action="\', escape=False)\nresponse.write(URL(\'bootups\',\'project\',\'search\'))\nresponse.write(\'" role="search">\\n    <div class="form-group">\\n        <input type="text" name="q" class="form-control">\\n    </div>\\n\\n    <button type="submit" class="btn btn-default"><span class="glyphicon glyphicon-search"></span></button>\\n</form>\\n\\n\', escape=False)\nresponse.write(\'\\n            </div>\\n        </div>\\n    </div>\\n\\n    <nav class="navbar navbar-default navbar-static-top" role="navigation">\\n      <div class="container">\\n          <ul class="nav navbar-header navbar-nav">\\n            <li>\', escape=False)\nresponse.write(A(\'Create Project\',_href=URL(\'bootup\',\'project\',\'create\')))\nresponse.write(\'</li>\\n            <li class="dropdown">\\n              <a href="#" class="dropdown-toggle" data-toggle="dropdown" role="button" aria-expanded="false">Discover BootUps <span class="caret"></span></a>\\n              <ul class="dropdown-menu" role="menu">\\n          \', escape=False)\nfor menucategory in categories:\n    response.write(\'\\n                <li>\', escape=False)\n    response.write(A(menucategory.name, _href=URL(\'bootup\',\'category\',\'view\',args=[menucategory.url])))\n    response.write(\'</li>\\n          \', escape=False)\n    pass\nresponse.write(\'\\n              </ul>\\n            </li>\\n          </ul>\\n          <ul class="nav navbar-nav navbar-right">\\n\\n\\n              \', escape=False)\nif auth.is_logged_in():\n    response.write(\'\\n                    <li>\', escape=False)\n    response.write(A(\'My Account\',_href=URL(\'bootup\',\'user\',\'index\')))\n    response.write(\'</li>\\n                    <li>\', escape=False)\n    response.write(A(\'Log Out\',_href=URL(\'bootup\',\'user\',\'logout\')))\n    response.write(\'</li>\\n              \', escape=False)\nelse:\n    response.write(\'\\n                    <li>\', escape=False)\n    response.write(A(\'Login\',_href=URL(\'bootup\',\'user\',\'login\')))\n    response.write(\'</li>\\n                    <li>\', escape=False)\n    response.write(A(\'Register\',_href=URL(\'bootup\',\'user\',\'register\')))\n    response.write(\'</li>\\n              \', escape=False)\n    pass\nresponse.write(\'\\n          </ul>\\n        </div>\\n\\n    </nav>\\n\\n    <div class="container" role="main">\\n        \', escape=False)\nresponse.write(\'\\n         <h2>Bootable Manager Dashboard</h2>\\n        <div class="row">\\n            <div class="col-xs-12 col-sm-8 col-md-8 col-lg-8">\\n\\n                <div class="project_list">\\n                    \', escape=False)\nfor record in projects:\n    response.write(\'\\n                        \', escape=False)\n    response.write(H3(A(record.project.title, _href=URL(\'bootup\',\'project\',\'dashboard\',args=[record.project.idproject]))))\n    response.write(\'\\n\\n<nav>\\n    \', escape=False)\n    if project.canedit():\n        response.write(\'\\n        \', escape=False)\n        response.write(A("Edit",_href=URL(\'bootup\',\'project\',\'edit\', args=[record.project.idproject])))\n        response.write(\'\\n        \', escape=False)\n        response.write(A("Delete",_href=URL(\'bootup\',\'project\',\'delete\', args=[record.project.idproject])))\n        response.write(\'\\n\\n    \', escape=False)\n        pass\n    response.write(\'\\n\\n    \', escape=False)\n    if project.canopen():\n        response.write(\'\\n        \', escape=False)\n        response.write(A("Open",_href=URL(\'bootup\',\'project\',\'open\', args=[record.project.idproject])))\n        response.write(\'\\n    \', escape=False)\n        pass\n    response.write(\'\\n\\n    \', escape=False)\n    if project.canclose():\n        response.write(\'\\n        \', escape=False)\n        response.write(A("Close",_href=URL(\'bootup\',\'project\',\'close\', args=[record.project.idproject])))\n        response.write(\'\\n    \', escape=False)\n        pass\n    response.write(\'\\n</nav>\\n\\n<div class="project_stats">&pound;\', escape=False)\n    response.write(record.project.goal)\n    response.write(\' goal. &pound;\', escape=False)\n    response.write(record.projectstat.remaining)\n    response.write(\' remaining. \', escape=False)\n    record.projectstat.progress\n    response.write(\'%. \', escape=False)\n    response.write(record.projectstat.bootings)\n    response.write(\' bootings. &pound;\', escape=False)\n    response.write(project.remaining)\n    response.write(\' remaining.</div>\\n\', escape=False)\n    response.write(project.shortdescription)\n    response.write(\'\\n</div>\', escape=False)\n    response.write(\'\\n                    \', escape=False)\n    pass\nresponse.write(\'\\n                </div>\\n            </div>\\n            <div class="col-xs-12 col-sm-4 col-md-4 col-lg-4">\\n                <h4>Filter</h4>\\n                \', escape=False)\nresponse.write(A("All",_href=URL(\'bootups\',\'user\',\'projects\')))\nresponse.write(\'<br />\\n                \', escape=False)\nresponse.write(A("Not Started",_href=URL(\'bootups\',\'user\',\'projects\',args=[\'not_started\'])))\nresponse.write(\'<br />\\n                \', escape=False)\nresponse.write(A("Open",_href=URL(\'bootups\',\'user\',\'projects\',args=[\'opened\'])))\nresponse.write(\'<br />\\n                \', escape=False)\nresponse.write(A("Funded",_href=URL(\'bootups\',\'user\',\'projects\',args=[\'funded\'])))\nresponse.write(\'<br />\\n                \', escape=False)\nresponse.write(A("Not Funded",_href=URL(\'bootups\',\'user\',\'projects\',args=[\'not_funded\'])))\nresponse.write(\'<br />\\n            </div>\\n        </div>\', escape=False)\nresponse.write(\'\\n    </div>\\n\\n    \', escape=False)\npass\nresponse.write(\'\\n\\n\\n</body>\\n</html>\', escape=False)'
p7
sS'snapshot'
p8
(dp9
S'exception'
p10
(dp11
S'__hash__'
p12
S"<method-wrapper '__hash__' of exceptions.NameError object>"
p13
sS'__setattr__'
p14
S"<method-wrapper '__setattr__' of exceptions.NameError object>"
p15
sS'__reduce_ex__'
p16
S'<built-in method __reduce_ex__ of exceptions.NameError object>'
p17
sS'__getslice__'
p18
S"<method-wrapper '__getslice__' of exceptions.NameError object>"
p19
sS'__getitem__'
p20
S"<method-wrapper '__getitem__' of exceptions.NameError object>"
p21
sS'__setstate__'
p22
S'<built-in method __setstate__ of exceptions.NameError object>'
p23
sS'args'
p24
S'("name \'project\' is not defined",)'
p25
sS'__reduce__'
p26
S'<built-in method __reduce__ of exceptions.NameError object>'
p27
sS'__str__'
p28
S"<method-wrapper '__str__' of exceptions.NameError object>"
p29
sS'__format__'
p30
S'<built-in method __format__ of exceptions.NameError object>'
p31
sS'__getattribute__'
p32
S"<method-wrapper '__getattribute__' of exceptions.NameError object>"
p33
sS'__class__'
p34
S"<type 'exceptions.NameError'>"
p35
sS'__unicode__'
p36
S'<built-in method __unicode__ of exceptions.NameError object>'
p37
sS'__delattr__'
p38
S"<method-wrapper '__delattr__' of exceptions.NameError object>"
p39
sS'__subclasshook__'
p40
S'<built-in method __subclasshook__ of type object>'
p41
sS'__repr__'
p42
S"<method-wrapper '__repr__' of exceptions.NameError object>"
p43
sS'__dict__'
p44
S'{}'
p45
sS'__sizeof__'
p46
S'<built-in method __sizeof__ of exceptions.NameError object>'
p47
sS'__doc__'
p48
S"'Name not found globally.'"
p49
sS'__init__'
p50
S"<method-wrapper '__init__' of exceptions.NameError object>"
p51
sS'__new__'
p52
S'<built-in method __new__ of type object>'
p53
ssS'evalue'
p54
S"name 'project' is not defined"
p55
sS'request'
p56
cgluon.html
XML_unpickle
p57
(S's\x86[\x00\x00<div><table><tr><td style="font-weight:bold;vertical-align:top;">ajax</td><td style="vertical-align:top;">:</td><td><div>False</div></td></tr><tr><td style="font-weight:bold;vertical-align:top;">application</td><td style="vertical-align:top;">:</td><td><div>bootup</div></td></tr><tr><td style="font-weight:bold;vertical-align:top;">args</td><td style="vertical-align:top;">:</td><td><div><table></table></div></td></tr><tr><td style="font-weight:bold;vertical-align:top;">cid</td><td style="vertical-align:top;">:</td><td><div>None</div></td></tr><tr><td style="font-weight:bold;vertical-align:top;">client</td><td style="vertical-align:top;">:</td><td><div>127.0.0.1</div></td></tr><tr><td style="font-weight:bold;vertical-align:top;">controller</td><td style="vertical-align:top;">:</td><td><div>user</div></td></tr><tr><td style="font-weight:bold;vertical-align:top;">cookies</td><td style="vertical-align:top;">:</td><td><div><table><tr><td style="font-weight:bold;vertical-align:top;">session_id_admin</td><td style="vertical-align:top;">:</td><td><div>127.0.0.1-d5f035ce-fe78-483c-907e-4bbdee1f8d57<table><tr><td style="font-weight:bold;vertical-align:top;">comment</td><td style="vertical-align:top;">:</td><td><div></div></td></tr><tr><td style="font-weight:bold;vertical-align:top;">domain</td><td style="vertical-align:top;">:</td><td><div></div></td></tr><tr><td style="font-weight:bold;vertical-align:top;">expires</td><td style="vertical-align:top;">:</td><td><div></div></td></tr><tr><td style="font-weight:bold;vertical-align:top;">httponly</td><td style="vertical-align:top;">:</td><td><div></div></td></tr><tr><td style="font-weight:bold;vertical-align:top;">max-age</td><td style="vertical-align:top;">:</td><td><div></div></td></tr><tr><td style="font-weight:bold;vertical-align:top;">path</td><td style="vertical-align:top;">:</td><td><div></div></td></tr><tr><td style="font-weight:bold;vertical-align:top;">secure</td><td style="vertical-align:top;">:</td><td><div></div></td></tr><tr><td style="font-weight:bold;vertical-align:top;">version</td><td style="vertical-align:top;">:</td><td><div></div></td></tr></table></div></td></tr><tr><td style="font-weight:bold;vertical-align:top;">session_id_bootup</td><td style="vertical-align:top;">:</td><td><div>127.0.0.1-6543c37b-0e7c-4341-b2b0-67667ed320d5<table><tr><td style="font-weight:bold;vertical-align:top;">comment</td><td style="vertical-align:top;">:</td><td><div></div></td></tr><tr><td style="font-weight:bold;vertical-align:top;">domain</td><td style="vertical-align:top;">:</td><td><div></div></td></tr><tr><td style="font-weight:bold;vertical-align:top;">expires</td><td style="vertical-align:top;">:</td><td><div></div></td></tr><tr><td style="font-weight:bold;vertical-align:top;">httponly</td><td style="vertical-align:top;">:</td><td><div></div></td></tr><tr><td style="font-weight:bold;vertical-align:top;">max-age</td><td style="vertical-align:top;">:</td><td><div></div></td></tr><tr><td style="font-weight:bold;vertical-align:top;">path</td><td style="vertical-align:top;">:</td><td><div></div></td></tr><tr><td style="font-weight:bold;vertical-align:top;">secure</td><td style="vertical-align:top;">:</td><td><div></div></td></tr><tr><td style="font-weight:bold;vertical-align:top;">version</td><td style="vertical-align:top;">:</td><td><div></div></td></tr></table></div></td></tr></table></div></td></tr><tr><td style="font-weight:bold;vertical-align:top;">env</td><td style="vertical-align:top;">:</td><td><div><table><tr><td style="font-weight:bold;vertical-align:top;">HTTP_ACCEPT</td><td style="vertical-align:top;">:</td><td><div>text/html,application/xhtml+xml,application/xml;q=0.9,image/webp,*/*;q=0.8</div></td></tr><tr><td style="font-weight:bold;vertical-align:top;">HTTP_ACCEPT_ENCODING</td><td style="vertical-align:top;">:</td><td><div>gzip,deflate,sdch</div></td></tr><tr><td style="font-weight:bold;vertical-align:top;">HTTP_ACCEPT_LANGUAGE</td><td style="vertical-align:top;">:</td><td><div>en-US,en;q=0.8</div></td></tr><tr><td style="font-weight:bold;vertical-align:top;">HTTP_CACHE_CONTROL</td><td style="vertical-align:top;">:</td><td><div>max-age=0</div></td></tr><tr><td style="font-weight:bold;vertical-align:top;">HTTP_CONNECTION</td><td style="vertical-align:top;">:</td><td><div>keep-alive</div></td></tr><tr><td style="font-weight:bold;vertical-align:top;">HTTP_COOKIE</td><td style="vertical-align:top;">:</td><td><div>session_id_bootup=127.0.0.1-6543c37b-0e7c-4341-b2b0-67667ed320d5; session_id_admin=127.0.0.1-d5f035ce-fe78-483c-907e-4bbdee1f8d57</div></td></tr><tr><td style="font-weight:bold;vertical-align:top;">HTTP_HOST</td><td style="vertical-align:top;">:</td><td><div>127.0.0.1:8000</div></td></tr><tr><td style="font-weight:bold;vertical-align:top;">HTTP_USER_AGENT</td><td style="vertical-align:top;">:</td><td><div>Mozilla/5.0 (Macintosh; Intel Mac OS X 10_9_4) AppleWebKit/537.36 (KHTML, like Gecko) Chrome/38.0.2125.122 Safari/537.36</div></td></tr><tr><td style="font-weight:bold;vertical-align:top;">PATH_INFO</td><td style="vertical-align:top;">:</td><td><div>/bootup/user/projects</div></td></tr><tr><td style="font-weight:bold;vertical-align:top;">QUERY_STRING</td><td style="vertical-align:top;">:</td><td><div></div></td></tr><tr><td style="font-weight:bold;vertical-align:top;">REMOTE_ADDR</td><td style="vertical-align:top;">:</td><td><div>127.0.0.1</div></td></tr><tr><td style="font-weight:bold;vertical-align:top;">REMOTE_PORT</td><td style="vertical-align:top;">:</td><td><div>64357</div></td></tr><tr><td style="font-weight:bold;vertical-align:top;">REQUEST_METHOD</td><td style="vertical-align:top;">:</td><td><div>GET</div></td></tr><tr><td style="font-weight:bold;vertical-align:top;">SCRIPT_NAME</td><td style="vertical-align:top;">:</td><td><div></div></td></tr><tr><td style="font-weight:bold;vertical-align:top;">SERVER_NAME</td><td style="vertical-align:top;">:</td><td><div>jt-mbp.local</div></td></tr><tr><td style="font-weight:bold;vertical-align:top;">SERVER_PORT</td><td style="vertical-align:top;">:</td><td><div>8000</div></td></tr><tr><td style="font-weight:bold;vertical-align:top;">SERVER_PROTOCOL</td><td style="vertical-align:top;">:</td><td><div>HTTP/1.1</div></td></tr><tr><td style="font-weight:bold;vertical-align:top;">SERVER_SOFTWARE</td><td style="vertical-align:top;">:</td><td><div>Rocket 1.2.6</div></td></tr><tr><td style="font-weight:bold;vertical-align:top;">app_folders</td><td style="vertical-align:top;">:</td><td><div>set([&#x27;/Users/james/Documents/Dropbox/Uni/Year 4/iapt/assessment/web2py-2.9.11/web2py/applications/admin/&#x27;, &#x27;/Users/james/Documents/Dropbox/Uni/Year 4/iapt/assessment/web2py-2.9.11/web2py/applications/bootup/&#x27;])</div></td></tr><tr><td style="font-weight:bold;vertical-align:top;">applications_parent</td><td style="vertical-align:top;">:</td><td><div>/Users/james/Documents/Dropbox/Uni/Year 4/iapt/assessment/web2py-2.9.11/web2py</div></td></tr><tr><td style="font-weight:bold;vertical-align:top;">cmd_args</td><td style="vertical-align:top;">:</td><td><div><table></table></div></td></tr><tr><td style="font-weight:bold;vertical-align:top;">cmd_options</td><td style="vertical-align:top;">:</td><td><div>&lt;Values at 0x10dd162d8: {&#x27;verbose&#x27;: False, &#x27;ip&#x27;: &#x27;127.0.0.1&#x27;, &#x27;debuglevel&#x27;: 30, &#x27;with_scheduler&#x27;: False, &#x27;ips&#x27;: [&#x27;192.168.1.205&#x27;, &#x27;192.168.1.105&#x27;, &#x27;fe80::82e6:50ff:fe13:c80c%en0&#x27;, &#x27;fe80::82e6:50ff:fe13:c80c%en4&#x27;, &#x27;fe80::e4d:e9ff:feaf:c666%en4&#x27;, &#x27;fe80::e4d:e9ff:feaf:c666%en0&#x27;], &#x27;shutdown_timeout&#x27;: 5, &#x27;taskbar&#x27;: False, &#x27;with_coverage&#x27;: False, &#x27;scheduler_groups&#x27;: None, &#x27;port&#x27;: 8000, &#x27;maxthreads&#x27;: None, &#x27;softcron&#x27;: False, &#x27;server_name&#x27;: &#x27;jt-mbp.local&#x27;, &#x27;bpython&#x27;: False, &#x27;nogui&#x27;: False, &#x27;pid_filename&#x27;: &#x27;httpserver.pid&#x27;, &#x27;extcron&#x27;: False, &#x27;runcron&#x27;: False, &#x27;run_system_tests&#x27;: False, &#x27;test&#x27;: None, &#x27;folder&#x27;: &#x27;/Users/james/Documents/Dropbox/Uni/Year 4/iapt/assessment/web2py-2.9.11/web2py&#x27;, &#x27;config&#x27;: &#x27;&#x27;, &#x27;minthreads&#x27;: None, &#x27;shell&#x27;: None, &#x27;run&#x27;: &#x27;&#x27;, &#x27;log_filename&#x27;: &#x27;httpserver.log&#x27;, &#x27;profiler_dir&#x27;: None, &#x27;args&#x27;: [&#x27;&#x27;], &#x27;socket_timeout&#x27;: 5, &#x27;ssl_ca_certificate&#x27;: None, &#x27;scheduler&#x27;: None, &#x27;interfaces&#x27;: None, &#x27;ssl_private_key&#x27;: &#x27;&#x27;, &#x27;gae&#x27;: None, &#x27;password&#x27;: &#x27;&lt;ask&gt;&#x27;, &#x27;request_queue_size&#x27;: 5, &#x27;ssl_certificate&#x27;: &#x27;&#x27;, &#x27;cronjob&#x27;: False, &#x27;numthreads&#x27;: None, &#x27;quiet&#x27;: False, &#x27;import_models&#x27;: False, &#x27;timeout&#x27;: 10, &#x27;plain&#x27;: False, &#x27;nobanner&#x27;: False}&gt;</div></td></tr><tr><td style="font-weight:bold;vertical-align:top;">db_sessions</td><td style="vertical-align:top;">:</td><td><div>set([])</div></td></tr><tr><td style="font-weight:bold;vertical-align:top;">debugging</td><td style="vertical-align:top;">:</td><td><div>False</div></td></tr><tr><td style="font-weight:bold;vertical-align:top;">gluon_parent</td><td style="vertical-align:top;">:</td><td><div>/Users/james/Documents/Dropbox/Uni/Year 4/iapt/assessment/web2py-2.9.11/web2py</div></td></tr><tr><td style="font-weight:bold;vertical-align:top;">http_accept</td><td style="vertical-align:top;">:</td><td><div>text/html,application/xhtml+xml,application/xml;q=0.9,image/webp,*/*;q=0.8</div></td></tr><tr><td style="font-weight:bold;vertical-align:top;">http_accept_encoding</td><td style="vertical-align:top;">:</td><td><div>gzip,deflate,sdch</div></td></tr><tr><td style="font-weight:bold;vertical-align:top;">http_accept_language</td><td style="vertical-align:top;">:</td><td><div>en-US,en;q=0.8</div></td></tr><tr><td style="font-weight:bold;vertical-align:top;">http_cache_control</td><td style="vertical-align:top;">:</td><td><div>max-age=0</div></td></tr><tr><td style="font-weight:bold;vertical-align:top;">http_connection</td><td style="vertical-align:top;">:</td><td><div>keep-alive</div></td></tr><tr><td style="font-weight:bold;vertical-align:top;">http_cookie</td><td style="vertical-align:top;">:</td><td><div>session_id_bootup=127.0.0.1-6543c37b-0e7c-4341-b2b0-67667ed320d5; session_id_admin=127.0.0.1-d5f035ce-fe78-483c-907e-4bbdee1f8d57</div></td></tr><tr><td style="font-weight:bold;vertical-align:top;">http_host</td><td style="vertical-align:top;">:</td><td><div>127.0.0.1:8000</div></td></tr><tr><td style="font-weight:bold;vertical-align:top;">http_user_agent</td><td style="vertical-align:top;">:</td><td><div>Mozilla/5.0 (Macintosh; Intel Mac OS X 10_9_4) AppleWebKit/537.36 (KHTML, like Gecko) Chrome/38.0.2125.122 Safari/537.36</div></td></tr><tr><td style="font-weight:bold;vertical-align:top;">is_jython</td><td style="vertical-align:top;">:</td><td><div>False</div></td></tr><tr><td style="font-weight:bold;vertical-align:top;">is_pypy</td><td style="vertical-align:top;">:</td><td><div>False</div></td></tr><tr><td style="font-weight:bold;vertical-align:top;">is_source</td><td style="vertical-align:top;">:</td><td><div>True</div></td></tr><tr><td style="font-weight:bold;vertical-align:top;">local_hosts</td><td style="vertical-align:top;">:</td><td><div><table><tr><td><div>jt-mbp.local</div></td></tr><tr><td><div>192.168.1.205</div></td></tr><tr><td><div>192.168.1.105</div></td></tr><tr><td><div>::1</div></td></tr><tr><td><div>::ffff:127.0.0.1</div></td></tr><tr><td><div>fe80::82e6:50ff:fe13:c80c%en0</div></td></tr><tr><td><div>fe80::82e6:50ff:fe13:c80c%en4</div></td></tr><tr><td><div>fe80::e4d:e9ff:feaf:c666%en4</div></td></tr><tr><td><div>fe80::e4d:e9ff:feaf:c666%en0</div></td></tr><tr><td><div>127.0.0.1</div></td></tr></table></div></td></tr><tr><td style="font-weight:bold;vertical-align:top;">path_info</td><td style="vertical-align:top;">:</td><td><div>/bootup/user/projects</div></td></tr><tr><td style="font-weight:bold;vertical-align:top;">query_string</td><td style="vertical-align:top;">:</td><td><div></div></td></tr><tr><td style="font-weight:bold;vertical-align:top;">remote_addr</td><td style="vertical-align:top;">:</td><td><div>127.0.0.1</div></td></tr><tr><td style="font-weight:bold;vertical-align:top;">remote_port</td><td style="vertical-align:top;">:</td><td><div>64357</div></td></tr><tr><td style="font-weight:bold;vertical-align:top;">request_method</td><td style="vertical-align:top;">:</td><td><div>GET</div></td></tr><tr><td style="font-weight:bold;vertical-align:top;">request_uri</td><td style="vertical-align:top;">:</td><td><div>/bootup/user/projects</div></td></tr><tr><td style="font-weight:bold;vertical-align:top;">script_name</td><td style="vertical-align:top;">:</td><td><div></div></td></tr><tr><td style="font-weight:bold;vertical-align:top;">server_name</td><td style="vertical-align:top;">:</td><td><div>jt-mbp.local</div></td></tr><tr><td style="font-weight:bold;vertical-align:top;">server_port</td><td style="vertical-align:top;">:</td><td><div>8000</div></td></tr><tr><td style="font-weight:bold;vertical-align:top;">server_protocol</td><td style="vertical-align:top;">:</td><td><div>HTTP/1.1</div></td></tr><tr><td style="font-weight:bold;vertical-align:top;">server_software</td><td style="vertical-align:top;">:</td><td><div>Rocket 1.2.6</div></td></tr><tr><td style="font-weight:bold;vertical-align:top;">web2py_path</td><td style="vertical-align:top;">:</td><td><div>/Users/james/Documents/Dropbox/Uni/Year 4/iapt/assessment/web2py-2.9.11/web2py</div></td></tr><tr><td style="font-weight:bold;vertical-align:top;">web2py_version</td><td style="vertical-align:top;">:</td><td><div>2.9.11-stable+timestamp.2014.09.15.23.35.11</div></td></tr><tr><td style="font-weight:bold;vertical-align:top;">wsgi.errors</td><td style="vertical-align:top;">:</td><td><div>&lt;open file &#x27;&lt;stderr&gt;&#x27;, mode &#x27;w&#x27; at 0x10ce351e0&gt;</div></td></tr><tr><td style="font-weight:bold;vertical-align:top;">wsgi.file_wrapper</td><td style="vertical-align:top;">:</td><td><div>&lt;class wsgiref.util.FileWrapper at 0x10da48e20&gt;</div></td></tr><tr><td style="font-weight:bold;vertical-align:top;">wsgi.input</td><td style="vertical-align:top;">:</td><td><div>&lt;socket._fileobject object at 0x1180175d0&gt;</div></td></tr><tr><td style="font-weight:bold;vertical-align:top;">wsgi.multiprocess</td><td style="vertical-align:top;">:</td><td><div>False</div></td></tr><tr><td style="font-weight:bold;vertical-align:top;">wsgi.multithread</td><td style="vertical-align:top;">:</td><td><div>True</div></td></tr><tr><td style="font-weight:bold;vertical-align:top;">wsgi.run_once</td><td style="vertical-align:top;">:</td><td><div>False</div></td></tr><tr><td style="font-weight:bold;vertical-align:top;">wsgi.url_scheme</td><td style="vertical-align:top;">:</td><td><div>http</div></td></tr><tr><td style="font-weight:bold;vertical-align:top;">wsgi.version</td><td style="vertical-align:top;">:</td><td><div><table><tr><td><div>1</div></td></tr><tr><td><div>0</div></td></tr></table></div></td></tr><tr><td style="font-weight:bold;vertical-align:top;">wsgi_errors</td><td style="vertical-align:top;">:</td><td><div>&lt;open file &#x27;&lt;stderr&gt;&#x27;, mode &#x27;w&#x27; at 0x10ce351e0&gt;</div></td></tr><tr><td style="font-weight:bold;vertical-align:top;">wsgi_file_wrapper</td><td style="vertical-align:top;">:</td><td><div>&lt;class wsgiref.util.FileWrapper at 0x10da48e20&gt;</div></td></tr><tr><td style="font-weight:bold;vertical-align:top;">wsgi_input</td><td style="vertical-align:top;">:</td><td><div>&lt;socket._fileobject object at 0x1180175d0&gt;</div></td></tr><tr><td style="font-weight:bold;vertical-align:top;">wsgi_multiprocess</td><td style="vertical-align:top;">:</td><td><div>False</div></td></tr><tr><td style="font-weight:bold;vertical-align:top;">wsgi_multithread</td><td style="vertical-align:top;">:</td><td><div>True</div></td></tr><tr><td style="font-weight:bold;vertical-align:top;">wsgi_run_once</td><td style="vertical-align:top;">:</td><td><div>False</div></td></tr><tr><td style="font-weight:bold;vertical-align:top;">wsgi_url_scheme</td><td style="vertical-align:top;">:</td><td><div>http</div></td></tr><tr><td style="font-weight:bold;vertical-align:top;">wsgi_version</td><td style="vertical-align:top;">:</td><td><div><table><tr><td><div>1</div></td></tr><tr><td><div>0</div></td></tr></table></div></td></tr></table></div></td></tr><tr><td style="font-weight:bold;vertical-align:top;">extension</td><td style="vertical-align:top;">:</td><td><div>html</div></td></tr><tr><td style="font-weight:bold;vertical-align:top;">folder</td><td style="vertical-align:top;">:</td><td><div>/Users/james/Documents/Dropbox/Uni/Year 4/iapt/assessment/web2py-2.9.11/web2py/applications/bootup/</div></td></tr><tr><td style="font-weight:bold;vertical-align:top;">function</td><td style="vertical-align:top;">:</td><td><div>projects</div></td></tr><tr><td style="font-weight:bold;vertical-align:top;">global_settings</td><td style="vertical-align:top;">:</td><td><div><table><tr><td style="font-weight:bold;vertical-align:top;">app_folders</td><td style="vertical-align:top;">:</td><td><div>set([&#x27;/Users/james/Documents/Dropbox/Uni/Year 4/iapt/assessment/web2py-2.9.11/web2py/applications/admin/&#x27;, &#x27;/Users/james/Documents/Dropbox/Uni/Year 4/iapt/assessment/web2py-2.9.11/web2py/applications/bootup/&#x27;])</div></td></tr><tr><td style="font-weight:bold;vertical-align:top;">applications_parent</td><td style="vertical-align:top;">:</td><td><div>/Users/james/Documents/Dropbox/Uni/Year 4/iapt/assessment/web2py-2.9.11/web2py</div></td></tr><tr><td style="font-weight:bold;vertical-align:top;">cmd_args</td><td style="vertical-align:top;">:</td><td><div><table></table></div></td></tr><tr><td style="font-weight:bold;vertical-align:top;">cmd_options</td><td style="vertical-align:top;">:</td><td><div>&lt;Values at 0x10dd162d8: {&#x27;verbose&#x27;: False, &#x27;ip&#x27;: &#x27;127.0.0.1&#x27;, &#x27;debuglevel&#x27;: 30, &#x27;with_scheduler&#x27;: False, &#x27;ips&#x27;: [&#x27;192.168.1.205&#x27;, &#x27;192.168.1.105&#x27;, &#x27;fe80::82e6:50ff:fe13:c80c%en0&#x27;, &#x27;fe80::82e6:50ff:fe13:c80c%en4&#x27;, &#x27;fe80::e4d:e9ff:feaf:c666%en4&#x27;, &#x27;fe80::e4d:e9ff:feaf:c666%en0&#x27;], &#x27;shutdown_timeout&#x27;: 5, &#x27;taskbar&#x27;: False, &#x27;with_coverage&#x27;: False, &#x27;scheduler_groups&#x27;: None, &#x27;port&#x27;: 8000, &#x27;maxthreads&#x27;: None, &#x27;softcron&#x27;: False, &#x27;server_name&#x27;: &#x27;jt-mbp.local&#x27;, &#x27;bpython&#x27;: False, &#x27;nogui&#x27;: False, &#x27;pid_filename&#x27;: &#x27;httpserver.pid&#x27;, &#x27;extcron&#x27;: False, &#x27;runcron&#x27;: False, &#x27;run_system_tests&#x27;: False, &#x27;test&#x27;: None, &#x27;folder&#x27;: &#x27;/Users/james/Documents/Dropbox/Uni/Year 4/iapt/assessment/web2py-2.9.11/web2py&#x27;, &#x27;config&#x27;: &#x27;&#x27;, &#x27;minthreads&#x27;: None, &#x27;shell&#x27;: None, &#x27;run&#x27;: &#x27;&#x27;, &#x27;log_filename&#x27;: &#x27;httpserver.log&#x27;, &#x27;profiler_dir&#x27;: None, &#x27;args&#x27;: [&#x27;&#x27;], &#x27;socket_timeout&#x27;: 5, &#x27;ssl_ca_certificate&#x27;: None, &#x27;scheduler&#x27;: None, &#x27;interfaces&#x27;: None, &#x27;ssl_private_key&#x27;: &#x27;&#x27;, &#x27;gae&#x27;: None, &#x27;password&#x27;: &#x27;&lt;ask&gt;&#x27;, &#x27;request_queue_size&#x27;: 5, &#x27;ssl_certificate&#x27;: &#x27;&#x27;, &#x27;cronjob&#x27;: False, &#x27;numthreads&#x27;: None, &#x27;quiet&#x27;: False, &#x27;import_models&#x27;: False, &#x27;timeout&#x27;: 10, &#x27;plain&#x27;: False, &#x27;nobanner&#x27;: False}&gt;</div></td></tr><tr><td style="font-weight:bold;vertical-align:top;">db_sessions</td><td style="vertical-align:top;">:</td><td><div>set([])</div></td></tr><tr><td style="font-weight:bold;vertical-align:top;">debugging</td><td style="vertical-align:top;">:</td><td><div>False</div></td></tr><tr><td style="font-weight:bold;vertical-align:top;">gluon_parent</td><td style="vertical-align:top;">:</td><td><div>/Users/james/Documents/Dropbox/Uni/Year 4/iapt/assessment/web2py-2.9.11/web2py</div></td></tr><tr><td style="font-weight:bold;vertical-align:top;">is_jython</td><td style="vertical-align:top;">:</td><td><div>False</div></td></tr><tr><td style="font-weight:bold;vertical-align:top;">is_pypy</td><td style="vertical-align:top;">:</td><td><div>False</div></td></tr><tr><td style="font-weight:bold;vertical-align:top;">is_source</td><td style="vertical-align:top;">:</td><td><div>True</div></td></tr><tr><td style="font-weight:bold;vertical-align:top;">local_hosts</td><td style="vertical-align:top;">:</td><td><div><table><tr><td><div>jt-mbp.local</div></td></tr><tr><td><div>192.168.1.205</div></td></tr><tr><td><div>192.168.1.105</div></td></tr><tr><td><div>::1</div></td></tr><tr><td><div>::ffff:127.0.0.1</div></td></tr><tr><td><div>fe80::82e6:50ff:fe13:c80c%en0</div></td></tr><tr><td><div>fe80::82e6:50ff:fe13:c80c%en4</div></td></tr><tr><td><div>fe80::e4d:e9ff:feaf:c666%en4</div></td></tr><tr><td><div>fe80::e4d:e9ff:feaf:c666%en0</div></td></tr><tr><td><div>127.0.0.1</div></td></tr></table></div></td></tr><tr><td style="font-weight:bold;vertical-align:top;">web2py_version</td><td style="vertical-align:top;">:</td><td><div>2.9.11-stable+timestamp.2014.09.15.23.35.11</div></td></tr></table></div></td></tr><tr><td style="font-weight:bold;vertical-align:top;">is_https</td><td style="vertical-align:top;">:</td><td><div>False</div></td></tr><tr><td style="font-weight:bold;vertical-align:top;">is_local</td><td style="vertical-align:top;">:</td><td><div>True</div></td></tr><tr><td style="font-weight:bold;vertical-align:top;">is_restful</td><td style="vertical-align:top;">:</td><td><div>False</div></td></tr><tr><td style="font-weight:bold;vertical-align:top;">is_sheduler</td><td style="vertical-align:top;">:</td><td><div>None</div></td></tr><tr><td style="font-weight:bold;vertical-align:top;">is_shell</td><td style="vertical-align:top;">:</td><td><div>None</div></td></tr><tr><td style="font-weight:bold;vertical-align:top;">now</td><td style="vertical-align:top;">:</td><td><div>datetime.datetime(2014, 11, 23, 17, 31, 8, 11046)</div></td></tr><tr><td style="font-weight:bold;vertical-align:top;">raw_args</td><td style="vertical-align:top;">:</td><td><div></div></td></tr><tr><td style="font-weight:bold;vertical-align:top;">raw_extension</td><td style="vertical-align:top;">:</td><td><div>None</div></td></tr><tr><td style="font-weight:bold;vertical-align:top;">url</td><td style="vertical-align:top;">:</td><td><div>/bootup/user/projects</div></td></tr><tr><td style="font-weight:bold;vertical-align:top;">utcnow</td><td style="vertical-align:top;">:</td><td><div>datetime.datetime(2014, 11, 23, 17, 31, 8, 11054)</div></td></tr><tr><td style="font-weight:bold;vertical-align:top;">uuid</td><td style="vertical-align:top;">:</td><td><div>bootup/127.0.0.1.2014-11-23.17-31-08.ebe3c360-4030-445f-89ab-6b75c037ec2d</div></td></tr><tr><td style="font-weight:bold;vertical-align:top;">wsgi</td><td style="vertical-align:top;">:</td><td><div>&lt;gluon.main.LazyWSGI object at 0x10d8d0f90&gt;</div></td></tr></table></div>'
tRp58
sS'frames'
p59
(lp60
(dp61
S'file'
p62
S'/Users/james/Documents/Dropbox/Uni/Year 4/iapt/assessment/web2py-2.9.11/web2py/gluon/restricted.py'
p63
sS'dump'
p64
(dp65
S'environment'
p66
S"{'A': <class 'gluon.html.A'>, 'ANY_OF': <class 'gluon.validators.ANY_OF'>, 'ASSIGNJS': <function ASSIGNJS>, 'B': <class 'gluon.html.B'>, 'BEAUTIFY': <class 'gluon.html.BEAUTIFY'>, 'BODY': <class 'gluon.html.BODY'>, 'BR': <class 'gluon.html.BR'>, 'BUTTON': <class 'gluon.html.BUTTON'>, 'BootUpAuth': <class __restricted__.BootUpAuth>, 'CAT': <class 'gluon.html.CAT'>, ...}"
p67
sS'ccode'
p68
S'<code object <module> at 0x10d8ee2b0, file "/Use...cations/bootup/views/user/projects.html", line 1>'
p69
ssS'lnum'
p70
I224
sS'lines'
p71
(dp72
I224
S'        exec ccode in environment'
p73
sI225
S'    except HTTP:'
p74
sI226
S'        raise'
p75
sI227
S'    except RestrictedError:'
p76
sI228
S'        # do not encapsulate (obfuscate) the original RestrictedError'
p77
sI219
S'    try:'
p78
sI220
S'        if isinstance(code, types.CodeType):'
p79
sI221
S'            ccode = code'
p80
sI222
S'        else:'
p81
sI223
S'            ccode = compile2(code, layer)'
p82
ssS'call'
p83
S'(code="categories=db().select(db.category.ALL)\\nresponse...nse.write(\'\\\\n\\\\n\\\\n</body>\\\\n</html>\', escape=False)", environment={\'A\': <class \'gluon.html.A\'>, \'ANY_OF\': <class \'gluon.validators.ANY_OF\'>, \'ASSIGNJS\': <function ASSIGNJS>, \'B\': <class \'gluon.html.B\'>, \'BEAUTIFY\': <class \'gluon.html.BEAUTIFY\'>, \'BODY\': <class \'gluon.html.BODY\'>, \'BR\': <class \'gluon.html.BR\'>, \'BUTTON\': <class \'gluon.html.BUTTON\'>, \'BootUpAuth\': <class __restricted__.BootUpAuth>, \'CAT\': <class \'gluon.html.CAT\'>, ...}, layer=\'/Users/james/Documents/Dropbox/Uni/Year 4/iapt/a...b2py/applications/bootup/views/user/projects.html\')'
p84
sS'func'
p85
S'restricted'
p86
sa(dp87
g62
S'/Users/james/Documents/Dropbox/Uni/Year 4/iapt/assessment/web2py-2.9.11/web2py/applications/bootup/views/user/projects.html'
p88
sg64
(dp89
sg70
I44
sg71
(dp90
I35
S"    response.write(A('Register',_href=URL('bootup','user','register')))"
p91
sI36
S"    response.write('</li>\\n              ', escape=False)"
p92
sI37
S'    pass'
p93
sI38
S'response.write(\'\\n          </ul>\\n        </div>\\n\\n    </nav>\\n\\n    <div class="container" role="main">\\n        \', escape=False)'
p94
sI39
S'response.write(\'\\n         <h2>Bootable Manager Dashboard</h2>\\n        <div class="row">\\n            <div class="col-xs-12 col-sm-8 col-md-8 col-lg-8">\\n\\n                <div class="project_list">\\n                    \', escape=False)'
p95
sI40
S'for record in projects:'
p96
sI41
S"    response.write('\\n                        ', escape=False)"
p97
sI42
S"    response.write(H3(A(record.project.title, _href=URL('bootup','project','dashboard',args=[record.project.idproject]))))"
p98
sI43
S"    response.write('\\n\\n<nav>\\n    ', escape=False)"
p99
sI44
S'    if project.canedit():'
p100
sI45
S"        response.write('\\n        ', escape=False)"
p101
sI46
S'        response.write(A("Edit",_href=URL(\'bootup\',\'project\',\'edit\', args=[record.project.idproject])))'
p102
sI47
S"        response.write('\\n        ', escape=False)"
p103
sI48
S'        response.write(A("Delete",_href=URL(\'bootup\',\'project\',\'delete\', args=[record.project.idproject])))'
p104
sI49
S"        response.write('\\n\\n    ', escape=False)"
p105
sI50
S'        pass'
p106
sI51
S"    response.write('\\n\\n    ', escape=False)"
p107
sI52
S'    if project.canopen():'
p108
sI53
S"        response.write('\\n        ', escape=False)"
p109
sI54
S'        response.write(A("Open",_href=URL(\'bootup\',\'project\',\'open\', args=[record.project.idproject])))'
p110
ssg83
S'()'
p111
sg85
S'<module>'
p112
sasS'pyver'
p113
S'Python 2.7.5: /usr/bin/python (prefix: /System/Library/Frameworks/Python.framework/Versions/2.7)'
p114
sS'session'
p115
g57
(S's\x99\x00\x00\x00<div><table><tr><td style="font-weight:bold;vertical-align:top;">user</td><td style="vertical-align:top;">:</td><td><div>1L</div></td></tr></table></div>'
tRp116
sS'etype'
p117
S"<type 'exceptions.NameError'>"
p118
sS'date'
p119
S'Sun Nov 23 17:31:08 2014'
p120
sS'response'
p121
g57
(S'sU\x18\x00\x00<div><table><tr><td style="font-weight:bold;vertical-align:top;">body</td><td style="vertical-align:top;">:</td><td><div>&lt;cStringIO.StringO object at 0x1170a0030&gt;</div></td></tr><tr><td style="font-weight:bold;vertical-align:top;">cookies</td><td style="vertical-align:top;">:</td><td><div><table><tr><td style="font-weight:bold;vertical-align:top;">session_id_bootup</td><td style="vertical-align:top;">:</td><td><div>127.0.0.1-6543c37b-0e7c-4341-b2b0-67667ed320d5<table><tr><td style="font-weight:bold;vertical-align:top;">comment</td><td style="vertical-align:top;">:</td><td><div></div></td></tr><tr><td style="font-weight:bold;vertical-align:top;">domain</td><td style="vertical-align:top;">:</td><td><div></div></td></tr><tr><td style="font-weight:bold;vertical-align:top;">expires</td><td style="vertical-align:top;">:</td><td><div></div></td></tr><tr><td style="font-weight:bold;vertical-align:top;">httponly</td><td style="vertical-align:top;">:</td><td><div></div></td></tr><tr><td style="font-weight:bold;vertical-align:top;">max-age</td><td style="vertical-align:top;">:</td><td><div></div></td></tr><tr><td style="font-weight:bold;vertical-align:top;">path</td><td style="vertical-align:top;">:</td><td><div>/</div></td></tr><tr><td style="font-weight:bold;vertical-align:top;">secure</td><td style="vertical-align:top;">:</td><td><div></div></td></tr><tr><td style="font-weight:bold;vertical-align:top;">version</td><td style="vertical-align:top;">:</td><td><div></div></td></tr></table></div></td></tr></table></div></td></tr><tr><td style="font-weight:bold;vertical-align:top;">delimiters</td><td style="vertical-align:top;">:</td><td><div><table><tr><td><div>{{</div></td></tr><tr><td><div>}}</div></td></tr></table></div></td></tr><tr><td style="font-weight:bold;vertical-align:top;">files</td><td style="vertical-align:top;">:</td><td><div><table></table></div></td></tr><tr><td style="font-weight:bold;vertical-align:top;">flash</td><td style="vertical-align:top;">:</td><td><div></div></td></tr><tr><td style="font-weight:bold;vertical-align:top;">form_label_separator</td><td style="vertical-align:top;">:</td><td><div>: </div></td></tr><tr><td style="font-weight:bold;vertical-align:top;">formstyle</td><td style="vertical-align:top;">:</td><td><div>table3cols</div></td></tr><tr><td style="font-weight:bold;vertical-align:top;">generic_patterns</td><td style="vertical-align:top;">:</td><td><div><table><tr><td><div>*</div></td></tr></table></div></td></tr><tr><td style="font-weight:bold;vertical-align:top;">headers</td><td style="vertical-align:top;">:</td><td><div><table><tr><td style="font-weight:bold;vertical-align:top;">X-Powered-By</td><td style="vertical-align:top;">:</td><td><div>web2py</div></td></tr></table></div></td></tr><tr><td style="font-weight:bold;vertical-align:top;">menu</td><td style="vertical-align:top;">:</td><td><div><table></table></div></td></tr><tr><td style="font-weight:bold;vertical-align:top;">meta</td><td style="vertical-align:top;">:</td><td><div><table></table></div></td></tr><tr><td style="font-weight:bold;vertical-align:top;">models_to_run</td><td style="vertical-align:top;">:</td><td><div><table><tr><td><div>^\\w+\\.py$</div></td></tr><tr><td><div>^user/\\w+\\.py$</div></td></tr><tr><td><div>^user/projects/\\w+\\.py$</div></td></tr></table></div></td></tr><tr><td style="font-weight:bold;vertical-align:top;">postprocessing</td><td style="vertical-align:top;">:</td><td><div><table></table></div></td></tr><tr><td style="font-weight:bold;vertical-align:top;">session_client</td><td style="vertical-align:top;">:</td><td><div>127.0.0.1</div></td></tr><tr><td style="font-weight:bold;vertical-align:top;">session_cookie_compression_level</td><td style="vertical-align:top;">:</td><td><div>None</div></td></tr><tr><td style="font-weight:bold;vertical-align:top;">session_cookie_expires</td><td style="vertical-align:top;">:</td><td><div>None</div></td></tr><tr><td style="font-weight:bold;vertical-align:top;">session_cookie_key</td><td style="vertical-align:top;">:</td><td><div>None</div></td></tr><tr><td style="font-weight:bold;vertical-align:top;">session_data_name</td><td style="vertical-align:top;">:</td><td><div>session_data_bootup</div></td></tr><tr><td style="font-weight:bold;vertical-align:top;">session_file</td><td style="vertical-align:top;">:</td><td><div>&lt;open file &#x27;/Users/james/Documents/Dropbox/Uni/Year 4/iapt/assessment/web2py-2.9.11/web2py/applications/bootup/sessions/1dd/1f1/127.0.0.1-6543c37b-0e7c-4341-b2b0-67667ed320d5&#x27;, mode &#x27;rb+&#x27; at 0x113ec88a0&gt;</div></td></tr><tr><td style="font-weight:bold;vertical-align:top;">session_filename</td><td style="vertical-align:top;">:</td><td><div>/Users/james/Documents/Dropbox/Uni/Year 4/iapt/assessment/web2py-2.9.11/web2py/applications/bootup/sessions/127.0.0.1-6543c37b-0e7c-4341-b2b0-67667ed320d5</div></td></tr><tr><td style="font-weight:bold;vertical-align:top;">session_hash</td><td style="vertical-align:top;">:</td><td><div>6a0b82d02667602c6cb4389b7ee43b37</div></td></tr><tr><td style="font-weight:bold;vertical-align:top;">session_id</td><td style="vertical-align:top;">:</td><td><div>127.0.0.1-6543c37b-0e7c-4341-b2b0-67667ed320d5</div></td></tr><tr><td style="font-weight:bold;vertical-align:top;">session_id_name</td><td style="vertical-align:top;">:</td><td><div>session_id_bootup</div></td></tr><tr><td style="font-weight:bold;vertical-align:top;">session_locked</td><td style="vertical-align:top;">:</td><td><div>True</div></td></tr><tr><td style="font-weight:bold;vertical-align:top;">session_masterapp</td><td style="vertical-align:top;">:</td><td><div>bootup</div></td></tr><tr><td style="font-weight:bold;vertical-align:top;">session_new</td><td style="vertical-align:top;">:</td><td><div>False</div></td></tr><tr><td style="font-weight:bold;vertical-align:top;">session_storage_type</td><td style="vertical-align:top;">:</td><td><div>file</div></td></tr><tr><td style="font-weight:bold;vertical-align:top;">status</td><td style="vertical-align:top;">:</td><td><div>200</div></td></tr><tr><td style="font-weight:bold;vertical-align:top;">view</td><td style="vertical-align:top;">:</td><td><div>user/projects.html</div></td></tr></table></div>'
tRp122
sS'locals'
p123
(dp124
S'openprojects'
p125
S'<Query (project.idproject IN (SELECT  openproject.projectid FROM openproject))>'
p126
sS'closedprojects'
p127
S'<Query (project.idproject IN (SELECT  closedproject.openprojectid FROM closedproject))>'
p128
sS'OBJECT'
p129
S"<class 'gluon.html.OBJECT'>"
p130
sS'SQLDB'
p131
S"<class 'gluon.dal.DAL'>"
p132
sg115
S"<Storage {'_formkey[no_table/create]': ['bd82fb83-5806-416a-952a-3bf9d762d691'], 'user': 1L}>"
p133
sS'LINK'
p134
S"<class 'gluon.html.LINK'>"
p135
sS'BR'
p136
S"<class 'gluon.html.BR'>"
p137
sS'local_import'
p138
S'<function <lambda>>'
p139
sS'OPTGROUP'
p140
S"<class 'gluon.html.OPTGROUP'>"
p141
sS'PRE'
p142
S"<class 'gluon.html.PRE'>"
p143
sS'IS_INT_IN_RANGE'
p144
S"<class 'gluon.validators.IS_INT_IN_RANGE'>"
p145
sS'IS_LOWER'
p146
S"<class 'gluon.validators.IS_LOWER'>"
p147
sS'IS_STRONG'
p148
S"<class 'gluon.validators.IS_STRONG'>"
p149
sS'cache'
p150
S'<gluon.cache.Cache object>'
p151
sS'IS_IN_DB'
p152
S"<class 'gluon.validators.IS_IN_DB'>"
p153
sS'TAG'
p154
S'<gluon.html.__TAG__ object>'
p155
sS'categories'
p156
S'<Rows (9)>'
p157
sS'SQLField'
p158
S"<class 'gluon.dal.Field'>"
p159
sS'includeopendate'
p160
S'<Query (project.idproject = openproject.projectid)>'
p161
sS'BODY'
p162
S"<class 'gluon.html.BODY'>"
p163
sS'IS_DATE_IN_RANGE'
p164
S"<class 'gluon.validators.IS_DATE_IN_RANGE'>"
p165
sS'IFRAME'
p166
S"<class 'gluon.html.IFRAME'>"
p167
sS'URL'
p168
S'<function URL>'
p169
sS'__file__'
p170
S"'/Users/james/Documents/Dropbox/Uni/Year 4/iapt/a...b2py/applications/bootup/views/user/projects.html'"
p171
sS'db'
p172
S'<DAL uri="sqlite://bootup.db">'
p173
sS'auth'
p174
S'<__restricted__.BootUpAuth instance>'
p175
sS'P'
S"<class 'gluon.html.P'>"
p176
sS'TFOOT'
p177
S"<class 'gluon.html.TFOOT'>"
p178
sS'XHTML'
p179
S"<class 'gluon.html.XHTML'>"
p180
sS'projects'
p181
S'<Rows (144)>'
p182
sS'ON'
p183
S'True'
p184
sS'OL'
p185
S"<class 'gluon.html.OL'>"
p186
sS'TEXTAREA'
p187
S"<class 'gluon.html.TEXTAREA'>"
p188
sS'MENU'
p189
S"<class 'gluon.html.MENU'>"
p190
sS'H2'
p191
S"<class 'gluon.html.H2'>"
p192
sS'STYLE'
p193
S"<class 'gluon.html.STYLE'>"
p194
sS'IS_IMAGE'
p195
S"<class 'gluon.validators.IS_IMAGE'>"
p196
sS'EM'
p197
S"<class 'gluon.html.EM'>"
p198
sS'CODE'
p199
S"<class 'gluon.html.CODE'>"
p200
sS'HTTP'
p201
S"<class 'gluon.http.HTTP'>"
p202
sS'HR'
p203
S"<class 'gluon.html.HR'>"
p204
sS'IS_DATETIME'
p205
S"<class 'gluon.validators.IS_DATETIME'>"
p206
sS'fundedprojects'
p207
S'<Query (projectstat.funded = 1)>'
p208
sS'LABEL'
p209
S"<class 'gluon.html.LABEL'>"
p210
sS'CLEANUP'
p211
S"<class 'gluon.validators.CLEANUP'>"
p212
sS'SELECT'
p213
S"<class 'gluon.html.SELECT'>"
p214
sS'CENTER'
p215
S"<class 'gluon.html.CENTER'>"
p216
sS'IS_EQUAL_TO'
p217
S"<class 'gluon.validators.IS_EQUAL_TO'>"
p218
sS'HTML'
p219
S"<class 'gluon.html.HTML'>"
p220
sS'SQLFORM'
p221
S"<class 'gluon.sqlhtml.SQLFORM'>"
p222
sS'BootUpAuth'
p223
S'<class __restricted__.BootUpAuth>'
p224
sS'LOAD'
p225
S'<function LOAD>'
p226
sS'redirect'
p227
S'<function redirect>'
p228
sS'FIELDSET'
p229
S"<class 'gluon.html.FIELDSET'>"
p230
sS'__builtins__'
p231
S"{'ArithmeticError': <type 'exceptions.ArithmeticError'>, 'AssertionError': <type 'exceptions.AssertionError'>, 'AttributeError': <type 'exceptions.AttributeError'>, 'BaseException': <type 'exceptions.BaseException'>, 'BufferError': <type 'exceptions.BufferError'>, 'BytesWarning': <type 'exceptions.BytesWarning'>, 'DeprecationWarning': <type 'exceptions.DeprecationWarning'>, 'EOFError': <type 'exceptions.EOFError'>, 'Ellipsis': Ellipsis, 'EnvironmentError': <type 'exceptions.EnvironmentError'>, ...}"
p232
sS'embed64'
p233
S'<function embed64>'
p234
sS'IS_LIST_OF'
p235
S"<class 'gluon.validators.IS_LIST_OF'>"
p236
sS'INPUT'
p237
S"<class 'gluon.html.INPUT'>"
p238
sS'EMBED'
p239
S"<class 'gluon.html.EMBED'>"
p240
sS'searchableprojects'
p241
S'<Query ((project.idproject IN (SELECT  openproje...losedproject.openprojectid FROM closedproject)))>'
p242
sS'H3'
p243
S"<class 'gluon.html.H3'>"
p244
sS'BUTTON'
p245
S"<class 'gluon.html.BUTTON'>"
p246
sS'H1'
p247
S"<class 'gluon.html.H1'>"
p248
sS'H6'
p249
S"<class 'gluon.html.H6'>"
p250
sS'H4'
p251
S"<class 'gluon.html.H4'>"
p252
sS'H5'
p253
S"<class 'gluon.html.H5'>"
p254
sS'UL'
p255
S"<class 'gluon.html.UL'>"
p256
sS'IS_UPPER'
p257
S"<class 'gluon.validators.IS_UPPER'>"
p258
sS'xmlescape'
p259
S'<function xmlescape>'
p260
sS'IS_TIME'
p261
S"<class 'gluon.validators.IS_TIME'>"
p262
sS'OPTION'
p263
S"<class 'gluon.html.OPTION'>"
p264
sS'TITLE'
p265
S"<class 'gluon.html.TITLE'>"
p266
sS'projectstats'
p267
S'<Query (project.idproject = projectstat.idproject)>'
p268
sS'CRYPT'
p269
S"<class 'gluon.validators.CRYPT'>"
p270
sS'IS_EMPTY_OR'
p271
S"<class 'gluon.validators.IS_EMPTY_OR'>"
p272
sS'MARKMIN'
p273
S"<class 'gluon.html.MARKMIN'>"
p274
sS'__name__'
p275
S"'__restricted__'"
p276
sS'STRONG'
p277
S"<class 'gluon.html.STRONG'>"
p278
sS'COL'
p279
S"<class 'gluon.html.COL'>"
p280
sS'IS_EMAIL'
p281
S"<class 'gluon.validators.IS_EMAIL'>"
p282
sS'SCRIPT'
p283
S"<class 'gluon.html.SCRIPT'>"
p284
sS'notstartedprojects'
p285
S'<Query ((NOT (project.idproject IN (SELECT  open...osedproject.openprojectid FROM closedproject))))>'
p286
sS'TABLE'
p287
S"<class 'gluon.html.TABLE'>"
p288
sS'IS_IPV4'
p289
S"<class 'gluon.validators.IS_IPV4'>"
p290
sS'IS_LENGTH'
p291
S"<class 'gluon.validators.IS_LENGTH'>"
p292
sS'IS_IPV6'
p293
S"<class 'gluon.validators.IS_IPV6'>"
p294
sS'XML'
p295
S"<class 'gluon.html.XML'>"
p296
sS'B'
S"<class 'gluon.html.B'>"
p297
sS'IMG'
p298
S"<class 'gluon.html.IMG'>"
p299
sS'SQLTABLE'
p300
S"<class 'gluon.sqlhtml.SQLTABLE'>"
p301
sS'IS_MATCH'
p302
S"<class 'gluon.validators.IS_MATCH'>"
p303
sS'IS_ALPHANUMERIC'
p304
S"<class 'gluon.validators.IS_ALPHANUMERIC'>"
p305
sS'SPAN'
p306
S"<class 'gluon.html.SPAN'>"
p307
sS'IS_JSON'
p308
S"<class 'gluon.validators.IS_JSON'>"
p309
sS'IS_IPADDRESS'
p310
S"<class 'gluon.validators.IS_IPADDRESS'>"
p311
sS'IS_SLUG'
p312
S"<class 'gluon.validators.IS_SLUG'>"
p313
sS'record'
p314
S"<Row {'project': {'idproject': 2L, 'story': 'owq...s': 17.0, 'totalvalue': 20, 'remaining': 100.5}}>"
p315
sS'myprojects'
p316
S'<Query (project.managerid = 1)>'
p317
sS'BEAUTIFY'
p318
S"<class 'gluon.html.BEAUTIFY'>"
p319
sS'META'
p320
S"<class 'gluon.html.META'>"
p321
sS'IS_DATE'
p322
S"<class 'gluon.validators.IS_DATE'>"
p323
sS'menucategory'
p324
S"<Row {'name': 'Technology', 'idcategory': 9L, 'url': 'technology', 'id': 9L}>"
p325
sS'IS_NOT_EMPTY'
p326
S"<class 'gluon.validators.IS_NOT_EMPTY'>"
p327
sS'IS_FLOAT_IN_RANGE'
p328
S"<class 'gluon.validators.IS_FLOAT_IN_RANGE'>"
p329
sS'TBODY'
p330
S"<class 'gluon.html.TBODY'>"
p331
sS'CAT'
p332
S"<class 'gluon.html.CAT'>"
p333
sS'Field'
p334
S"<class 'gluon.dal.Field'>"
p335
sS'IS_LIST_OF_EMAILS'
p336
S"<class 'gluon.validators.IS_LIST_OF_EMAILS'>"
p337
sS'DIV'
p338
S"<class 'gluon.html.DIV'>"
p339
sS'LEGEND'
p340
S"<class 'gluon.html.LEGEND'>"
p341
sS'COLGROUP'
p342
S"<class 'gluon.html.COLGROUP'>"
p343
sS'DAL'
p344
S"<class 'gluon.dal.DAL'>"
p345
sS'ASSIGNJS'
p346
S'<function ASSIGNJS>'
p347
sS'TR'
p348
S"<class 'gluon.html.TR'>"
p349
sS'LI'
p350
S"<class 'gluon.html.LI'>"
p351
sS'TH'
p352
S"<class 'gluon.html.TH'>"
p353
sS'TD'
p354
S"<class 'gluon.html.TD'>"
p355
sS'IS_URL'
p356
S"<class 'gluon.validators.IS_URL'>"
p357
sS'notfundedprojects'
p358
S'<Query (projectstat.funded = 0)>'
p359
sS'A'
S"<class 'gluon.html.A'>"
p360
sS'HEAD'
p361
S"<class 'gluon.html.HEAD'>"
p362
sS'IS_DATETIME_IN_RANGE'
p363
S"<class 'gluon.validators.IS_DATETIME_IN_RANGE'>"
p364
sS'FORM'
p365
S"<class 'gluon.html.FORM'>"
p366
sS'I'
S"<class 'gluon.html.I'>"
p367
sS'IS_NOT_IN_DB'
p368
S"<class 'gluon.validators.IS_NOT_IN_DB'>"
p369
sg121
S"<Storage {'body': <cStringIO.StringO object at 0...> at 0x11809bb18>, 'view': 'user/projects.html'}>"
p370
sS'THEAD'
p371
S"<class 'gluon.html.THEAD'>"
p372
sS'ANY_OF'
p373
S"<class 'gluon.validators.ANY_OF'>"
p374
sS'IS_NULL_OR'
p375
S"<class 'gluon.validators.IS_EMPTY_OR'>"
p376
sg56
S"<Storage {'_vars': None, 'function': 'projects',...ment/web2py-2.9.11/web2py/applications/bootup/'}>"
p377
sS'IS_EXPR'
p378
S"<class 'gluon.validators.IS_EXPR'>"
p379
sS'T'
S'<gluon.languages.translator object>'
p380
sS'IS_IN_SET'
p381
S"<class 'gluon.validators.IS_IN_SET'>"
p382
sS'IS_UPLOAD_FILENAME'
p383
S"<class 'gluon.validators.IS_UPLOAD_FILENAME'>"
p384
sS'TT'
p385
S"<class 'gluon.html.TT'>"
p386
sS'IS_DECIMAL_IN_RANGE'
p387
S"<class 'gluon.validators.IS_DECIMAL_IN_RANGE'>"
p388
sssS'traceback'
p389
S'Traceback (most recent call last):\n  File "/Users/james/Documents/Dropbox/Uni/Year 4/iapt/assessment/web2py-2.9.11/web2py/gluon/restricted.py", line 224, in restricted\n    exec ccode in environment\n  File "/Users/james/Documents/Dropbox/Uni/Year 4/iapt/assessment/web2py-2.9.11/web2py/applications/bootup/views/user/projects.html", line 44, in <module>\nNameError: name \'project\' is not defined\n'
p390
s.