(dp1
S'output'
p2
S"<type 'exceptions.SyntaxError'> define_table argument is not a Field or Table: None"
p3
sS'layer'
p4
S'/Users/james/Documents/Dropbox/Uni/Year 4/iapt/assessment/web2py-2.9.11/web2py/applications/bootup/controllers/reward.py'
p5
sS'code'
p6
S'from applications.bootup.forms.bootupform import BOOTUPFORM\n\n@auth.requires_login\ndef view():\n    projectid = request.args(0)\n\n    if projectid is None:\n        raise HTTP(404,"No project specified")\n\n    project = db(myprojects & (db.project.idproject==projectid)).select(db.project.ALL).first()\n\n    if project is None:\n        raise HTTP(404,"Project does not exist")\n\n    if not project.canedit():\n        raise HTTP(403, "Cannot edit this project")\n\n\n    return dict(project=project)\n\n@auth.requires_login\ndef create():\n    projectid = request.args(0)\n\n    if projectid is None:\n        raise HTTP(404,"No project specified")\n\n    project = db(myprojects & (db.project.idproject==projectid)).select(db.project.ALL).first()\n\n    if project is None:\n        raise HTTP(404,"Project does not exist")\n\n    if not project.canedit():\n        raise HTTP(403, "Cannot edit this project")\n\n\n    record = db.reward(description=\'test\',projectid=projectid)\n    form = SQLFORM.factory(db.reward,record)\n\n    return dict(project=project, form=form)\n\n\n\n\ndef edit():\n    pass\n\ndef delete():\n    pass\n\nresponse._vars=response._caller(create)\n'
p7
sS'snapshot'
p8
(dp9
sS'traceback'
p10
S'Traceback (most recent call last):\n  File "/Users/james/Documents/Dropbox/Uni/Year 4/iapt/assessment/web2py-2.9.11/web2py/gluon/restricted.py", line 224, in restricted\n    exec ccode in environment\n  File "/Users/james/Documents/Dropbox/Uni/Year 4/iapt/assessment/web2py-2.9.11/web2py/applications/bootup/controllers/reward.py", line 51, in <module>\n  File "/Users/james/Documents/Dropbox/Uni/Year 4/iapt/assessment/web2py-2.9.11/web2py/gluon/globals.py", line 392, in <lambda>\n    self._caller = lambda f: f()\n  File "/Users/james/Documents/Dropbox/Uni/Year 4/iapt/assessment/web2py-2.9.11/web2py/applications/bootup/models/auth.py", line 20, in _a\n    return fn()\n  File "/Users/james/Documents/Dropbox/Uni/Year 4/iapt/assessment/web2py-2.9.11/web2py/applications/bootup/controllers/reward.py", line 38, in create\n    form = SQLFORM.factory(db.reward,record)\n  File "/Users/james/Documents/Dropbox/Uni/Year 4/iapt/assessment/web2py-2.9.11/web2py/gluon/sqlhtml.py", line 1729, in factory\n    return SQLFORM(DAL(None).define_table(table_name, *fields),\n  File "/Users/james/Documents/Dropbox/Uni/Year 4/iapt/assessment/web2py-2.9.11/web2py/gluon/dal.py", line 8414, in define_table\n    table = self.lazy_define_table(tablename, *fields, **args)\n  File "/Users/james/Documents/Dropbox/Uni/Year 4/iapt/assessment/web2py-2.9.11/web2py/gluon/dal.py", line 8430, in lazy_define_table\n    table = table_class(self, tablename, *fields, **args)\n  File "/Users/james/Documents/Dropbox/Uni/Year 4/iapt/assessment/web2py-2.9.11/web2py/gluon/dal.py", line 8923, in __init__\n    \'define_table argument is not a Field or Table: %s\' % field)\nSyntaxError: define_table argument is not a Field or Table: None\n'
p11
s.