(dp1
S'output'
p2
S"<type 'exceptions.AttributeError'> 'Table' object has no attribute 'owner'"
p3
sS'layer'
p4
S'/Users/james/Documents/Dropbox/Uni/Year 4/iapt/assessment/web2py-2.9.11/web2py/applications/bootup/models/db.py'
p5
sS'code'
p6
S'from itertools import groupby\n\ndb = DAL(\'sqlite://bootup.db\',pool_size=1,check_reserved=[\'sqlite\'],migrate=False)\nauth = BootUpAuth(db)\n\ndb.define_table(\'category\',\n                Field(\'idcategory\',type=\'id\'),\n                Field(\'name\'),\n                Field(\'url\'))\n\n\ndb.define_table(\'user\',\n                Field(\'iduser\', type=\'id\', readable=False, writable=False, default=None),\n                Field(\'realname\',label=\'Name\', requires=[\n                    IS_LENGTH(minsize=1, error_message=\'Please enter your name\'),\n                    IS_LENGTH(maxsize=200, error_message=\'Please enter a shorter name\'),\n\n                ]),\n                Field(\'username\',label=\'Username\',requires=[\n                    IS_LENGTH(minsize=1, error_message=\'Please choose a username\'),\n                    IS_LENGTH(maxsize=60, error_message=\'Please chose a shorter username\'),\n                    IS_NOT_IN_DB(db,\'user.username\',error_message="Username is already taken")\n                ]),\n                Field(\'dateofbirth\',type=\'date\', label=\'Date of Birth\', requires=[\n                    IS_DATE(error_message=\'Please enter a date\'),\n                    #IS_DATE_IN_RANGE(error_message=\'Please enter a date in the recent past\')\n                ]),\n                Field.Method(\'age\', lambda row: request.now.year-row.dateofbirth.year\n                    if (request.now.month, request.now.day) >= (row.dateofbirth.month, row.dateofbirth.day) else\n                    request.now.year-row.dateofbirth.year-1),\n                Field.Method(\'expectedrewards\', lambda row: groupby(\n                    db(\n                        (db.expectedrewards.userid==row.user.iduser) &\n                        (db.expectedrewards.projectid==db.project.idproject) &\n                        (db.pledge.idpledge==db.expectedrewards.pledgeid) &\n                        projectstats)\n                    .select(db.expectedrewards.ALL,\n                            db.project.ALL,\n                            db.projectstat.ALL,\n                            db.pledge.ALL\n\n                            ),\n                    key=lambda item:item.project.idproject))\n)\n\n\n#As primary key is a reference to user, the type=\'id\' parameter cannot be set, use the primarykey= kwarg instead\ndb.define_table(\'credential\',\n                Field(\'userid\',type=\'reference user\', readable=False,writable=False),\n                Field(\'passwordhash\', writable=False, readable=False),\n                Field(\'passwordsalt\', writable=False, readable=False),\n                primarykey=[\'userid\']\n    )\n\n\n#There is a limitation with web2py that type=\'id\' only supports integer types,\n#as country code is a string, the primary key must be defined using the primarykey kwarg\ndb.define_table(\'country\',\n                Field(\'code\'),\n                Field(\'name\'),\n                primarykey=[\'code\'])\n\n\n#had to remove explicit reference to country code as for some reason web2py restricts all references to be numeric\n#to maintain constraint, the IS_IN_DB validator is used\ndb.define_table(\'address\',\n                Field(\'idaddress\',type=\'id\', readable=False, writable=False),\n                Field(\'street\', label=\'Street\', requires=[\n                    IS_LENGTH(minsize=1, error_message=\'Please enter your street address\'),\n                    IS_LENGTH(maxsize=100, error_message=\'Please enter a shorter street address\')\n                ]),\n                Field(\'city\', label=\'City\', requires=[\n                    IS_LENGTH(minsize=1, error_message=\'Please enter your city\'),\n                    IS_LENGTH(maxsize=100, error_message=\'Please enter a shorter city name\')\n                ]),\n                Field(\'postcode\', label=\'Post Code\', requires=[\n                    IS_MATCH(\'[a-zA-Z0-9]{4} [a-zA-Z0-9]{3}\',error_message=\'Postcode must be in the format XXXX XXX\')\n                ]),\n                Field(\'countrycode\',type=\'string\', requires=IS_IN_DB(db, db.country.code,\'%(name)s\',\n                                   zero=\'Select A Country\',\n                                   error_message=\'Please choose your country\'\n                                   )),\n                Field(\'userid\',type=\'reference user\',\n                      requires=IS_IN_DB(db,db.user.iduser),\n                      readable=False, writable=False)\n    )\n\n\n\n\n\n\n\ndb.define_table(\'project\',\n                Field(\'idproject\',type=\'id\',readable=False,writable=False),\n                Field(\'title\',\n                      type=\'string\',\n                      label=\'Project Name\',\n                      requires= [\n                        IS_LENGTH(60,error_message=\'Project title must be shorter than 60 characters\'),\n                        IS_NOT_EMPTY(error_message=\'Project must have a title\')\n                      ]),\n\n                Field(\'shortdescription\',\n                      label=\'Quick Summary\',\n                      type=\'text\',\n                      requires=[\n                          IS_LENGTH(120, error_message=\'Project summary must be shorter than 120 characters\'),\n                          IS_NOT_EMPTY(error_message=\'Project summary must be filled in\')\n                      ]),\n\n                Field(\'longdescription\',\n                      label=\'Description\',\n                      type=\'text\',\n                      requires=[\n                            IS_NOT_EMPTY(error_message=\'Project description must be filled in\')\n                      ]),\n\n                Field(\'story\',\n                      label=\'Project Story\',\n                      type=\'text\',\n                      requires=[\n                          IS_NOT_EMPTY(error_message=\'Project story must be filled in\')\n                      ]),\n\n                Field(\'goal\',\n                      label=\'Funding Goal\',\n                      type=\'decimal(10,2)\',\n                      requires=[\n                          IS_DECIMAL_IN_RANGE(minimum=100,error_message="Please enter a project goal greater than &pound;100"),\n                          IS_DECIMAL_IN_RANGE(maximum=10**8,error_message="Your project goal is too optimistic. Please chose a lower goal"),\n                                ]),\n\n                Field(\'categoryid\',\n                      type=\'reference category\',\n                      label=\'Category\',\n                      requires=IS_IN_DB(db, db.category.idcategory,\'%(name)s\',\n                                   zero=\'Select A Category\',\n                                   error_message=\'Please choose a category\'\n                                   )\n                ),\n\n                Field(\'managerid\',\n                      type=\'reference user\',\n                      requires=IS_IN_DB(db,db.user.iduser),\n                      default=auth.user_id,\n                      readable=False,\n                      writable=False\n                      ),\n\n                Field(\'imageurl\',type=\'upload\',label="Project Image",autodelete=True,required=[\n                    IS_IMAGE(error_message="File must be image"),\n                    IS_NOT_EMPTY(error_message="Please choose an image")]),\n\n                Field.Method(\'canopen\', lambda row:  auth.user_id==row.project.managerid and db(db.openproject.projectid==row.project.idproject).count()==0),\n                Field.Method(\'canclose\', lambda row: auth.user_id==row.project.managerid and db(db.openproject.projectid==row.project.idproject).count()==1 and db(db.closedproject.openprojectid==row.project.idproject).count()==0),\n                Field.Method(\'candelete\', lambda row: auth.user_id==row.project.managerid and (db(db.openproject.projectid==row.project.idproject).count()==0 or db(db.closedproject.openprojectid==row.project.idproject).count()==1)),\n                Field.Method(\'canedit\', lambda row: auth.user_id==row.project.managerid and db(db.openproject.projectid==row.project.idproject).count()==0),\n                Field.Method(\'canpledge\', lambda row: row.project.isopen() and not row.project.isclosed()),\n\n                Field.Method(\'isopen\', lambda row: db(db.openproject.projectid==row.project.idproject).count()>0),\n                Field.Method(\'isclosed\', lambda row: db(db.closedproject.openprojectid==row.project.idproject).count()>0),\n\n\n                Field.Method(\'hascontributed\', lambda row: db((db.booting.openprojectid==row.project.idproject) & (db.booting.userid == auth.user_id)).count() > 0),\n                Field.Method(\'pledges\', lambda row: db((db.pledge.projectid==row.project.idproject) & pledgestats).select(db.pledge.ALL,db.pledgestat.ALL, orderby=db.pledge.value)),\n                Field.Method(\'expectedrewards\', lambda row:  groupby(db((db.expectedrewards.projectid==row.project.idproject) & (db.user.id==db.expectedrewards.userid)).select(db.expectedrewards.ALL,db.user.ALL),key=lambda item:item.user.username)),\n                Field.Method(\'rewards\',lambda row: db(db.reward.projectid==row.project.idproject).select())\n)\n\ndb.define_table(\'reward\',\n                Field(\'idreward\',type=\'id\', readable=False, writable=False, default=None),\n                Field(\'description\',type=\'text\',requires=[\n                    IS_LENGTH(minsize=1,error_message=\'Please enter a description\'),\n                    IS_LENGTH(maxsize=120, error_message=\'Maximum length of pledge description is 120 characters\')\n                ]),\n                Field(\'projectid\', type=\'reference project\', requires=IS_IN_DB(db,db.project.idproject),readable=False,writable=False))\n\n\n\ndb.define_table(\'pledge\',\n                Field(\'idpledge\', type=\'id\', readable=False, writable=False, default=None),\n                Field(\'description\',type=\'text\',requires=[\n                    IS_LENGTH(minsize=1,error_message=\'Please enter a description\'),\n                    IS_LENGTH(maxsize=60, error_message=\'Maximum length of pledge description is 60 characters\')\n                ]),\n                Field(\'value\',type=\'decimal(10,2)\',requires=[\n                    IS_DECIMAL_IN_RANGE(minimum=1, error_message=\'Please enter a suitable value for this pledge level\'),\n                    IS_DECIMAL_IN_RANGE(maximum=10000, error_message=\'The chosen pledge value is too high. Crowd funding relies on lots of people pledging small amounts. Why not choose something a bit lower?\')\n                ]),\n                Field(\'projectid\', type=\'reference project\', label=\'Project\',writable=False, readable=False, requires=IS_IN_DB(db,db.project.idproject)),\n                Field.Method(\'rewards\',lambda row:\n                    db((db.rewardpledge.pledgeid==row.pledge.idpledge)&(db.reward.idreward==db.rewardpledge.rewardid)).select(db.reward.ALL)),\n                Field.Method(\'rewardids\',lambda row: map(lambda r: r.rewardid, db((db.rewardpledge.pledgeid==row.pledge.idpledge)).select(db.rewardpledge.rewardid))))\n\n\n\n#CAVEAT\n#the rewardid and pledgeid fields originally were set to reference the reward and pledge tables. however, web2py is unable\n#to handle a deletion from these tables as it attempts to do the job of the database and cascade the deletion, however as\n#rewardpledge is a weak entity and doesn\'t have a single value as the primary key, web2py borks and is unable to delete\n#a pledge or reward\n#\n#the referential integrity is maintained by the database in this instance. as web2py is not generating the DDL\n#(migrations=False is set), this isn\'t an issue\n#i hate web2py\n\ndb.define_table(\'rewardpledge\',\n                Field(\'rewardid\',type=\'integer\', requires=IS_IN_DB(db,db.reward.idreward,\'%(description)s\')),\n                Field(\'pledgeid\',type=\'integer\', requires=IS_IN_DB(db,db.pledge.idpledge,\'\xc2\xa3%(value)s %(description)s\')),\n                Field.Method(\'rawdelete\',lambda row: db.executesql(\'DELETE FROM rewardpledge WHERE rewardid={0} AND pledgeid={1}\'.format(row.rewardpledge.rewardid,row.rewardpledge.pledgeid))),\n                primarykey=[\'rewardid\',\'pledgeid\'])\n\n\ndb.define_table(\'pledgestat\',\n                Field(\'idpledge\',type=\'id\'),\n                Field(\'projectid\',type=\'integer\'),\n                Field(\'value\',type=\'decimal(10,2)\'),\n                Field(\'pledgecount\',type=\'integer\'),\n                Field(\'totalvalue\',type=\'decimal(10,2)\'))\n\ndb.define_table(\'expectedrewards\',\n                Field(\'userid\',type=\'integer\'),\n                Field(\'projectid\',type=\'integer\'),\n                Field(\'rewardid\',type=\'integer\'),\n                Field(\'pledgeid\',type=\'integer\'),\n                Field(\'rewarddescription\'),\n                Field(\'pledgedescription\'),\n                Field(\'value\',type=\'decimal(10,2)\'),\n                primarykey=[\'userid\',\'projectid\'])\n\ndb.define_table(\'openproject\',\n                Field(\'projectid\', type=\'reference project\', requires=IS_IN_DB(db,db.project.idproject)),\n                Field(\'opendate\', type=\'datetime\', default=request.now),\n                primarykey=[\'projectid\'])\n\ndb.define_table(\'closedproject\',\n                Field(\'openprojectid\', type=\'reference openproject\', requires=IS_IN_DB(db,db.openproject.projectid)),\n                Field(\'closeddate\',type=\'datetime\', default=request.now),\n                primarykey=[\'openprojectid\'])\n\ndef my_string_widget(field, value):\n    monthvals =map(lambda val: str(val).zfill(2),range(1,12+1))\n    yearvals = map(lambda val: str(val)[2:], range(request.now.year,request.now.year+7))\n\n\n    if value is not None:\n        value = datetime.strptime(value,\'%Y-%m-%d\').date()\n        monthvals.insert(0,str(value.month).zfill(2))\n        yearvals.insert(0,str(value.year)[2:])\n\n\n    return DIV(SELECT(monthvals,_name=field.name+"_month"),SELECT(yearvals,_name=field.name+"_year"))\n\ndb.define_table(\'card\',\n                Field(\'idcard\',type=\'id\', readable=False,writable=False, default= None),\n                Field(\'user\', default=auth.user_id, readable=False,writable=False),\n                Field(\'number\', type=\'string\',label=\'Card Number\',requires=[IS_LENGTH(maxsize=12, minsize=12, error_message=\'Credit Card number must be 12 digits long\')]),\n                Field(\'expdate\',type=\'date\',label=\'Expiry Date\',widget=my_string_widget),\n                Field(\'billingaddress\',  type=\'reference address\', label=\'Billing Address\',\n                      requires=IS_IN_DB(db(db.address.owner==auth.user_id),\n                                        db.address.idaddress,\'%(owner)s %(street)s, %(city)s, %(postcode)s\',\n                                   zero=\'Select an address\',\n                                   error_message=\'Please choose your billing address\'\n                                   )),\n\n                migrate=False)\n\n\n\ndb.define_table(\'projectstat\',\n                Field(\'idproject\', type=\'id\'),\n                Field(\'goal\',type=\'decimal(10,2)\'),\n                Field(\'progress\', type=\'integer\'),\n                Field(\'funded\',type=\'integer\'),\n                Field(\'bootings\'),\n                Field(\'totalvalue\',type=\'decimal(10,2)\'),\n                Field(\'remaining\',type=\'decimal(10,2)\')\n                )\n\ndb.define_table(\'booting\',\n                Field(\'idbooting\',type=\'id\'),\n                Field(\'userid\', type=\'integer\',default=auth.user_id,readable=False,writable=False),\n                Field(\'openprojectid\',type=\'integer\',readable=False,writable=False),\n                Field(\'pledgeid\',type=\'integer\',readable=False,writable=False),\n                Field(\'address\',type=\'integer\',requires=IS_IN_DB(db(db.address.userid==auth.user_id),db.address.idaddress,\'%(street)s\',zero=\'Select Delivery Address\')),\n                Field(\'card\',type=\'integer\',requires=IS_IN_DB(db(db.card.userid==auth.user_id),db.card.idcard,\'%(number)s\',zero=\'Select Payment Card\')))\n\n\n\nmyprojects = (db.project.managerid == auth.user_id)\n\nclosedprojects  = (db.project.idproject.belongs(db()._select(db.closedproject.openprojectid)))\nopenprojects    = (db.project.idproject.belongs(db()._select(db.openproject.projectid)))\n\n\nincludeopendate = (db.project.idproject==db.openproject.projectid)\n\nnotstartedprojects = (~openprojects & ~closedprojects)\n\nprojectstats = (db.project.idproject == db.projectstat.idproject)\npledgestats = (db.pledge.idpledge == db.pledgestat.idpledge)\nfundedprojects = (db.projectstat.funded==1)\nnotfundedprojects = (db.projectstat.funded==0)\n\nsearchableprojects = (openprojects | closedprojects)\n'
p7
sS'snapshot'
p8
(dp9
S'exception'
p10
(dp11
S'__hash__'
p12
S"<method-wrapper '__hash__' of exceptions.AttributeError object>"
p13
sS'__setattr__'
p14
S"<method-wrapper '__setattr__' of exceptions.AttributeError object>"
p15
sS'__reduce_ex__'
p16
S'<built-in method __reduce_ex__ of exceptions.AttributeError object>'
p17
sS'__getslice__'
p18
S"<method-wrapper '__getslice__' of exceptions.AttributeError object>"
p19
sS'__getitem__'
p20
S"<method-wrapper '__getitem__' of exceptions.AttributeError object>"
p21
sS'__setstate__'
p22
S'<built-in method __setstate__ of exceptions.AttributeError object>'
p23
sS'args'
p24
S'("\'Table\' object has no attribute \'owner\'",)'
p25
sS'__reduce__'
p26
S'<built-in method __reduce__ of exceptions.AttributeError object>'
p27
sS'__str__'
p28
S"<method-wrapper '__str__' of exceptions.AttributeError object>"
p29
sS'__format__'
p30
S'<built-in method __format__ of exceptions.AttributeError object>'
p31
sS'__getattribute__'
p32
S"<method-wrapper '__getattribute__' of exceptions.AttributeError object>"
p33
sS'__class__'
p34
S"<type 'exceptions.AttributeError'>"
p35
sS'__unicode__'
p36
S'<built-in method __unicode__ of exceptions.AttributeError object>'
p37
sS'__delattr__'
p38
S"<method-wrapper '__delattr__' of exceptions.AttributeError object>"
p39
sS'__subclasshook__'
p40
S'<built-in method __subclasshook__ of type object>'
p41
sS'__repr__'
p42
S"<method-wrapper '__repr__' of exceptions.AttributeError object>"
p43
sS'__dict__'
p44
S'{}'
p45
sS'__sizeof__'
p46
S'<built-in method __sizeof__ of exceptions.AttributeError object>'
p47
sS'__doc__'
p48
S"'Attribute not found.'"
p49
sS'__init__'
p50
S"<method-wrapper '__init__' of exceptions.AttributeError object>"
p51
sS'__new__'
p52
S'<built-in method __new__ of type object>'
p53
ssS'evalue'
p54
S"'Table' object has no attribute 'owner'"
p55
sS'request'
p56
cgluon.html
XML_unpickle
p57
(S'st^\x00\x00<div><table><tr><td style="font-weight:bold;vertical-align:top;">ajax</td><td style="vertical-align:top;">:</td><td><div>False</div></td></tr><tr><td style="font-weight:bold;vertical-align:top;">application</td><td style="vertical-align:top;">:</td><td><div>bootup</div></td></tr><tr><td style="font-weight:bold;vertical-align:top;">args</td><td style="vertical-align:top;">:</td><td><div><table><tr><td><div>2</div></td></tr></table></div></td></tr><tr><td style="font-weight:bold;vertical-align:top;">cid</td><td style="vertical-align:top;">:</td><td><div>None</div></td></tr><tr><td style="font-weight:bold;vertical-align:top;">client</td><td style="vertical-align:top;">:</td><td><div>127.0.0.1</div></td></tr><tr><td style="font-weight:bold;vertical-align:top;">controller</td><td style="vertical-align:top;">:</td><td><div>pledge</div></td></tr><tr><td style="font-weight:bold;vertical-align:top;">cookies</td><td style="vertical-align:top;">:</td><td><div><table><tr><td style="font-weight:bold;vertical-align:top;">session_id_admin</td><td style="vertical-align:top;">:</td><td><div>127.0.0.1-d9c35767-bbb7-432a-9354-205be0917d1e<table><tr><td style="font-weight:bold;vertical-align:top;">comment</td><td style="vertical-align:top;">:</td><td><div></div></td></tr><tr><td style="font-weight:bold;vertical-align:top;">domain</td><td style="vertical-align:top;">:</td><td><div></div></td></tr><tr><td style="font-weight:bold;vertical-align:top;">expires</td><td style="vertical-align:top;">:</td><td><div></div></td></tr><tr><td style="font-weight:bold;vertical-align:top;">httponly</td><td style="vertical-align:top;">:</td><td><div></div></td></tr><tr><td style="font-weight:bold;vertical-align:top;">max-age</td><td style="vertical-align:top;">:</td><td><div></div></td></tr><tr><td style="font-weight:bold;vertical-align:top;">path</td><td style="vertical-align:top;">:</td><td><div></div></td></tr><tr><td style="font-weight:bold;vertical-align:top;">secure</td><td style="vertical-align:top;">:</td><td><div></div></td></tr><tr><td style="font-weight:bold;vertical-align:top;">version</td><td style="vertical-align:top;">:</td><td><div></div></td></tr></table></div></td></tr><tr><td style="font-weight:bold;vertical-align:top;">session_id_bootup</td><td style="vertical-align:top;">:</td><td><div>127.0.0.1-1df8b906-85be-4427-aa82-8ca4bec859ca<table><tr><td style="font-weight:bold;vertical-align:top;">comment</td><td style="vertical-align:top;">:</td><td><div></div></td></tr><tr><td style="font-weight:bold;vertical-align:top;">domain</td><td style="vertical-align:top;">:</td><td><div></div></td></tr><tr><td style="font-weight:bold;vertical-align:top;">expires</td><td style="vertical-align:top;">:</td><td><div></div></td></tr><tr><td style="font-weight:bold;vertical-align:top;">httponly</td><td style="vertical-align:top;">:</td><td><div></div></td></tr><tr><td style="font-weight:bold;vertical-align:top;">max-age</td><td style="vertical-align:top;">:</td><td><div></div></td></tr><tr><td style="font-weight:bold;vertical-align:top;">path</td><td style="vertical-align:top;">:</td><td><div></div></td></tr><tr><td style="font-weight:bold;vertical-align:top;">secure</td><td style="vertical-align:top;">:</td><td><div></div></td></tr><tr><td style="font-weight:bold;vertical-align:top;">version</td><td style="vertical-align:top;">:</td><td><div></div></td></tr></table></div></td></tr><tr><td style="font-weight:bold;vertical-align:top;">session_id_test</td><td style="vertical-align:top;">:</td><td><div>127.0.0.1-828bfb30-9d54-4ab5-a9f7-069b81aa7ef1<table><tr><td style="font-weight:bold;vertical-align:top;">comment</td><td style="vertical-align:top;">:</td><td><div></div></td></tr><tr><td style="font-weight:bold;vertical-align:top;">domain</td><td style="vertical-align:top;">:</td><td><div></div></td></tr><tr><td style="font-weight:bold;vertical-align:top;">expires</td><td style="vertical-align:top;">:</td><td><div></div></td></tr><tr><td style="font-weight:bold;vertical-align:top;">httponly</td><td style="vertical-align:top;">:</td><td><div></div></td></tr><tr><td style="font-weight:bold;vertical-align:top;">max-age</td><td style="vertical-align:top;">:</td><td><div></div></td></tr><tr><td style="font-weight:bold;vertical-align:top;">path</td><td style="vertical-align:top;">:</td><td><div></div></td></tr><tr><td style="font-weight:bold;vertical-align:top;">secure</td><td style="vertical-align:top;">:</td><td><div></div></td></tr><tr><td style="font-weight:bold;vertical-align:top;">version</td><td style="vertical-align:top;">:</td><td><div></div></td></tr></table></div></td></tr></table></div></td></tr><tr><td style="font-weight:bold;vertical-align:top;">env</td><td style="vertical-align:top;">:</td><td><div><table><tr><td style="font-weight:bold;vertical-align:top;">HTTP_ACCEPT</td><td style="vertical-align:top;">:</td><td><div>text/html,application/xhtml+xml,application/xml;q=0.9,image/webp,*/*;q=0.8</div></td></tr><tr><td style="font-weight:bold;vertical-align:top;">HTTP_ACCEPT_ENCODING</td><td style="vertical-align:top;">:</td><td><div>gzip,deflate,sdch</div></td></tr><tr><td style="font-weight:bold;vertical-align:top;">HTTP_ACCEPT_LANGUAGE</td><td style="vertical-align:top;">:</td><td><div>en-US,en;q=0.8</div></td></tr><tr><td style="font-weight:bold;vertical-align:top;">HTTP_CACHE_CONTROL</td><td style="vertical-align:top;">:</td><td><div>max-age=0</div></td></tr><tr><td style="font-weight:bold;vertical-align:top;">HTTP_CONNECTION</td><td style="vertical-align:top;">:</td><td><div>keep-alive</div></td></tr><tr><td style="font-weight:bold;vertical-align:top;">HTTP_COOKIE</td><td style="vertical-align:top;">:</td><td><div>session_id_test=127.0.0.1-828bfb30-9d54-4ab5-a9f7-069b81aa7ef1; session_id_bootup=127.0.0.1-1df8b906-85be-4427-aa82-8ca4bec859ca; session_id_admin=127.0.0.1-d9c35767-bbb7-432a-9354-205be0917d1e</div></td></tr><tr><td style="font-weight:bold;vertical-align:top;">HTTP_HOST</td><td style="vertical-align:top;">:</td><td><div>127.0.0.1:8000</div></td></tr><tr><td style="font-weight:bold;vertical-align:top;">HTTP_USER_AGENT</td><td style="vertical-align:top;">:</td><td><div>Mozilla/5.0 (Macintosh; Intel Mac OS X 10_9_4) AppleWebKit/537.36 (KHTML, like Gecko) Chrome/38.0.2125.122 Safari/537.36</div></td></tr><tr><td style="font-weight:bold;vertical-align:top;">PATH_INFO</td><td style="vertical-align:top;">:</td><td><div>/bootup/pledge/make/2</div></td></tr><tr><td style="font-weight:bold;vertical-align:top;">QUERY_STRING</td><td style="vertical-align:top;">:</td><td><div></div></td></tr><tr><td style="font-weight:bold;vertical-align:top;">REMOTE_ADDR</td><td style="vertical-align:top;">:</td><td><div>127.0.0.1</div></td></tr><tr><td style="font-weight:bold;vertical-align:top;">REMOTE_PORT</td><td style="vertical-align:top;">:</td><td><div>58567</div></td></tr><tr><td style="font-weight:bold;vertical-align:top;">REQUEST_METHOD</td><td style="vertical-align:top;">:</td><td><div>GET</div></td></tr><tr><td style="font-weight:bold;vertical-align:top;">SCRIPT_NAME</td><td style="vertical-align:top;">:</td><td><div></div></td></tr><tr><td style="font-weight:bold;vertical-align:top;">SERVER_NAME</td><td style="vertical-align:top;">:</td><td><div>nas10-240-51-102.york.ac.uk</div></td></tr><tr><td style="font-weight:bold;vertical-align:top;">SERVER_PORT</td><td style="vertical-align:top;">:</td><td><div>8000</div></td></tr><tr><td style="font-weight:bold;vertical-align:top;">SERVER_PROTOCOL</td><td style="vertical-align:top;">:</td><td><div>HTTP/1.1</div></td></tr><tr><td style="font-weight:bold;vertical-align:top;">SERVER_SOFTWARE</td><td style="vertical-align:top;">:</td><td><div>Rocket 1.2.6</div></td></tr><tr><td style="font-weight:bold;vertical-align:top;">app_folders</td><td style="vertical-align:top;">:</td><td><div>set([&#x27;/Users/james/Documents/Dropbox/Uni/Year 4/iapt/assessment/web2py-2.9.11/web2py/applications/test/&#x27;, &#x27;/Users/james/Documents/Dropbox/Uni/Year 4/iapt/assessment/web2py-2.9.11/web2py/applications/admin/&#x27;, &#x27;/Users/james/Documents/Dropbox/Uni/Year 4/iapt/assessment/web2py-2.9.11/web2py/applications/bootup/&#x27;])</div></td></tr><tr><td style="font-weight:bold;vertical-align:top;">applications_parent</td><td style="vertical-align:top;">:</td><td><div>/Users/james/Documents/Dropbox/Uni/Year 4/iapt/assessment/web2py-2.9.11/web2py</div></td></tr><tr><td style="font-weight:bold;vertical-align:top;">cmd_args</td><td style="vertical-align:top;">:</td><td><div><table></table></div></td></tr><tr><td style="font-weight:bold;vertical-align:top;">cmd_options</td><td style="vertical-align:top;">:</td><td><div>&lt;Values at 0x10a2ca2d8: {&#x27;verbose&#x27;: False, &#x27;ip&#x27;: &#x27;127.0.0.1&#x27;, &#x27;debuglevel&#x27;: 30, &#x27;with_scheduler&#x27;: False, &#x27;ips&#x27;: [&#x27;10.240.51.102&#x27;], &#x27;shutdown_timeout&#x27;: 5, &#x27;taskbar&#x27;: False, &#x27;with_coverage&#x27;: False, &#x27;scheduler_groups&#x27;: None, &#x27;port&#x27;: 8000, &#x27;maxthreads&#x27;: None, &#x27;softcron&#x27;: False, &#x27;server_name&#x27;: &#x27;nas10-240-51-102.york.ac.uk&#x27;, &#x27;bpython&#x27;: False, &#x27;nogui&#x27;: False, &#x27;pid_filename&#x27;: &#x27;httpserver.pid&#x27;, &#x27;extcron&#x27;: False, &#x27;runcron&#x27;: False, &#x27;run_system_tests&#x27;: False, &#x27;test&#x27;: None, &#x27;folder&#x27;: &#x27;/Users/james/Documents/Dropbox/Uni/Year 4/iapt/assessment/web2py-2.9.11/web2py&#x27;, &#x27;config&#x27;: &#x27;&#x27;, &#x27;minthreads&#x27;: None, &#x27;shell&#x27;: None, &#x27;run&#x27;: &#x27;&#x27;, &#x27;log_filename&#x27;: &#x27;httpserver.log&#x27;, &#x27;profiler_dir&#x27;: None, &#x27;args&#x27;: [&#x27;&#x27;], &#x27;socket_timeout&#x27;: 5, &#x27;ssl_ca_certificate&#x27;: None, &#x27;scheduler&#x27;: None, &#x27;interfaces&#x27;: None, &#x27;ssl_private_key&#x27;: &#x27;&#x27;, &#x27;gae&#x27;: None, &#x27;password&#x27;: &#x27;&lt;ask&gt;&#x27;, &#x27;request_queue_size&#x27;: 5, &#x27;ssl_certificate&#x27;: &#x27;&#x27;, &#x27;cronjob&#x27;: False, &#x27;numthreads&#x27;: None, &#x27;quiet&#x27;: False, &#x27;import_models&#x27;: False, &#x27;timeout&#x27;: 10, &#x27;plain&#x27;: False, &#x27;nobanner&#x27;: False}&gt;</div></td></tr><tr><td style="font-weight:bold;vertical-align:top;">db_sessions</td><td style="vertical-align:top;">:</td><td><div>set([])</div></td></tr><tr><td style="font-weight:bold;vertical-align:top;">debugging</td><td style="vertical-align:top;">:</td><td><div>True</div></td></tr><tr><td style="font-weight:bold;vertical-align:top;">gluon_parent</td><td style="vertical-align:top;">:</td><td><div>/Users/james/Documents/Dropbox/Uni/Year 4/iapt/assessment/web2py-2.9.11/web2py</div></td></tr><tr><td style="font-weight:bold;vertical-align:top;">http_accept</td><td style="vertical-align:top;">:</td><td><div>text/html,application/xhtml+xml,application/xml;q=0.9,image/webp,*/*;q=0.8</div></td></tr><tr><td style="font-weight:bold;vertical-align:top;">http_accept_encoding</td><td style="vertical-align:top;">:</td><td><div>gzip,deflate,sdch</div></td></tr><tr><td style="font-weight:bold;vertical-align:top;">http_accept_language</td><td style="vertical-align:top;">:</td><td><div>en-US,en;q=0.8</div></td></tr><tr><td style="font-weight:bold;vertical-align:top;">http_cache_control</td><td style="vertical-align:top;">:</td><td><div>max-age=0</div></td></tr><tr><td style="font-weight:bold;vertical-align:top;">http_connection</td><td style="vertical-align:top;">:</td><td><div>keep-alive</div></td></tr><tr><td style="font-weight:bold;vertical-align:top;">http_cookie</td><td style="vertical-align:top;">:</td><td><div>session_id_test=127.0.0.1-828bfb30-9d54-4ab5-a9f7-069b81aa7ef1; session_id_bootup=127.0.0.1-1df8b906-85be-4427-aa82-8ca4bec859ca; session_id_admin=127.0.0.1-d9c35767-bbb7-432a-9354-205be0917d1e</div></td></tr><tr><td style="font-weight:bold;vertical-align:top;">http_host</td><td style="vertical-align:top;">:</td><td><div>127.0.0.1:8000</div></td></tr><tr><td style="font-weight:bold;vertical-align:top;">http_user_agent</td><td style="vertical-align:top;">:</td><td><div>Mozilla/5.0 (Macintosh; Intel Mac OS X 10_9_4) AppleWebKit/537.36 (KHTML, like Gecko) Chrome/38.0.2125.122 Safari/537.36</div></td></tr><tr><td style="font-weight:bold;vertical-align:top;">is_jython</td><td style="vertical-align:top;">:</td><td><div>False</div></td></tr><tr><td style="font-weight:bold;vertical-align:top;">is_pypy</td><td style="vertical-align:top;">:</td><td><div>False</div></td></tr><tr><td style="font-weight:bold;vertical-align:top;">is_source</td><td style="vertical-align:top;">:</td><td><div>True</div></td></tr><tr><td style="font-weight:bold;vertical-align:top;">local_hosts</td><td style="vertical-align:top;">:</td><td><div><table><tr><td><div>10.240.51.102</div></td></tr><tr><td><div>::1</div></td></tr><tr><td><div>::ffff:127.0.0.1</div></td></tr><tr><td><div>127.0.0.1</div></td></tr><tr><td><div>nas10-240-51-102.york.ac.uk</div></td></tr></table></div></td></tr><tr><td style="font-weight:bold;vertical-align:top;">path_info</td><td style="vertical-align:top;">:</td><td><div>/bootup/pledge/make/2</div></td></tr><tr><td style="font-weight:bold;vertical-align:top;">query_string</td><td style="vertical-align:top;">:</td><td><div></div></td></tr><tr><td style="font-weight:bold;vertical-align:top;">remote_addr</td><td style="vertical-align:top;">:</td><td><div>127.0.0.1</div></td></tr><tr><td style="font-weight:bold;vertical-align:top;">remote_port</td><td style="vertical-align:top;">:</td><td><div>58567</div></td></tr><tr><td style="font-weight:bold;vertical-align:top;">request_method</td><td style="vertical-align:top;">:</td><td><div>GET</div></td></tr><tr><td style="font-weight:bold;vertical-align:top;">request_uri</td><td style="vertical-align:top;">:</td><td><div>/bootup/pledge/make/2</div></td></tr><tr><td style="font-weight:bold;vertical-align:top;">script_name</td><td style="vertical-align:top;">:</td><td><div></div></td></tr><tr><td style="font-weight:bold;vertical-align:top;">server_name</td><td style="vertical-align:top;">:</td><td><div>nas10-240-51-102.york.ac.uk</div></td></tr><tr><td style="font-weight:bold;vertical-align:top;">server_port</td><td style="vertical-align:top;">:</td><td><div>8000</div></td></tr><tr><td style="font-weight:bold;vertical-align:top;">server_protocol</td><td style="vertical-align:top;">:</td><td><div>HTTP/1.1</div></td></tr><tr><td style="font-weight:bold;vertical-align:top;">server_software</td><td style="vertical-align:top;">:</td><td><div>Rocket 1.2.6</div></td></tr><tr><td style="font-weight:bold;vertical-align:top;">web2py_path</td><td style="vertical-align:top;">:</td><td><div>/Users/james/Documents/Dropbox/Uni/Year 4/iapt/assessment/web2py-2.9.11/web2py</div></td></tr><tr><td style="font-weight:bold;vertical-align:top;">web2py_version</td><td style="vertical-align:top;">:</td><td><div>2.9.11-stable+timestamp.2014.09.15.23.35.11</div></td></tr><tr><td style="font-weight:bold;vertical-align:top;">wsgi.errors</td><td style="vertical-align:top;">:</td><td><div>&lt;open file &#x27;&lt;stderr&gt;&#x27;, mode &#x27;w&#x27; at 0x1093ea1e0&gt;</div></td></tr><tr><td style="font-weight:bold;vertical-align:top;">wsgi.file_wrapper</td><td style="vertical-align:top;">:</td><td><div>&lt;class wsgiref.util.FileWrapper at 0x109ffce20&gt;</div></td></tr><tr><td style="font-weight:bold;vertical-align:top;">wsgi.input</td><td style="vertical-align:top;">:</td><td><div>&lt;socket._fileobject object at 0x113542450&gt;</div></td></tr><tr><td style="font-weight:bold;vertical-align:top;">wsgi.multiprocess</td><td style="vertical-align:top;">:</td><td><div>False</div></td></tr><tr><td style="font-weight:bold;vertical-align:top;">wsgi.multithread</td><td style="vertical-align:top;">:</td><td><div>True</div></td></tr><tr><td style="font-weight:bold;vertical-align:top;">wsgi.run_once</td><td style="vertical-align:top;">:</td><td><div>False</div></td></tr><tr><td style="font-weight:bold;vertical-align:top;">wsgi.url_scheme</td><td style="vertical-align:top;">:</td><td><div>http</div></td></tr><tr><td style="font-weight:bold;vertical-align:top;">wsgi.version</td><td style="vertical-align:top;">:</td><td><div><table><tr><td><div>1</div></td></tr><tr><td><div>0</div></td></tr></table></div></td></tr><tr><td style="font-weight:bold;vertical-align:top;">wsgi_errors</td><td style="vertical-align:top;">:</td><td><div>&lt;open file &#x27;&lt;stderr&gt;&#x27;, mode &#x27;w&#x27; at 0x1093ea1e0&gt;</div></td></tr><tr><td style="font-weight:bold;vertical-align:top;">wsgi_file_wrapper</td><td style="vertical-align:top;">:</td><td><div>&lt;class wsgiref.util.FileWrapper at 0x109ffce20&gt;</div></td></tr><tr><td style="font-weight:bold;vertical-align:top;">wsgi_input</td><td style="vertical-align:top;">:</td><td><div>&lt;socket._fileobject object at 0x113542450&gt;</div></td></tr><tr><td style="font-weight:bold;vertical-align:top;">wsgi_multiprocess</td><td style="vertical-align:top;">:</td><td><div>False</div></td></tr><tr><td style="font-weight:bold;vertical-align:top;">wsgi_multithread</td><td style="vertical-align:top;">:</td><td><div>True</div></td></tr><tr><td style="font-weight:bold;vertical-align:top;">wsgi_run_once</td><td style="vertical-align:top;">:</td><td><div>False</div></td></tr><tr><td style="font-weight:bold;vertical-align:top;">wsgi_url_scheme</td><td style="vertical-align:top;">:</td><td><div>http</div></td></tr><tr><td style="font-weight:bold;vertical-align:top;">wsgi_version</td><td style="vertical-align:top;">:</td><td><div><table><tr><td><div>1</div></td></tr><tr><td><div>0</div></td></tr></table></div></td></tr></table></div></td></tr><tr><td style="font-weight:bold;vertical-align:top;">extension</td><td style="vertical-align:top;">:</td><td><div>html</div></td></tr><tr><td style="font-weight:bold;vertical-align:top;">folder</td><td style="vertical-align:top;">:</td><td><div>/Users/james/Documents/Dropbox/Uni/Year 4/iapt/assessment/web2py-2.9.11/web2py/applications/bootup/</div></td></tr><tr><td style="font-weight:bold;vertical-align:top;">function</td><td style="vertical-align:top;">:</td><td><div>make</div></td></tr><tr><td style="font-weight:bold;vertical-align:top;">global_settings</td><td style="vertical-align:top;">:</td><td><div><table><tr><td style="font-weight:bold;vertical-align:top;">app_folders</td><td style="vertical-align:top;">:</td><td><div>set([&#x27;/Users/james/Documents/Dropbox/Uni/Year 4/iapt/assessment/web2py-2.9.11/web2py/applications/test/&#x27;, &#x27;/Users/james/Documents/Dropbox/Uni/Year 4/iapt/assessment/web2py-2.9.11/web2py/applications/admin/&#x27;, &#x27;/Users/james/Documents/Dropbox/Uni/Year 4/iapt/assessment/web2py-2.9.11/web2py/applications/bootup/&#x27;])</div></td></tr><tr><td style="font-weight:bold;vertical-align:top;">applications_parent</td><td style="vertical-align:top;">:</td><td><div>/Users/james/Documents/Dropbox/Uni/Year 4/iapt/assessment/web2py-2.9.11/web2py</div></td></tr><tr><td style="font-weight:bold;vertical-align:top;">cmd_args</td><td style="vertical-align:top;">:</td><td><div><table></table></div></td></tr><tr><td style="font-weight:bold;vertical-align:top;">cmd_options</td><td style="vertical-align:top;">:</td><td><div>&lt;Values at 0x10a2ca2d8: {&#x27;verbose&#x27;: False, &#x27;ip&#x27;: &#x27;127.0.0.1&#x27;, &#x27;debuglevel&#x27;: 30, &#x27;with_scheduler&#x27;: False, &#x27;ips&#x27;: [&#x27;10.240.51.102&#x27;], &#x27;shutdown_timeout&#x27;: 5, &#x27;taskbar&#x27;: False, &#x27;with_coverage&#x27;: False, &#x27;scheduler_groups&#x27;: None, &#x27;port&#x27;: 8000, &#x27;maxthreads&#x27;: None, &#x27;softcron&#x27;: False, &#x27;server_name&#x27;: &#x27;nas10-240-51-102.york.ac.uk&#x27;, &#x27;bpython&#x27;: False, &#x27;nogui&#x27;: False, &#x27;pid_filename&#x27;: &#x27;httpserver.pid&#x27;, &#x27;extcron&#x27;: False, &#x27;runcron&#x27;: False, &#x27;run_system_tests&#x27;: False, &#x27;test&#x27;: None, &#x27;folder&#x27;: &#x27;/Users/james/Documents/Dropbox/Uni/Year 4/iapt/assessment/web2py-2.9.11/web2py&#x27;, &#x27;config&#x27;: &#x27;&#x27;, &#x27;minthreads&#x27;: None, &#x27;shell&#x27;: None, &#x27;run&#x27;: &#x27;&#x27;, &#x27;log_filename&#x27;: &#x27;httpserver.log&#x27;, &#x27;profiler_dir&#x27;: None, &#x27;args&#x27;: [&#x27;&#x27;], &#x27;socket_timeout&#x27;: 5, &#x27;ssl_ca_certificate&#x27;: None, &#x27;scheduler&#x27;: None, &#x27;interfaces&#x27;: None, &#x27;ssl_private_key&#x27;: &#x27;&#x27;, &#x27;gae&#x27;: None, &#x27;password&#x27;: &#x27;&lt;ask&gt;&#x27;, &#x27;request_queue_size&#x27;: 5, &#x27;ssl_certificate&#x27;: &#x27;&#x27;, &#x27;cronjob&#x27;: False, &#x27;numthreads&#x27;: None, &#x27;quiet&#x27;: False, &#x27;import_models&#x27;: False, &#x27;timeout&#x27;: 10, &#x27;plain&#x27;: False, &#x27;nobanner&#x27;: False}&gt;</div></td></tr><tr><td style="font-weight:bold;vertical-align:top;">db_sessions</td><td style="vertical-align:top;">:</td><td><div>set([])</div></td></tr><tr><td style="font-weight:bold;vertical-align:top;">debugging</td><td style="vertical-align:top;">:</td><td><div>True</div></td></tr><tr><td style="font-weight:bold;vertical-align:top;">gluon_parent</td><td style="vertical-align:top;">:</td><td><div>/Users/james/Documents/Dropbox/Uni/Year 4/iapt/assessment/web2py-2.9.11/web2py</div></td></tr><tr><td style="font-weight:bold;vertical-align:top;">is_jython</td><td style="vertical-align:top;">:</td><td><div>False</div></td></tr><tr><td style="font-weight:bold;vertical-align:top;">is_pypy</td><td style="vertical-align:top;">:</td><td><div>False</div></td></tr><tr><td style="font-weight:bold;vertical-align:top;">is_source</td><td style="vertical-align:top;">:</td><td><div>True</div></td></tr><tr><td style="font-weight:bold;vertical-align:top;">local_hosts</td><td style="vertical-align:top;">:</td><td><div><table><tr><td><div>10.240.51.102</div></td></tr><tr><td><div>::1</div></td></tr><tr><td><div>::ffff:127.0.0.1</div></td></tr><tr><td><div>127.0.0.1</div></td></tr><tr><td><div>nas10-240-51-102.york.ac.uk</div></td></tr></table></div></td></tr><tr><td style="font-weight:bold;vertical-align:top;">web2py_version</td><td style="vertical-align:top;">:</td><td><div>2.9.11-stable+timestamp.2014.09.15.23.35.11</div></td></tr></table></div></td></tr><tr><td style="font-weight:bold;vertical-align:top;">is_https</td><td style="vertical-align:top;">:</td><td><div>False</div></td></tr><tr><td style="font-weight:bold;vertical-align:top;">is_local</td><td style="vertical-align:top;">:</td><td><div>True</div></td></tr><tr><td style="font-weight:bold;vertical-align:top;">is_restful</td><td style="vertical-align:top;">:</td><td><div>False</div></td></tr><tr><td style="font-weight:bold;vertical-align:top;">is_sheduler</td><td style="vertical-align:top;">:</td><td><div>None</div></td></tr><tr><td style="font-weight:bold;vertical-align:top;">is_shell</td><td style="vertical-align:top;">:</td><td><div>None</div></td></tr><tr><td style="font-weight:bold;vertical-align:top;">now</td><td style="vertical-align:top;">:</td><td><div>datetime.datetime(2014, 11, 25, 16, 54, 45, 919831)</div></td></tr><tr><td style="font-weight:bold;vertical-align:top;">raw_args</td><td style="vertical-align:top;">:</td><td><div>2</div></td></tr><tr><td style="font-weight:bold;vertical-align:top;">raw_extension</td><td style="vertical-align:top;">:</td><td><div>None</div></td></tr><tr><td style="font-weight:bold;vertical-align:top;">url</td><td style="vertical-align:top;">:</td><td><div>/bootup/pledge/make/2</div></td></tr><tr><td style="font-weight:bold;vertical-align:top;">utcnow</td><td style="vertical-align:top;">:</td><td><div>datetime.datetime(2014, 11, 25, 16, 54, 45, 919843)</div></td></tr><tr><td style="font-weight:bold;vertical-align:top;">uuid</td><td style="vertical-align:top;">:</td><td><div>bootup/127.0.0.1.2014-11-25.16-54-45.cc300b46-0ae1-41b0-ae4e-7f2a249545e9</div></td></tr><tr><td style="font-weight:bold;vertical-align:top;">wsgi</td><td style="vertical-align:top;">:</td><td><div>&lt;gluon.main.LazyWSGI object at 0x110339110&gt;</div></td></tr></table></div>'
tRp58
sS'frames'
p59
(lp60
(dp61
S'file'
p62
S'/Users/james/Documents/Dropbox/Uni/Year 4/iapt/assessment/web2py-2.9.11/web2py/gluon/restricted.py'
p63
sS'dump'
p64
(dp65
S'environment'
p66
S"{'A': <class 'gluon.html.A'>, 'ANY_OF': <class 'gluon.validators.ANY_OF'>, 'ASSIGNJS': <function ASSIGNJS>, 'B': <class 'gluon.html.B'>, 'BEAUTIFY': <class 'gluon.html.BEAUTIFY'>, 'BODY': <class 'gluon.html.BODY'>, 'BR': <class 'gluon.html.BR'>, 'BUTTON': <class 'gluon.html.BUTTON'>, 'BootUpAuth': <class __restricted__.BootUpAuth>, 'CAT': <class 'gluon.html.CAT'>, ...}"
p67
sS'ccode'
p68
S'<code object <module> at 0x11049cbb0, file "/Use...web2py/applications/bootup/models/db.py", line 1>'
p69
ssS'lnum'
p70
I224
sS'lines'
p71
(dp72
I224
S'        exec ccode in environment'
p73
sI225
S'    except HTTP:'
p74
sI226
S'        raise'
p75
sI227
S'    except RestrictedError:'
p76
sI228
S'        # do not encapsulate (obfuscate) the original RestrictedError'
p77
sI219
S'    try:'
p78
sI220
S'        if isinstance(code, types.CodeType):'
p79
sI221
S'            ccode = code'
p80
sI222
S'        else:'
p81
sI223
S'            ccode = compile2(code, layer)'
p82
ssS'call'
p83
S'(code="from itertools import groupby\\n\\ndb = DAL(\'sqlite:...chableprojects = (openprojects | closedprojects)\\n", environment={\'A\': <class \'gluon.html.A\'>, \'ANY_OF\': <class \'gluon.validators.ANY_OF\'>, \'ASSIGNJS\': <function ASSIGNJS>, \'B\': <class \'gluon.html.B\'>, \'BEAUTIFY\': <class \'gluon.html.BEAUTIFY\'>, \'BODY\': <class \'gluon.html.BODY\'>, \'BR\': <class \'gluon.html.BR\'>, \'BUTTON\': <class \'gluon.html.BUTTON\'>, \'BootUpAuth\': <class __restricted__.BootUpAuth>, \'CAT\': <class \'gluon.html.CAT\'>, ...}, layer=\'/Users/james/Documents/Dropbox/Uni/Year 4/iapt/a...py-2.9.11/web2py/applications/bootup/models/db.py\')'
p84
sS'func'
p85
S'restricted'
p86
sa(dp87
g62
S'/Users/james/Documents/Dropbox/Uni/Year 4/iapt/assessment/web2py-2.9.11/web2py/applications/bootup/models/db.py'
p88
sg64
(dp89
S'db.address.idaddress'
p90
S'<gluon.dal.Field object>'
p91
sS'error_message'
p92
S'undefined'
p93
sS'db'
p94
S'<DAL uri="sqlite://bootup.db">'
p95
sS'auth'
p96
S'<__restricted__.BootUpAuth instance>'
p97
sS'IS_IN_DB'
p98
S"<class 'gluon.validators.IS_IN_DB'>"
p99
sS'zero'
p100
g93
sS'db.address.owner'
p101
g93
sS'db.address'
p102
S'<Table address (idaddress,street,city,postcode,countrycode,userid)>'
p103
sS'requires'
p104
g93
sS'auth.user_id'
p105
S'1L'
p106
ssg70
I261
sg71
(dp107
I256
S"                Field('idcard',type='id', readable=False,writable=False, default= None),"
p108
sI257
S"                Field('user', default=auth.user_id, readable=False,writable=False),"
p109
sI258
S"                Field('number', type='string',label='Card Number',requires=[IS_LENGTH(maxsize=12, minsize=12, error_message='Credit Card number must be 12 digits long')]),"
p110
sI259
S"                Field('expdate',type='date',label='Expiry Date',widget=my_string_widget),"
p111
sI260
S"                Field('billingaddress',  type='reference address', label='Billing Address',"
p112
sI261
S'                      requires=IS_IN_DB(db(db.address.owner==auth.user_id),'
p113
sI262
S"                                        db.address.idaddress,'%(owner)s %(street)s, %(city)s, %(postcode)s',"
p114
sI263
S"                                   zero='Select an address',"
p115
sI264
S"                                   error_message='Please choose your billing address'"
p116
sI265
S'                                   )),'
p117
ssg83
S'()'
p118
sg85
S'<module>'
p119
sa(dp120
g62
S'/Users/james/Documents/Dropbox/Uni/Year 4/iapt/assessment/web2py-2.9.11/web2py/gluon/dal.py'
p121
sg64
(dp122
S'builtinstr'
p123
S"<type 'str'>"
p124
sS'self'
p125
S'<Table address (idaddress,street,city,postcode,countrycode,userid)>'
p126
sS'global ogetattr'
p127
S"<slot wrapper '__getattribute__' of 'object' objects>"
p128
sS'key'
p129
S"'owner'"
p130
ssg70
I9110
sg71
(dp131
I9105
S'            query = self._build_query(key)'
p132
sI9106
S'            return self._db(query).select(limitby=(0, 1), orderby_on_limitby=False).first()'
p133
sI9107
S"        elif str(key).isdigit() or 'google' in DRIVERS and isinstance(key, Key):"
p134
sI9108
S'            return self._db(self._id == key).select(limitby=(0, 1), orderby_on_limitby=False).first()'
p135
sI9109
S'        elif key:'
p136
sI9110
S'            return ogetattr(self, str(key))'
p137
sI9111
S''
sI9112
S'    def __call__(self, key=DEFAULT, **kwargs):'
p138
sI9113
S"        for_update = kwargs.get('_for_update', False)"
p139
sI9114
S"        if '_for_update' in kwargs:"
p140
ssg83
S"(self=<Table address (idaddress,street,city,postcode,countrycode,userid)>, key='owner')"
p141
sg85
g20
sasS'pyver'
p142
S'Python 2.7.5: /usr/bin/python (prefix: /System/Library/Frameworks/Python.framework/Versions/2.7)'
p143
sS'session'
p144
g57
(S's\x99\x00\x00\x00<div><table><tr><td style="font-weight:bold;vertical-align:top;">user</td><td style="vertical-align:top;">:</td><td><div>1L</div></td></tr></table></div>'
tRp145
sS'etype'
p146
S"<type 'exceptions.AttributeError'>"
p147
sS'date'
p148
S'Tue Nov 25 16:54:45 2014'
p149
sS'response'
p150
g57
(S'sS\x18\x00\x00<div><table><tr><td style="font-weight:bold;vertical-align:top;">body</td><td style="vertical-align:top;">:</td><td><div>&lt;cStringIO.StringO object at 0x109eaca08&gt;</div></td></tr><tr><td style="font-weight:bold;vertical-align:top;">cookies</td><td style="vertical-align:top;">:</td><td><div><table><tr><td style="font-weight:bold;vertical-align:top;">session_id_bootup</td><td style="vertical-align:top;">:</td><td><div>127.0.0.1-1df8b906-85be-4427-aa82-8ca4bec859ca<table><tr><td style="font-weight:bold;vertical-align:top;">comment</td><td style="vertical-align:top;">:</td><td><div></div></td></tr><tr><td style="font-weight:bold;vertical-align:top;">domain</td><td style="vertical-align:top;">:</td><td><div></div></td></tr><tr><td style="font-weight:bold;vertical-align:top;">expires</td><td style="vertical-align:top;">:</td><td><div></div></td></tr><tr><td style="font-weight:bold;vertical-align:top;">httponly</td><td style="vertical-align:top;">:</td><td><div></div></td></tr><tr><td style="font-weight:bold;vertical-align:top;">max-age</td><td style="vertical-align:top;">:</td><td><div></div></td></tr><tr><td style="font-weight:bold;vertical-align:top;">path</td><td style="vertical-align:top;">:</td><td><div>/</div></td></tr><tr><td style="font-weight:bold;vertical-align:top;">secure</td><td style="vertical-align:top;">:</td><td><div></div></td></tr><tr><td style="font-weight:bold;vertical-align:top;">version</td><td style="vertical-align:top;">:</td><td><div></div></td></tr></table></div></td></tr></table></div></td></tr><tr><td style="font-weight:bold;vertical-align:top;">delimiters</td><td style="vertical-align:top;">:</td><td><div><table><tr><td><div>{{</div></td></tr><tr><td><div>}}</div></td></tr></table></div></td></tr><tr><td style="font-weight:bold;vertical-align:top;">files</td><td style="vertical-align:top;">:</td><td><div><table></table></div></td></tr><tr><td style="font-weight:bold;vertical-align:top;">flash</td><td style="vertical-align:top;">:</td><td><div></div></td></tr><tr><td style="font-weight:bold;vertical-align:top;">form_label_separator</td><td style="vertical-align:top;">:</td><td><div>: </div></td></tr><tr><td style="font-weight:bold;vertical-align:top;">formstyle</td><td style="vertical-align:top;">:</td><td><div>table3cols</div></td></tr><tr><td style="font-weight:bold;vertical-align:top;">generic_patterns</td><td style="vertical-align:top;">:</td><td><div><table><tr><td><div>*</div></td></tr></table></div></td></tr><tr><td style="font-weight:bold;vertical-align:top;">headers</td><td style="vertical-align:top;">:</td><td><div><table><tr><td style="font-weight:bold;vertical-align:top;">X-Powered-By</td><td style="vertical-align:top;">:</td><td><div>web2py</div></td></tr></table></div></td></tr><tr><td style="font-weight:bold;vertical-align:top;">menu</td><td style="vertical-align:top;">:</td><td><div><table></table></div></td></tr><tr><td style="font-weight:bold;vertical-align:top;">meta</td><td style="vertical-align:top;">:</td><td><div><table></table></div></td></tr><tr><td style="font-weight:bold;vertical-align:top;">models_to_run</td><td style="vertical-align:top;">:</td><td><div><table><tr><td><div>^\\w+\\.py$</div></td></tr><tr><td><div>^pledge/\\w+\\.py$</div></td></tr><tr><td><div>^pledge/make/\\w+\\.py$</div></td></tr></table></div></td></tr><tr><td style="font-weight:bold;vertical-align:top;">postprocessing</td><td style="vertical-align:top;">:</td><td><div><table></table></div></td></tr><tr><td style="font-weight:bold;vertical-align:top;">session_client</td><td style="vertical-align:top;">:</td><td><div>127.0.0.1</div></td></tr><tr><td style="font-weight:bold;vertical-align:top;">session_cookie_compression_level</td><td style="vertical-align:top;">:</td><td><div>None</div></td></tr><tr><td style="font-weight:bold;vertical-align:top;">session_cookie_expires</td><td style="vertical-align:top;">:</td><td><div>None</div></td></tr><tr><td style="font-weight:bold;vertical-align:top;">session_cookie_key</td><td style="vertical-align:top;">:</td><td><div>None</div></td></tr><tr><td style="font-weight:bold;vertical-align:top;">session_data_name</td><td style="vertical-align:top;">:</td><td><div>session_data_bootup</div></td></tr><tr><td style="font-weight:bold;vertical-align:top;">session_file</td><td style="vertical-align:top;">:</td><td><div>&lt;open file &#x27;/Users/james/Documents/Dropbox/Uni/Year 4/iapt/assessment/web2py-2.9.11/web2py/applications/bootup/sessions/077/117/127.0.0.1-1df8b906-85be-4427-aa82-8ca4bec859ca&#x27;, mode &#x27;rb+&#x27; at 0x1135e7ae0&gt;</div></td></tr><tr><td style="font-weight:bold;vertical-align:top;">session_filename</td><td style="vertical-align:top;">:</td><td><div>/Users/james/Documents/Dropbox/Uni/Year 4/iapt/assessment/web2py-2.9.11/web2py/applications/bootup/sessions/127.0.0.1-1df8b906-85be-4427-aa82-8ca4bec859ca</div></td></tr><tr><td style="font-weight:bold;vertical-align:top;">session_hash</td><td style="vertical-align:top;">:</td><td><div>351e50eb82ddbec3372df8f4b371e9df</div></td></tr><tr><td style="font-weight:bold;vertical-align:top;">session_id</td><td style="vertical-align:top;">:</td><td><div>127.0.0.1-1df8b906-85be-4427-aa82-8ca4bec859ca</div></td></tr><tr><td style="font-weight:bold;vertical-align:top;">session_id_name</td><td style="vertical-align:top;">:</td><td><div>session_id_bootup</div></td></tr><tr><td style="font-weight:bold;vertical-align:top;">session_locked</td><td style="vertical-align:top;">:</td><td><div>True</div></td></tr><tr><td style="font-weight:bold;vertical-align:top;">session_masterapp</td><td style="vertical-align:top;">:</td><td><div>bootup</div></td></tr><tr><td style="font-weight:bold;vertical-align:top;">session_new</td><td style="vertical-align:top;">:</td><td><div>False</div></td></tr><tr><td style="font-weight:bold;vertical-align:top;">session_storage_type</td><td style="vertical-align:top;">:</td><td><div>file</div></td></tr><tr><td style="font-weight:bold;vertical-align:top;">status</td><td style="vertical-align:top;">:</td><td><div>200</div></td></tr><tr><td style="font-weight:bold;vertical-align:top;">view</td><td style="vertical-align:top;">:</td><td><div>pledge/make.html</div></td></tr></table></div>'
tRp151
sS'locals'
p152
(dp153
S'self'
p154
S'<Table address (idaddress,street,city,postcode,countrycode,userid)>'
p155
sS'key'
p156
S"'owner'"
p157
sssS'traceback'
p158
S'Traceback (most recent call last):\n  File "/Users/james/Documents/Dropbox/Uni/Year 4/iapt/assessment/web2py-2.9.11/web2py/gluon/restricted.py", line 224, in restricted\n    exec ccode in environment\n  File "/Users/james/Documents/Dropbox/Uni/Year 4/iapt/assessment/web2py-2.9.11/web2py/applications/bootup/models/db.py", line 261, in <module>\n    requires=IS_IN_DB(db(db.address.owner==auth.user_id),\n  File "/Users/james/Documents/Dropbox/Uni/Year 4/iapt/assessment/web2py-2.9.11/web2py/gluon/dal.py", line 9110, in __getitem__\n    return ogetattr(self, str(key))\nAttributeError: \'Table\' object has no attribute \'owner\'\n'
p159
s.