(dp1
S'output'
p2
S"<type 'exceptions.Exception'> Validation error, field:rewards <gluon.validators.IS_IN_DB object at 0x10abb9410>"
p3
sS'layer'
p4
S'/Users/james/Documents/Dropbox/Uni/Year 4/iapt/assessment/web2py-2.9.11/web2py/applications/bootup/controllers/pledge.py'
p5
sS'code'
p6
S'from applications.bootup.forms.bootupform import BOOTUPFORM\n\n@auth.requires_login\ndef view():\n    projectid = request.args(0)\n\n    if projectid is None:\n        raise HTTP(404,"No project specified")\n\n    project = db(myprojects & (db.project.idproject==projectid)).select(db.project.ALL).first()\n\n    if project is None:\n        raise HTTP(404,"Project does not exist")\n\n    if not project.canedit():\n        raise HTTP(403, "Cannot edit this project")\n\n    return dict(project=project)\n\n\n\n@auth.requires_login\ndef create():\n    projectid = request.args(0)\n\n    if projectid is None:\n        raise HTTP(404,"No project specified")\n\n    project = db(myprojects & (db.project.idproject==projectid)).select(db.project.ALL).first()\n\n    if project is None:\n        raise HTTP(404,"Project does not exist")\n\n    if not project.canedit():\n        raise HTTP(403, "Cannot edit this project")\n\n    form = BOOTUPFORM.factory(db.pledge,Field(\'rewards\',requires=IS_IN_DB(db(db.reward.projectid==projectid),db.reward.idreward,\'%(description)s\',multiple=[1], error_message="Please select at least one reward")))\n\n\n\n    if( form.process().accepted):\n        db.pledge.insert(idpledge=None,description=form.vars.description, value=form.vars.value, projectid=projectid)\n        redirect(URL(\'bootup\',\'pledge\',\'view\',args=[projectid]))\n    return dict(project=project, form=form)\n\n\n@auth.requires_login\ndef edit():\n    pledgeid = request.args(0)\n\n    if pledgeid is None:\n        raise HTTP(404,"No project specified")\n\n    pledge = db((db.pledge.idpledge == pledgeid) & myprojects & (db.project.idproject==db.pledge.projectid)).select(db.project.ALL,db.pledge.ALL).first()\n\n    if pledge is None:\n        raise HTTP(404,"Reward does not exist")\n\n    if not pledge.project.canedit():\n        raise HTTP(403, "Cannot edit this project")\n\n    form = BOOTUPFORM(db.pledge,record=pledge.pledge)\n    if( form.process().accepted):\n        redirect(URL(\'bootup\',\'pledge\',\'view\',args=[pledge.pledge.projectid]))\n    return dict(form=form)\n\n@auth.requires_login\ndef delete():\n    rewardid = request.args(0)\n\n    if rewardid is None:\n        raise HTTP(404,"No project specified")\n\n    reward = db((db.reward.idreward == rewardid) & myprojects & (db.project.idproject==db.reward.projectid)).select(db.project.ALL,db.reward.ALL).first()\n\n    if reward is None:\n        raise HTTP(404,"Reward does not exist")\n\n    if not reward.project.canedit():\n        raise HTTP(403, "Cannot edit this project")\n\n\n    form = FORM.confirm(\'Delete\',{\'Back\':URL(request.env.http_referrer)})\n    projectid = reward.reward.projectid\n\n\n    if form.accepted:\n        db(db.reward.idreward == rewardid).delete()\n        redirect(URL(\'bootup\',\'reward\',\'view\',args=[projectid]))\n\n    return dict(form=form)\n\nresponse._vars=response._caller(create)\n'
p7
sS'snapshot'
p8
(dp9
S'exception'
p10
(dp11
S'__hash__'
p12
S"<method-wrapper '__hash__' of exceptions.Exception object>"
p13
sS'__setattr__'
p14
S"<method-wrapper '__setattr__' of exceptions.Exception object>"
p15
sS'__reduce_ex__'
p16
S'<built-in method __reduce_ex__ of exceptions.Exception object>'
p17
sS'__getslice__'
p18
S"<method-wrapper '__getslice__' of exceptions.Exception object>"
p19
sS'__getitem__'
p20
S"<method-wrapper '__getitem__' of exceptions.Exception object>"
p21
sS'__setstate__'
p22
S'<built-in method __setstate__ of exceptions.Exception object>'
p23
sS'args'
p24
S"('Validation error, field:rewards <gluon.validators.IS_IN_DB object at 0x10abb9410>',)"
p25
sS'__reduce__'
p26
S'<built-in method __reduce__ of exceptions.Exception object>'
p27
sS'__str__'
p28
S"<method-wrapper '__str__' of exceptions.Exception object>"
p29
sS'__format__'
p30
S'<built-in method __format__ of exceptions.Exception object>'
p31
sS'__getattribute__'
p32
S"<method-wrapper '__getattribute__' of exceptions.Exception object>"
p33
sS'__class__'
p34
S"<type 'exceptions.Exception'>"
p35
sS'__unicode__'
p36
S'<built-in method __unicode__ of exceptions.Exception object>'
p37
sS'__delattr__'
p38
S"<method-wrapper '__delattr__' of exceptions.Exception object>"
p39
sS'__subclasshook__'
p40
S'<built-in method __subclasshook__ of type object>'
p41
sS'__repr__'
p42
S"<method-wrapper '__repr__' of exceptions.Exception object>"
p43
sS'__dict__'
p44
S'{}'
p45
sS'__sizeof__'
p46
S'<built-in method __sizeof__ of exceptions.Exception object>'
p47
sS'__doc__'
p48
S"'Common base class for all non-exit exceptions.'"
p49
sS'__init__'
p50
S"<method-wrapper '__init__' of exceptions.Exception object>"
p51
sS'__new__'
p52
S'<built-in method __new__ of type object>'
p53
ssS'evalue'
p54
S'Validation error, field:rewards <gluon.validators.IS_IN_DB object at 0x10abb9410>'
p55
sS'request'
p56
cgluon.html
XML_unpickle
p57
(S's\x05`\x00\x00<div><table><tr><td style="font-weight:bold;vertical-align:top;">ajax</td><td style="vertical-align:top;">:</td><td><div>False</div></td></tr><tr><td style="font-weight:bold;vertical-align:top;">application</td><td style="vertical-align:top;">:</td><td><div>bootup</div></td></tr><tr><td style="font-weight:bold;vertical-align:top;">args</td><td style="vertical-align:top;">:</td><td><div><table><tr><td><div>11</div></td></tr></table></div></td></tr><tr><td style="font-weight:bold;vertical-align:top;">cid</td><td style="vertical-align:top;">:</td><td><div>None</div></td></tr><tr><td style="font-weight:bold;vertical-align:top;">client</td><td style="vertical-align:top;">:</td><td><div>127.0.0.1</div></td></tr><tr><td style="font-weight:bold;vertical-align:top;">controller</td><td style="vertical-align:top;">:</td><td><div>pledge</div></td></tr><tr><td style="font-weight:bold;vertical-align:top;">cookies</td><td style="vertical-align:top;">:</td><td><div><table><tr><td style="font-weight:bold;vertical-align:top;">session_id_admin</td><td style="vertical-align:top;">:</td><td><div>127.0.0.1-d5f035ce-fe78-483c-907e-4bbdee1f8d57<table><tr><td style="font-weight:bold;vertical-align:top;">comment</td><td style="vertical-align:top;">:</td><td><div></div></td></tr><tr><td style="font-weight:bold;vertical-align:top;">domain</td><td style="vertical-align:top;">:</td><td><div></div></td></tr><tr><td style="font-weight:bold;vertical-align:top;">expires</td><td style="vertical-align:top;">:</td><td><div></div></td></tr><tr><td style="font-weight:bold;vertical-align:top;">httponly</td><td style="vertical-align:top;">:</td><td><div></div></td></tr><tr><td style="font-weight:bold;vertical-align:top;">max-age</td><td style="vertical-align:top;">:</td><td><div></div></td></tr><tr><td style="font-weight:bold;vertical-align:top;">path</td><td style="vertical-align:top;">:</td><td><div></div></td></tr><tr><td style="font-weight:bold;vertical-align:top;">secure</td><td style="vertical-align:top;">:</td><td><div></div></td></tr><tr><td style="font-weight:bold;vertical-align:top;">version</td><td style="vertical-align:top;">:</td><td><div></div></td></tr></table></div></td></tr><tr><td style="font-weight:bold;vertical-align:top;">session_id_bootup</td><td style="vertical-align:top;">:</td><td><div>127.0.0.1-6543c37b-0e7c-4341-b2b0-67667ed320d5<table><tr><td style="font-weight:bold;vertical-align:top;">comment</td><td style="vertical-align:top;">:</td><td><div></div></td></tr><tr><td style="font-weight:bold;vertical-align:top;">domain</td><td style="vertical-align:top;">:</td><td><div></div></td></tr><tr><td style="font-weight:bold;vertical-align:top;">expires</td><td style="vertical-align:top;">:</td><td><div></div></td></tr><tr><td style="font-weight:bold;vertical-align:top;">httponly</td><td style="vertical-align:top;">:</td><td><div></div></td></tr><tr><td style="font-weight:bold;vertical-align:top;">max-age</td><td style="vertical-align:top;">:</td><td><div></div></td></tr><tr><td style="font-weight:bold;vertical-align:top;">path</td><td style="vertical-align:top;">:</td><td><div></div></td></tr><tr><td style="font-weight:bold;vertical-align:top;">secure</td><td style="vertical-align:top;">:</td><td><div></div></td></tr><tr><td style="font-weight:bold;vertical-align:top;">version</td><td style="vertical-align:top;">:</td><td><div></div></td></tr></table></div></td></tr></table></div></td></tr><tr><td style="font-weight:bold;vertical-align:top;">env</td><td style="vertical-align:top;">:</td><td><div><table><tr><td style="font-weight:bold;vertical-align:top;">CONTENT_LENGTH</td><td style="vertical-align:top;">:</td><td><div>671</div></td></tr><tr><td style="font-weight:bold;vertical-align:top;">CONTENT_TYPE</td><td style="vertical-align:top;">:</td><td><div>multipart/form-data; boundary=----WebKitFormBoundaryExLqqc06pLBmZDTw</div></td></tr><tr><td style="font-weight:bold;vertical-align:top;">HTTP_ACCEPT</td><td style="vertical-align:top;">:</td><td><div>text/html,application/xhtml+xml,application/xml;q=0.9,image/webp,*/*;q=0.8</div></td></tr><tr><td style="font-weight:bold;vertical-align:top;">HTTP_ACCEPT_ENCODING</td><td style="vertical-align:top;">:</td><td><div>gzip,deflate</div></td></tr><tr><td style="font-weight:bold;vertical-align:top;">HTTP_ACCEPT_LANGUAGE</td><td style="vertical-align:top;">:</td><td><div>en-US,en;q=0.8</div></td></tr><tr><td style="font-weight:bold;vertical-align:top;">HTTP_CACHE_CONTROL</td><td style="vertical-align:top;">:</td><td><div>max-age=0</div></td></tr><tr><td style="font-weight:bold;vertical-align:top;">HTTP_CONNECTION</td><td style="vertical-align:top;">:</td><td><div>keep-alive</div></td></tr><tr><td style="font-weight:bold;vertical-align:top;">HTTP_CONTENT_LENGTH</td><td style="vertical-align:top;">:</td><td><div>671</div></td></tr><tr><td style="font-weight:bold;vertical-align:top;">HTTP_CONTENT_TYPE</td><td style="vertical-align:top;">:</td><td><div>multipart/form-data; boundary=----WebKitFormBoundaryExLqqc06pLBmZDTw</div></td></tr><tr><td style="font-weight:bold;vertical-align:top;">HTTP_COOKIE</td><td style="vertical-align:top;">:</td><td><div>session_id_admin=127.0.0.1-d5f035ce-fe78-483c-907e-4bbdee1f8d57; session_id_bootup=127.0.0.1-6543c37b-0e7c-4341-b2b0-67667ed320d5</div></td></tr><tr><td style="font-weight:bold;vertical-align:top;">HTTP_HOST</td><td style="vertical-align:top;">:</td><td><div>127.0.0.1:8000</div></td></tr><tr><td style="font-weight:bold;vertical-align:top;">HTTP_ORIGIN</td><td style="vertical-align:top;">:</td><td><div>http://127.0.0.1:8000</div></td></tr><tr><td style="font-weight:bold;vertical-align:top;">HTTP_REFERER</td><td style="vertical-align:top;">:</td><td><div>http://127.0.0.1:8000/bootup/pledge/create/11</div></td></tr><tr><td style="font-weight:bold;vertical-align:top;">HTTP_USER_AGENT</td><td style="vertical-align:top;">:</td><td><div>Mozilla/5.0 (Macintosh; Intel Mac OS X 10_9_4) AppleWebKit/537.36 (KHTML, like Gecko) Chrome/38.0.2125.122 Safari/537.36</div></td></tr><tr><td style="font-weight:bold;vertical-align:top;">PATH_INFO</td><td style="vertical-align:top;">:</td><td><div>/bootup/pledge/create/11</div></td></tr><tr><td style="font-weight:bold;vertical-align:top;">QUERY_STRING</td><td style="vertical-align:top;">:</td><td><div></div></td></tr><tr><td style="font-weight:bold;vertical-align:top;">REMOTE_ADDR</td><td style="vertical-align:top;">:</td><td><div>127.0.0.1</div></td></tr><tr><td style="font-weight:bold;vertical-align:top;">REMOTE_PORT</td><td style="vertical-align:top;">:</td><td><div>52279</div></td></tr><tr><td style="font-weight:bold;vertical-align:top;">REQUEST_METHOD</td><td style="vertical-align:top;">:</td><td><div>POST</div></td></tr><tr><td style="font-weight:bold;vertical-align:top;">SCRIPT_NAME</td><td style="vertical-align:top;">:</td><td><div></div></td></tr><tr><td style="font-weight:bold;vertical-align:top;">SERVER_NAME</td><td style="vertical-align:top;">:</td><td><div>jt-mbp.default</div></td></tr><tr><td style="font-weight:bold;vertical-align:top;">SERVER_PORT</td><td style="vertical-align:top;">:</td><td><div>8000</div></td></tr><tr><td style="font-weight:bold;vertical-align:top;">SERVER_PROTOCOL</td><td style="vertical-align:top;">:</td><td><div>HTTP/1.1</div></td></tr><tr><td style="font-weight:bold;vertical-align:top;">SERVER_SOFTWARE</td><td style="vertical-align:top;">:</td><td><div>Rocket 1.2.6</div></td></tr><tr><td style="font-weight:bold;vertical-align:top;">app_folders</td><td style="vertical-align:top;">:</td><td><div>set([&#x27;/Users/james/Documents/Dropbox/Uni/Year 4/iapt/assessment/web2py-2.9.11/web2py/applications/admin/&#x27;, &#x27;/Users/james/Documents/Dropbox/Uni/Year 4/iapt/assessment/web2py-2.9.11/web2py/applications/bootup/&#x27;])</div></td></tr><tr><td style="font-weight:bold;vertical-align:top;">applications_parent</td><td style="vertical-align:top;">:</td><td><div>/Users/james/Documents/Dropbox/Uni/Year 4/iapt/assessment/web2py-2.9.11/web2py</div></td></tr><tr><td style="font-weight:bold;vertical-align:top;">cmd_args</td><td style="vertical-align:top;">:</td><td><div><table></table></div></td></tr><tr><td style="font-weight:bold;vertical-align:top;">cmd_options</td><td style="vertical-align:top;">:</td><td><div>&lt;Values at 0x10522e2d8: {&#x27;verbose&#x27;: False, &#x27;ip&#x27;: &#x27;127.0.0.1&#x27;, &#x27;debuglevel&#x27;: 30, &#x27;with_scheduler&#x27;: False, &#x27;ips&#x27;: [&#x27;192.168.1.105&#x27;], &#x27;shutdown_timeout&#x27;: 5, &#x27;taskbar&#x27;: False, &#x27;with_coverage&#x27;: False, &#x27;scheduler_groups&#x27;: None, &#x27;port&#x27;: 8000, &#x27;maxthreads&#x27;: None, &#x27;softcron&#x27;: False, &#x27;server_name&#x27;: &#x27;jt-mbp.default&#x27;, &#x27;bpython&#x27;: False, &#x27;nogui&#x27;: False, &#x27;pid_filename&#x27;: &#x27;httpserver.pid&#x27;, &#x27;extcron&#x27;: False, &#x27;runcron&#x27;: False, &#x27;run_system_tests&#x27;: False, &#x27;test&#x27;: None, &#x27;folder&#x27;: &#x27;/Users/james/Documents/Dropbox/Uni/Year 4/iapt/assessment/web2py-2.9.11/web2py&#x27;, &#x27;config&#x27;: &#x27;&#x27;, &#x27;minthreads&#x27;: None, &#x27;shell&#x27;: None, &#x27;run&#x27;: &#x27;&#x27;, &#x27;log_filename&#x27;: &#x27;httpserver.log&#x27;, &#x27;profiler_dir&#x27;: None, &#x27;args&#x27;: [&#x27;&#x27;], &#x27;socket_timeout&#x27;: 5, &#x27;ssl_ca_certificate&#x27;: None, &#x27;scheduler&#x27;: None, &#x27;interfaces&#x27;: None, &#x27;ssl_private_key&#x27;: &#x27;&#x27;, &#x27;gae&#x27;: None, &#x27;password&#x27;: &#x27;&lt;ask&gt;&#x27;, &#x27;request_queue_size&#x27;: 5, &#x27;ssl_certificate&#x27;: &#x27;&#x27;, &#x27;cronjob&#x27;: False, &#x27;numthreads&#x27;: None, &#x27;quiet&#x27;: False, &#x27;import_models&#x27;: False, &#x27;timeout&#x27;: 10, &#x27;plain&#x27;: False, &#x27;nobanner&#x27;: False}&gt;</div></td></tr><tr><td style="font-weight:bold;vertical-align:top;">content_length</td><td style="vertical-align:top;">:</td><td><div>671</div></td></tr><tr><td style="font-weight:bold;vertical-align:top;">content_type</td><td style="vertical-align:top;">:</td><td><div>multipart/form-data; boundary=----WebKitFormBoundaryExLqqc06pLBmZDTw</div></td></tr><tr><td style="font-weight:bold;vertical-align:top;">db_sessions</td><td style="vertical-align:top;">:</td><td><div>set([])</div></td></tr><tr><td style="font-weight:bold;vertical-align:top;">debugging</td><td style="vertical-align:top;">:</td><td><div>False</div></td></tr><tr><td style="font-weight:bold;vertical-align:top;">gluon_parent</td><td style="vertical-align:top;">:</td><td><div>/Users/james/Documents/Dropbox/Uni/Year 4/iapt/assessment/web2py-2.9.11/web2py</div></td></tr><tr><td style="font-weight:bold;vertical-align:top;">http_accept</td><td style="vertical-align:top;">:</td><td><div>text/html,application/xhtml+xml,application/xml;q=0.9,image/webp,*/*;q=0.8</div></td></tr><tr><td style="font-weight:bold;vertical-align:top;">http_accept_encoding</td><td style="vertical-align:top;">:</td><td><div>gzip,deflate</div></td></tr><tr><td style="font-weight:bold;vertical-align:top;">http_accept_language</td><td style="vertical-align:top;">:</td><td><div>en-US,en;q=0.8</div></td></tr><tr><td style="font-weight:bold;vertical-align:top;">http_cache_control</td><td style="vertical-align:top;">:</td><td><div>max-age=0</div></td></tr><tr><td style="font-weight:bold;vertical-align:top;">http_connection</td><td style="vertical-align:top;">:</td><td><div>keep-alive</div></td></tr><tr><td style="font-weight:bold;vertical-align:top;">http_content_length</td><td style="vertical-align:top;">:</td><td><div>671</div></td></tr><tr><td style="font-weight:bold;vertical-align:top;">http_content_type</td><td style="vertical-align:top;">:</td><td><div>multipart/form-data; boundary=----WebKitFormBoundaryExLqqc06pLBmZDTw</div></td></tr><tr><td style="font-weight:bold;vertical-align:top;">http_cookie</td><td style="vertical-align:top;">:</td><td><div>session_id_admin=127.0.0.1-d5f035ce-fe78-483c-907e-4bbdee1f8d57; session_id_bootup=127.0.0.1-6543c37b-0e7c-4341-b2b0-67667ed320d5</div></td></tr><tr><td style="font-weight:bold;vertical-align:top;">http_host</td><td style="vertical-align:top;">:</td><td><div>127.0.0.1:8000</div></td></tr><tr><td style="font-weight:bold;vertical-align:top;">http_origin</td><td style="vertical-align:top;">:</td><td><div>http://127.0.0.1:8000</div></td></tr><tr><td style="font-weight:bold;vertical-align:top;">http_referer</td><td style="vertical-align:top;">:</td><td><div>http://127.0.0.1:8000/bootup/pledge/create/11</div></td></tr><tr><td style="font-weight:bold;vertical-align:top;">http_user_agent</td><td style="vertical-align:top;">:</td><td><div>Mozilla/5.0 (Macintosh; Intel Mac OS X 10_9_4) AppleWebKit/537.36 (KHTML, like Gecko) Chrome/38.0.2125.122 Safari/537.36</div></td></tr><tr><td style="font-weight:bold;vertical-align:top;">is_jython</td><td style="vertical-align:top;">:</td><td><div>False</div></td></tr><tr><td style="font-weight:bold;vertical-align:top;">is_pypy</td><td style="vertical-align:top;">:</td><td><div>False</div></td></tr><tr><td style="font-weight:bold;vertical-align:top;">is_source</td><td style="vertical-align:top;">:</td><td><div>True</div></td></tr><tr><td style="font-weight:bold;vertical-align:top;">local_hosts</td><td style="vertical-align:top;">:</td><td><div><table><tr><td><div>jt-mbp.default</div></td></tr><tr><td><div>::1</div></td></tr><tr><td><div>::ffff:127.0.0.1</div></td></tr><tr><td><div>127.0.0.1</div></td></tr><tr><td><div>192.168.1.105</div></td></tr></table></div></td></tr><tr><td style="font-weight:bold;vertical-align:top;">path_info</td><td style="vertical-align:top;">:</td><td><div>/bootup/pledge/create/11</div></td></tr><tr><td style="font-weight:bold;vertical-align:top;">query_string</td><td style="vertical-align:top;">:</td><td><div></div></td></tr><tr><td style="font-weight:bold;vertical-align:top;">remote_addr</td><td style="vertical-align:top;">:</td><td><div>127.0.0.1</div></td></tr><tr><td style="font-weight:bold;vertical-align:top;">remote_port</td><td style="vertical-align:top;">:</td><td><div>52279</div></td></tr><tr><td style="font-weight:bold;vertical-align:top;">request_method</td><td style="vertical-align:top;">:</td><td><div>POST</div></td></tr><tr><td style="font-weight:bold;vertical-align:top;">request_uri</td><td style="vertical-align:top;">:</td><td><div>/bootup/pledge/create/11</div></td></tr><tr><td style="font-weight:bold;vertical-align:top;">script_name</td><td style="vertical-align:top;">:</td><td><div></div></td></tr><tr><td style="font-weight:bold;vertical-align:top;">server_name</td><td style="vertical-align:top;">:</td><td><div>jt-mbp.default</div></td></tr><tr><td style="font-weight:bold;vertical-align:top;">server_port</td><td style="vertical-align:top;">:</td><td><div>8000</div></td></tr><tr><td style="font-weight:bold;vertical-align:top;">server_protocol</td><td style="vertical-align:top;">:</td><td><div>HTTP/1.1</div></td></tr><tr><td style="font-weight:bold;vertical-align:top;">server_software</td><td style="vertical-align:top;">:</td><td><div>Rocket 1.2.6</div></td></tr><tr><td style="font-weight:bold;vertical-align:top;">web2py_path</td><td style="vertical-align:top;">:</td><td><div>/Users/james/Documents/Dropbox/Uni/Year 4/iapt/assessment/web2py-2.9.11/web2py</div></td></tr><tr><td style="font-weight:bold;vertical-align:top;">web2py_version</td><td style="vertical-align:top;">:</td><td><div>2.9.11-stable+timestamp.2014.09.15.23.35.11</div></td></tr><tr><td style="font-weight:bold;vertical-align:top;">wsgi.errors</td><td style="vertical-align:top;">:</td><td><div>&lt;open file &#x27;&lt;stderr&gt;&#x27;, mode &#x27;w&#x27; at 0x103b221e0&gt;</div></td></tr><tr><td style="font-weight:bold;vertical-align:top;">wsgi.file_wrapper</td><td style="vertical-align:top;">:</td><td><div>&lt;class wsgiref.util.FileWrapper at 0x104734e20&gt;</div></td></tr><tr><td style="font-weight:bold;vertical-align:top;">wsgi.input</td><td style="vertical-align:top;">:</td><td><div>&lt;socket._fileobject object at 0x1069ed6d0&gt;</div></td></tr><tr><td style="font-weight:bold;vertical-align:top;">wsgi.multiprocess</td><td style="vertical-align:top;">:</td><td><div>False</div></td></tr><tr><td style="font-weight:bold;vertical-align:top;">wsgi.multithread</td><td style="vertical-align:top;">:</td><td><div>True</div></td></tr><tr><td style="font-weight:bold;vertical-align:top;">wsgi.run_once</td><td style="vertical-align:top;">:</td><td><div>False</div></td></tr><tr><td style="font-weight:bold;vertical-align:top;">wsgi.url_scheme</td><td style="vertical-align:top;">:</td><td><div>http</div></td></tr><tr><td style="font-weight:bold;vertical-align:top;">wsgi.version</td><td style="vertical-align:top;">:</td><td><div><table><tr><td><div>1</div></td></tr><tr><td><div>0</div></td></tr></table></div></td></tr><tr><td style="font-weight:bold;vertical-align:top;">wsgi_errors</td><td style="vertical-align:top;">:</td><td><div>&lt;open file &#x27;&lt;stderr&gt;&#x27;, mode &#x27;w&#x27; at 0x103b221e0&gt;</div></td></tr><tr><td style="font-weight:bold;vertical-align:top;">wsgi_file_wrapper</td><td style="vertical-align:top;">:</td><td><div>&lt;class wsgiref.util.FileWrapper at 0x104734e20&gt;</div></td></tr><tr><td style="font-weight:bold;vertical-align:top;">wsgi_input</td><td style="vertical-align:top;">:</td><td><div>&lt;socket._fileobject object at 0x1069ed6d0&gt;</div></td></tr><tr><td style="font-weight:bold;vertical-align:top;">wsgi_multiprocess</td><td style="vertical-align:top;">:</td><td><div>False</div></td></tr><tr><td style="font-weight:bold;vertical-align:top;">wsgi_multithread</td><td style="vertical-align:top;">:</td><td><div>True</div></td></tr><tr><td style="font-weight:bold;vertical-align:top;">wsgi_run_once</td><td style="vertical-align:top;">:</td><td><div>False</div></td></tr><tr><td style="font-weight:bold;vertical-align:top;">wsgi_url_scheme</td><td style="vertical-align:top;">:</td><td><div>http</div></td></tr><tr><td style="font-weight:bold;vertical-align:top;">wsgi_version</td><td style="vertical-align:top;">:</td><td><div><table><tr><td><div>1</div></td></tr><tr><td><div>0</div></td></tr></table></div></td></tr></table></div></td></tr><tr><td style="font-weight:bold;vertical-align:top;">extension</td><td style="vertical-align:top;">:</td><td><div>html</div></td></tr><tr><td style="font-weight:bold;vertical-align:top;">folder</td><td style="vertical-align:top;">:</td><td><div>/Users/james/Documents/Dropbox/Uni/Year 4/iapt/assessment/web2py-2.9.11/web2py/applications/bootup/</div></td></tr><tr><td style="font-weight:bold;vertical-align:top;">function</td><td style="vertical-align:top;">:</td><td><div>create</div></td></tr><tr><td style="font-weight:bold;vertical-align:top;">global_settings</td><td style="vertical-align:top;">:</td><td><div><table><tr><td style="font-weight:bold;vertical-align:top;">app_folders</td><td style="vertical-align:top;">:</td><td><div>set([&#x27;/Users/james/Documents/Dropbox/Uni/Year 4/iapt/assessment/web2py-2.9.11/web2py/applications/admin/&#x27;, &#x27;/Users/james/Documents/Dropbox/Uni/Year 4/iapt/assessment/web2py-2.9.11/web2py/applications/bootup/&#x27;])</div></td></tr><tr><td style="font-weight:bold;vertical-align:top;">applications_parent</td><td style="vertical-align:top;">:</td><td><div>/Users/james/Documents/Dropbox/Uni/Year 4/iapt/assessment/web2py-2.9.11/web2py</div></td></tr><tr><td style="font-weight:bold;vertical-align:top;">cmd_args</td><td style="vertical-align:top;">:</td><td><div><table></table></div></td></tr><tr><td style="font-weight:bold;vertical-align:top;">cmd_options</td><td style="vertical-align:top;">:</td><td><div>&lt;Values at 0x10522e2d8: {&#x27;verbose&#x27;: False, &#x27;ip&#x27;: &#x27;127.0.0.1&#x27;, &#x27;debuglevel&#x27;: 30, &#x27;with_scheduler&#x27;: False, &#x27;ips&#x27;: [&#x27;192.168.1.105&#x27;], &#x27;shutdown_timeout&#x27;: 5, &#x27;taskbar&#x27;: False, &#x27;with_coverage&#x27;: False, &#x27;scheduler_groups&#x27;: None, &#x27;port&#x27;: 8000, &#x27;maxthreads&#x27;: None, &#x27;softcron&#x27;: False, &#x27;server_name&#x27;: &#x27;jt-mbp.default&#x27;, &#x27;bpython&#x27;: False, &#x27;nogui&#x27;: False, &#x27;pid_filename&#x27;: &#x27;httpserver.pid&#x27;, &#x27;extcron&#x27;: False, &#x27;runcron&#x27;: False, &#x27;run_system_tests&#x27;: False, &#x27;test&#x27;: None, &#x27;folder&#x27;: &#x27;/Users/james/Documents/Dropbox/Uni/Year 4/iapt/assessment/web2py-2.9.11/web2py&#x27;, &#x27;config&#x27;: &#x27;&#x27;, &#x27;minthreads&#x27;: None, &#x27;shell&#x27;: None, &#x27;run&#x27;: &#x27;&#x27;, &#x27;log_filename&#x27;: &#x27;httpserver.log&#x27;, &#x27;profiler_dir&#x27;: None, &#x27;args&#x27;: [&#x27;&#x27;], &#x27;socket_timeout&#x27;: 5, &#x27;ssl_ca_certificate&#x27;: None, &#x27;scheduler&#x27;: None, &#x27;interfaces&#x27;: None, &#x27;ssl_private_key&#x27;: &#x27;&#x27;, &#x27;gae&#x27;: None, &#x27;password&#x27;: &#x27;&lt;ask&gt;&#x27;, &#x27;request_queue_size&#x27;: 5, &#x27;ssl_certificate&#x27;: &#x27;&#x27;, &#x27;cronjob&#x27;: False, &#x27;numthreads&#x27;: None, &#x27;quiet&#x27;: False, &#x27;import_models&#x27;: False, &#x27;timeout&#x27;: 10, &#x27;plain&#x27;: False, &#x27;nobanner&#x27;: False}&gt;</div></td></tr><tr><td style="font-weight:bold;vertical-align:top;">db_sessions</td><td style="vertical-align:top;">:</td><td><div>set([])</div></td></tr><tr><td style="font-weight:bold;vertical-align:top;">debugging</td><td style="vertical-align:top;">:</td><td><div>False</div></td></tr><tr><td style="font-weight:bold;vertical-align:top;">gluon_parent</td><td style="vertical-align:top;">:</td><td><div>/Users/james/Documents/Dropbox/Uni/Year 4/iapt/assessment/web2py-2.9.11/web2py</div></td></tr><tr><td style="font-weight:bold;vertical-align:top;">is_jython</td><td style="vertical-align:top;">:</td><td><div>False</div></td></tr><tr><td style="font-weight:bold;vertical-align:top;">is_pypy</td><td style="vertical-align:top;">:</td><td><div>False</div></td></tr><tr><td style="font-weight:bold;vertical-align:top;">is_source</td><td style="vertical-align:top;">:</td><td><div>True</div></td></tr><tr><td style="font-weight:bold;vertical-align:top;">local_hosts</td><td style="vertical-align:top;">:</td><td><div><table><tr><td><div>jt-mbp.default</div></td></tr><tr><td><div>::1</div></td></tr><tr><td><div>::ffff:127.0.0.1</div></td></tr><tr><td><div>127.0.0.1</div></td></tr><tr><td><div>192.168.1.105</div></td></tr></table></div></td></tr><tr><td style="font-weight:bold;vertical-align:top;">web2py_version</td><td style="vertical-align:top;">:</td><td><div>2.9.11-stable+timestamp.2014.09.15.23.35.11</div></td></tr></table></div></td></tr><tr><td style="font-weight:bold;vertical-align:top;">is_https</td><td style="vertical-align:top;">:</td><td><div>False</div></td></tr><tr><td style="font-weight:bold;vertical-align:top;">is_local</td><td style="vertical-align:top;">:</td><td><div>True</div></td></tr><tr><td style="font-weight:bold;vertical-align:top;">is_restful</td><td style="vertical-align:top;">:</td><td><div>False</div></td></tr><tr><td style="font-weight:bold;vertical-align:top;">is_sheduler</td><td style="vertical-align:top;">:</td><td><div>None</div></td></tr><tr><td style="font-weight:bold;vertical-align:top;">is_shell</td><td style="vertical-align:top;">:</td><td><div>None</div></td></tr><tr><td style="font-weight:bold;vertical-align:top;">now</td><td style="vertical-align:top;">:</td><td><div>datetime.datetime(2014, 11, 25, 0, 43, 59, 865838)</div></td></tr><tr><td style="font-weight:bold;vertical-align:top;">raw_args</td><td style="vertical-align:top;">:</td><td><div>11</div></td></tr><tr><td style="font-weight:bold;vertical-align:top;">raw_extension</td><td style="vertical-align:top;">:</td><td><div>None</div></td></tr><tr><td style="font-weight:bold;vertical-align:top;">url</td><td style="vertical-align:top;">:</td><td><div>/bootup/pledge/create/11</div></td></tr><tr><td style="font-weight:bold;vertical-align:top;">utcnow</td><td style="vertical-align:top;">:</td><td><div>datetime.datetime(2014, 11, 25, 0, 43, 59, 865847)</div></td></tr><tr><td style="font-weight:bold;vertical-align:top;">uuid</td><td style="vertical-align:top;">:</td><td><div>bootup/127.0.0.1.2014-11-25.00-43-59.f28aeb1f-695d-4fa2-b885-29f5de71df86</div></td></tr><tr><td style="font-weight:bold;vertical-align:top;">wsgi</td><td style="vertical-align:top;">:</td><td><div>&lt;gluon.main.LazyWSGI object at 0x10ab7bc90&gt;</div></td></tr></table></div>'
tRp58
sS'frames'
p59
(lp60
(dp61
S'file'
p62
S'/Users/james/Documents/Dropbox/Uni/Year 4/iapt/assessment/web2py-2.9.11/web2py/gluon/restricted.py'
p63
sS'dump'
p64
(dp65
S'environment'
p66
S"{'A': <class 'gluon.html.A'>, 'ANY_OF': <class 'gluon.validators.ANY_OF'>, 'ASSIGNJS': <function ASSIGNJS>, 'B': <class 'gluon.html.B'>, 'BEAUTIFY': <class 'gluon.html.BEAUTIFY'>, 'BODY': <class 'gluon.html.BODY'>, 'BOOTUPFORM': <class 'applications.bootup.forms.bootupform.BOOTUPFORM'>, 'BR': <class 'gluon.html.BR'>, 'BUTTON': <class 'gluon.html.BUTTON'>, 'BootUpAuth': <class __restricted__.BootUpAuth>, ...}"
p67
sS'ccode'
p68
S'<code object <module> at 0x10abd9eb0, file "/Use...plications/bootup/controllers/pledge.py", line 1>'
p69
ssS'lnum'
p70
I224
sS'lines'
p71
(dp72
I224
S'        exec ccode in environment'
p73
sI225
S'    except HTTP:'
p74
sI226
S'        raise'
p75
sI227
S'    except RestrictedError:'
p76
sI228
S'        # do not encapsulate (obfuscate) the original RestrictedError'
p77
sI219
S'    try:'
p78
sI220
S'        if isinstance(code, types.CodeType):'
p79
sI221
S'            ccode = code'
p80
sI222
S'        else:'
p81
sI223
S'            ccode = compile2(code, layer)'
p82
ssS'call'
p83
S"(code='from applications.bootup.forms.bootupform import...m=form)\\n\\nresponse._vars=response._caller(create)\\n', environment={'A': <class 'gluon.html.A'>, 'ANY_OF': <class 'gluon.validators.ANY_OF'>, 'ASSIGNJS': <function ASSIGNJS>, 'B': <class 'gluon.html.B'>, 'BEAUTIFY': <class 'gluon.html.BEAUTIFY'>, 'BODY': <class 'gluon.html.BODY'>, 'BOOTUPFORM': <class 'applications.bootup.forms.bootupform.BOOTUPFORM'>, 'BR': <class 'gluon.html.BR'>, 'BUTTON': <class 'gluon.html.BUTTON'>, 'BootUpAuth': <class __restricted__.BootUpAuth>, ...}, layer='/Users/james/Documents/Dropbox/Uni/Year 4/iapt/a.../web2py/applications/bootup/controllers/pledge.py')"
p84
sS'func'
p85
S'restricted'
p86
sa(dp87
g62
S'/Users/james/Documents/Dropbox/Uni/Year 4/iapt/assessment/web2py-2.9.11/web2py/applications/bootup/controllers/pledge.py'
p88
sg64
(dp89
sg70
I93
sg71
(dp90
I82
S''
sI83
S"    form = FORM.confirm('Delete',{'Back':URL(request.env.http_referrer)})"
p91
sI84
S'    projectid = reward.reward.projectid'
p92
sI85
S''
sI86
S''
sI87
S'    if form.accepted:'
p93
sI88
S'        db(db.reward.idreward == rewardid).delete()'
p94
sI89
S"        redirect(URL('bootup','reward','view',args=[projectid]))"
p95
sI90
S''
sI91
S'    return dict(form=form)'
p96
ssg83
S'()'
p97
sg85
S'<module>'
p98
sa(dp99
g62
S'/Users/james/Documents/Dropbox/Uni/Year 4/iapt/assessment/web2py-2.9.11/web2py/gluon/globals.py'
p100
sg64
(dp101
S'self'
p102
S'undefined'
p103
sS'f'
S'<function _a>'
p104
ssg70
I392
sg71
(dp105
I387
S"        self.flash = ''            # used by the default view layout"
p106
sI388
S'        self.meta = Storage()      # used by web2py_ajax.html'
p107
sI389
S'        self.menu = []             # used by the default view layout'
p108
sI390
S'        self.files = []            # used by web2py_ajax.html'
p109
sI391
S'        self._vars = None'
p110
sI392
S'        self._caller = lambda f: f()'
p111
sI393
S'        self._view_environment = None'
p112
sI394
S'        self._custom_commit = None'
p113
sI395
S'        self._custom_rollback = None'
p114
sI396
S"        self.generic_patterns = ['*']"
p115
ssg83
S'(f=<function _a>)'
p116
sg85
S'<lambda>'
p117
sa(dp118
g62
S'/Users/james/Documents/Dropbox/Uni/Year 4/iapt/assessment/web2py-2.9.11/web2py/applications/bootup/models/auth.py'
p119
sg64
(dp120
S'fn'
p121
S'<function create>'
p122
ssg70
I20
sg71
(dp123
I13
S''
sI14
S''
sI15
S'    def requires_login(self, fn):'
p124
sI16
S'        def _a():'
p125
sI17
S'            if not self.is_logged_in():'
p126
sI18
S"                redirect(URL('bootup','user','login'))"
p127
sI19
S'                return'
p128
sI20
S'            return fn()'
p129
sI21
S'        return _a'
p130
sI22
S''
ssg83
S'()'
p131
sg85
S'_a'
p132
sa(dp133
g62
S'/Users/james/Documents/Dropbox/Uni/Year 4/iapt/assessment/web2py-2.9.11/web2py/applications/bootup/controllers/pledge.py'
p134
sg64
(dp135
S'form.process'
p136
S'<bound method BOOTUPFORM.process of <applications.bootup.forms.bootupform.BOOTUPFORM object>>'
p137
sS').accepted'
p138
g103
sS'form'
p139
S'<applications.bootup.forms.bootupform.BOOTUPFORM object>'
p140
ssg70
I41
sg71
(dp141
I36
S''
sI37
S'    form = BOOTUPFORM.factory(db.pledge,Field(\'rewards\',requires=IS_IN_DB(db(db.reward.projectid==projectid),db.reward.idreward,\'%(description)s\',multiple=[1], error_message="Please select at least one reward")))'
p142
sI38
S''
sI39
S''
sI40
S''
sI41
S'    if( form.process().accepted):'
p143
sI42
S'        db.pledge.insert(idpledge=None,description=form.vars.description, value=form.vars.value, projectid=projectid)'
p144
sI43
S"        redirect(URL('bootup','pledge','view',args=[projectid]))"
p145
sI44
S'    return dict(project=project, form=form)'
p146
sI45
S''
ssg83
S'()'
p147
sg85
S'create'
p148
sa(dp149
g62
S'/Users/james/Documents/Dropbox/Uni/Year 4/iapt/assessment/web2py-2.9.11/web2py/applications/bootup/forms/bootupform.py'
p150
sg64
(dp151
S'kwargs'
p152
g45
sS'builtinsuper'
p153
S"<type 'super'>"
p154
sS'global BOOTUPFORM'
p155
S"<class 'applications.bootup.forms.bootupform.BOOTUPFORM'>"
p156
sS'self'
p157
S'<applications.bootup.forms.bootupform.BOOTUPFORM object>'
p158
sS').process'
p159
S'<bound method BOOTUPFORM.process of <applications.bootup.forms.bootupform.BOOTUPFORM object>>'
p160
ssg70
I86
sg71
(dp161
I81
S''
sI82
S'    def process(self,*args, **kwargs):'
p162
sI83
S"        if('beforevalidation' in kwargs):"
p163
sI84
S"            call_as_list(kwargs['beforevalidation'], self)"
p164
sI85
S''
sI86
S'        return super(BOOTUPFORM,self).process(**kwargs)'
p165
sI87
S''
sI88
S'    def getFieldRequirements(self,fieldname):'
p166
sI89
S''
sI90
S'        field = (self.table[fieldname] if fieldname in self.table.fields'
p167
ssg83
S'(self=<applications.bootup.forms.bootupform.BOOTUPFORM object>, *args=(), **kwargs={})'
p168
sg85
S'process'
p169
sa(dp170
g62
S'/Users/james/Documents/Dropbox/Uni/Year 4/iapt/assessment/web2py-2.9.11/web2py/gluon/html.py'
p171
sg64
(dp172
S'self'
p173
S'<applications.bootup.forms.bootupform.BOOTUPFORM object>'
p174
sS'self.validate'
p175
S'<bound method BOOTUPFORM.validate of <applications.bootup.forms.bootupform.BOOTUPFORM object>>'
p176
sS'kwargs'
p177
S"{'dbio': True}"
p178
ssg70
I2303
sg71
(dp179
I2304
S'        return self'
p180
sI2305
S''
sI2306
S'    REDIRECT_JS = "window.location=\'%s\';return false"'
p181
sI2307
S''
sI2298
S''
sI2299
S''
sI2300
S'        """'
p182
sI2301
S"        kwargs['dbio'] = kwargs.get('dbio', True)"
p183
sI2302
S'                                    # necessary for SQLHTML forms'
p184
sI2303
S'        self.validate(**kwargs)'
p185
ssg83
S"(self=<applications.bootup.forms.bootupform.BOOTUPFORM object>, **kwargs={'dbio': True})"
p186
sg85
g169
sa(dp187
g62
S'/Users/james/Documents/Dropbox/Uni/Year 4/iapt/assessment/web2py-2.9.11/web2py/gluon/html.py'
p188
sg64
(dp189
S'self'
p190
S'<applications.bootup.forms.bootupform.BOOTUPFORM object>'
p191
sS'self.accepts'
p192
S'<bound method BOOTUPFORM.accepts of <applications.bootup.forms.bootupform.BOOTUPFORM object>>'
p193
sS'kwargs'
p194
S"{'dbio': True, 'request_vars': <Storage {'_formkey': '6568a95b-0c1b-4373-84a9-5...', 'value': '2', '_formname': 'no_table/create'}>, 'session': <Storage {'_formkey[reward/4]': ['b52d7d42-0466-...95240', 'a0038f78-9206-40e5-93c6-b89f33034871']}>}"
p195
ssg70
I2240
sg71
(dp196
I2240
S'        if self.accepts(**kwargs):'
p197
sI2241
S"            if onsuccess == 'flash':"
p198
sI2242
S'                if next:'
p199
sI2243
S'                    current.session.flash = message_onsuccess'
p200
sI2244
S'                else:'
p201
sI2235
S"        for key in ('message_onsuccess', 'message_onfailure', 'onsuccess',"
p202
sI2236
S"                    'onfailure', 'next', 'message_onchange', 'onchange'):"
p203
sI2237
S'            if key in kwargs:'
p204
sI2238
S'                del kwargs[key]'
p205
sI2239
S''
ssg83
S"(self=<applications.bootup.forms.bootupform.BOOTUPFORM object>, **kwargs={'dbio': True, 'request_vars': <Storage {'_formkey': '6568a95b-0c1b-4373-84a9-5...', 'value': '2', '_formname': 'no_table/create'}>, 'session': <Storage {'_formkey[reward/4]': ['b52d7d42-0466-...95240', 'a0038f78-9206-40e5-93c6-b89f33034871']}>})"
p206
sg85
S'validate'
p207
sa(dp208
g62
S'/Users/james/Documents/Dropbox/Uni/Year 4/iapt/assessment/web2py-2.9.11/web2py/gluon/sqlhtml.py'
p209
sg64
(dp210
S'kwargs'
p211
g45
ssg70
I1455
sg71
(dp212
I1450
S'            session,'
p213
sI1451
S'            formname,'
p214
sI1452
S'            keepvalues,'
p215
sI1453
S'            onvalidation,'
p216
sI1454
S'            hideerror=hideerror,'
p217
sI1455
S'            **kwargs'
p218
sI1456
S'        )'
p219
sI1457
S''
sI1458
S'        self.deleted = \\'
p220
sI1459
S'            request_vars.get(self.FIELDNAME_REQUEST_DELETE, False)'
p221
ssg83
S"(self=<applications.bootup.forms.bootupform.BOOTUPFORM object>, request_vars=<Storage {'_formkey': '6568a95b-0c1b-4373-84a9-5...', 'value': '2', '_formname': 'no_table/create'}>, session=<Storage {'_formkey[reward/4]': ['b52d7d42-0466-...95240', 'a0038f78-9206-40e5-93c6-b89f33034871']}>, formname='no_table/create', keepvalues=False, onvalidation=None, dbio=True, hideerror=False, detect_record_change=False, **kwargs={})"
p222
sg85
S'accepts'
p223
sa(dp224
g62
S'/Users/james/Documents/Dropbox/Uni/Year 4/iapt/assessment/web2py-2.9.11/web2py/gluon/html.py'
p225
sg64
(dp226
S'status'
p227
S'True'
p228
sS'self'
p229
S'<applications.bootup.forms.bootupform.BOOTUPFORM object>'
p230
sS'self._traverse'
p231
S'<bound method BOOTUPFORM._traverse of <applications.bootup.forms.bootupform.BOOTUPFORM object>>'
p232
sS'hideerror'
p233
S'False'
p234
ssg70
I2121
sg71
(dp235
I2116
S'        if status and session:'
p236
sI2117
S'            # check if editing a record that has been modified by the server'
p237
sI2118
S"            if hasattr(self, 'record_hash') and self.record_hash != formkey.split(':')[0]:"
p238
sI2119
S'                status = False'
p239
sI2120
S'                self.record_changed = changed = True'
p240
sI2121
S'        status = self._traverse(status, hideerror)'
p241
sI2122
S'        status = self.assert_status(status, request_vars)'
p242
sI2123
S'        if onvalidation:'
p243
sI2124
S'            if isinstance(onvalidation, dict):'
p244
sI2125
S"                onsuccess = onvalidation.get('onsuccess', None)"
p245
ssg83
S"(self=<applications.bootup.forms.bootupform.BOOTUPFORM object>, request_vars=<Storage {'_formkey': '6568a95b-0c1b-4373-84a9-5...', 'value': '2', '_formname': 'no_table/create'}>, session=<Storage {'_formkey[reward/4]': ['b52d7d42-0466-...95240', 'a0038f78-9206-40e5-93c6-b89f33034871']}>, formname='no_table/create', keepvalues=False, onvalidation=None, hideerror=False, **kwargs={})"
p246
sg85
g223
sa(dp247
g62
S'/Users/james/Documents/Dropbox/Uni/Year 4/iapt/assessment/web2py-2.9.11/web2py/gluon/html.py'
p248
sg64
(dp249
S'status'
p250
g228
sS'newstatus'
p251
g228
sS'c'
S'<gluon.html.CAT object>'
p252
sS'hideerror'
p253
g234
sS'c._traverse'
p254
S'<bound method CAT._traverse of <gluon.html.CAT object>>'
p255
ssg70
I885
sg71
(dp256
I880
S'                c.latest = self.latest'
p257
sI881
S'                c.session = self.session'
p258
sI882
S'                c.formname = self.formname'
p259
sI883
S"                if not c.attributes.get('hideerror'):"
p260
sI884
S"                    c['hideerror'] = hideerror or self.attributes.get('hideerror')"
p261
sI885
S'                newstatus = c._traverse(status, hideerror) and newstatus'
p262
sI886
S''
sI887
S'        # for input, textarea, select, option'
p263
sI888
S"        # deal with 'value' and 'validation'"
p264
sI889
S''
ssg83
S'(self=<applications.bootup.forms.bootupform.BOOTUPFORM object>, status=True, hideerror=False)'
p265
sg85
S'_traverse'
p266
sa(dp267
g62
S'/Users/james/Documents/Dropbox/Uni/Year 4/iapt/assessment/web2py-2.9.11/web2py/gluon/html.py'
p268
sg64
(dp269
S'status'
p270
g228
sS'newstatus'
p271
g228
sS'c'
S'<gluon.html.DIV object>'
p272
sS'hideerror'
p273
g234
sS'c._traverse'
p274
S'<bound method DIV._traverse of <gluon.html.DIV object>>'
p275
ssg70
I885
sg71
(dp276
I880
S'                c.latest = self.latest'
p277
sI881
S'                c.session = self.session'
p278
sI882
S'                c.formname = self.formname'
p279
sI883
S"                if not c.attributes.get('hideerror'):"
p280
sI884
S"                    c['hideerror'] = hideerror or self.attributes.get('hideerror')"
p281
sI885
S'                newstatus = c._traverse(status, hideerror) and newstatus'
p282
sI886
S''
sI887
S'        # for input, textarea, select, option'
p283
sI888
S"        # deal with 'value' and 'validation'"
p284
sI889
S''
ssg83
S'(self=<gluon.html.CAT object>, status=True, hideerror=False)'
p285
sg85
g266
sa(dp286
g62
S'/Users/james/Documents/Dropbox/Uni/Year 4/iapt/assessment/web2py-2.9.11/web2py/gluon/html.py'
p287
sg64
(dp288
S'status'
p289
g228
sS'newstatus'
p290
g228
sS'c'
S'<gluon.html.CAT object>'
p291
sS'hideerror'
p292
g234
sS'c._traverse'
p293
S'<bound method CAT._traverse of <gluon.html.CAT object>>'
p294
ssg70
I885
sg71
(dp295
I880
S'                c.latest = self.latest'
p296
sI881
S'                c.session = self.session'
p297
sI882
S'                c.formname = self.formname'
p298
sI883
S"                if not c.attributes.get('hideerror'):"
p299
sI884
S"                    c['hideerror'] = hideerror or self.attributes.get('hideerror')"
p300
sI885
S'                newstatus = c._traverse(status, hideerror) and newstatus'
p301
sI886
S''
sI887
S'        # for input, textarea, select, option'
p302
sI888
S"        # deal with 'value' and 'validation'"
p303
sI889
S''
ssg83
S'(self=<gluon.html.DIV object>, status=True, hideerror=False)'
p304
sg85
g266
sa(dp305
g62
S'/Users/james/Documents/Dropbox/Uni/Year 4/iapt/assessment/web2py-2.9.11/web2py/gluon/html.py'
p306
sg64
(dp307
S'status'
p308
g228
sS'newstatus'
p309
g228
sS'c'
S'<gluon.html.SELECT object>'
p310
sS'hideerror'
p311
g234
sS'c._traverse'
p312
S'<bound method SELECT._traverse of <gluon.html.SELECT object>>'
p313
ssg70
I885
sg71
(dp314
I880
S'                c.latest = self.latest'
p315
sI881
S'                c.session = self.session'
p316
sI882
S'                c.formname = self.formname'
p317
sI883
S"                if not c.attributes.get('hideerror'):"
p318
sI884
S"                    c['hideerror'] = hideerror or self.attributes.get('hideerror')"
p319
sI885
S'                newstatus = c._traverse(status, hideerror) and newstatus'
p320
sI886
S''
sI887
S'        # for input, textarea, select, option'
p321
sI888
S"        # deal with 'value' and 'validation'"
p322
sI889
S''
ssg83
S'(self=<gluon.html.CAT object>, status=True, hideerror=False)'
p323
sg85
g266
sa(dp324
g62
S'/Users/james/Documents/Dropbox/Uni/Year 4/iapt/assessment/web2py-2.9.11/web2py/gluon/html.py'
p325
sg64
(dp326
S'newstatus'
p327
g228
sS'self'
p328
S'<gluon.html.SELECT object>'
p329
sS'self._validate'
p330
S'<bound method SELECT._validate of <gluon.html.SELECT object>>'
p331
ssg70
I892
sg71
(dp332
I896
S'            self._postprocessing()'
p333
sI887
S'        # for input, textarea, select, option'
p334
sI888
S"        # deal with 'value' and 'validation'"
p335
sI889
S''
sI890
S"        name = self['_name']"
p336
sI891
S'        if newstatus:'
p337
sI892
S'            newstatus = self._validate()'
p338
sI893
S'            self._postprocessing()'
p339
sI894
S"        elif 'old_value' in self.attributes:"
p340
sI895
S"            self['value'] = self['old_value']"
p341
ssg83
S'(self=<gluon.html.SELECT object>, status=True, hideerror=False)'
p342
sg85
g266
sa(dp343
g62
S'/Users/james/Documents/Dropbox/Uni/Year 4/iapt/assessment/web2py-2.9.11/web2py/gluon/html.py'
p344
sg64
(dp345
S'builtinException'
p346
S"<type 'exceptions.Exception'>"
p347
sS'msg'
p348
S"'Validation error, field:rewards <gluon.validators.IS_IN_DB object at 0x10abb9410>'"
p349
ssg70
I1860
sg71
(dp350
I1856
S'                try:'
p351
sI1857
S'                    (value, errors) = validator(value)'
p352
sI1858
S'                except:'
p353
sI1859
S'                    msg = "Validation error, field:%s %s" % (name,validator)'
p354
sI1860
S'                    raise Exception(msg)'
p355
sI1861
S'                if not errors is None:'
p356
sI1862
S'                    self.vars[name] = value'
p357
sI1863
S'                    self.errors[name] = errors'
p358
sI1864
S'                    break'
p359
sI1855
S'            for k,validator in enumerate(requires):'
p360
ssg83
S'(self=<gluon.html.SELECT object>)'
p361
sg85
S'_validate'
p362
sasS'pyver'
p363
S'Python 2.7.5: /usr/bin/python (prefix: /System/Library/Frameworks/Python.framework/Versions/2.7)'
p364
sS'session'
p365
g57
(S's\x99\x00\x00\x00<div><table><tr><td style="font-weight:bold;vertical-align:top;">user</td><td style="vertical-align:top;">:</td><td><div>1L</div></td></tr></table></div>'
tRp366
sS'etype'
p367
S"<type 'exceptions.Exception'>"
p368
sS'date'
p369
S'Tue Nov 25 00:43:59 2014'
p370
sS'response'
p371
g57
(S'sW\x18\x00\x00<div><table><tr><td style="font-weight:bold;vertical-align:top;">body</td><td style="vertical-align:top;">:</td><td><div>&lt;cStringIO.StringO object at 0x10ab9dc00&gt;</div></td></tr><tr><td style="font-weight:bold;vertical-align:top;">cookies</td><td style="vertical-align:top;">:</td><td><div><table><tr><td style="font-weight:bold;vertical-align:top;">session_id_bootup</td><td style="vertical-align:top;">:</td><td><div>127.0.0.1-6543c37b-0e7c-4341-b2b0-67667ed320d5<table><tr><td style="font-weight:bold;vertical-align:top;">comment</td><td style="vertical-align:top;">:</td><td><div></div></td></tr><tr><td style="font-weight:bold;vertical-align:top;">domain</td><td style="vertical-align:top;">:</td><td><div></div></td></tr><tr><td style="font-weight:bold;vertical-align:top;">expires</td><td style="vertical-align:top;">:</td><td><div></div></td></tr><tr><td style="font-weight:bold;vertical-align:top;">httponly</td><td style="vertical-align:top;">:</td><td><div></div></td></tr><tr><td style="font-weight:bold;vertical-align:top;">max-age</td><td style="vertical-align:top;">:</td><td><div></div></td></tr><tr><td style="font-weight:bold;vertical-align:top;">path</td><td style="vertical-align:top;">:</td><td><div>/</div></td></tr><tr><td style="font-weight:bold;vertical-align:top;">secure</td><td style="vertical-align:top;">:</td><td><div></div></td></tr><tr><td style="font-weight:bold;vertical-align:top;">version</td><td style="vertical-align:top;">:</td><td><div></div></td></tr></table></div></td></tr></table></div></td></tr><tr><td style="font-weight:bold;vertical-align:top;">delimiters</td><td style="vertical-align:top;">:</td><td><div><table><tr><td><div>{{</div></td></tr><tr><td><div>}}</div></td></tr></table></div></td></tr><tr><td style="font-weight:bold;vertical-align:top;">files</td><td style="vertical-align:top;">:</td><td><div><table></table></div></td></tr><tr><td style="font-weight:bold;vertical-align:top;">flash</td><td style="vertical-align:top;">:</td><td><div></div></td></tr><tr><td style="font-weight:bold;vertical-align:top;">form_label_separator</td><td style="vertical-align:top;">:</td><td><div>: </div></td></tr><tr><td style="font-weight:bold;vertical-align:top;">formstyle</td><td style="vertical-align:top;">:</td><td><div>table3cols</div></td></tr><tr><td style="font-weight:bold;vertical-align:top;">generic_patterns</td><td style="vertical-align:top;">:</td><td><div><table><tr><td><div>*</div></td></tr></table></div></td></tr><tr><td style="font-weight:bold;vertical-align:top;">headers</td><td style="vertical-align:top;">:</td><td><div><table><tr><td style="font-weight:bold;vertical-align:top;">X-Powered-By</td><td style="vertical-align:top;">:</td><td><div>web2py</div></td></tr></table></div></td></tr><tr><td style="font-weight:bold;vertical-align:top;">menu</td><td style="vertical-align:top;">:</td><td><div><table></table></div></td></tr><tr><td style="font-weight:bold;vertical-align:top;">meta</td><td style="vertical-align:top;">:</td><td><div><table></table></div></td></tr><tr><td style="font-weight:bold;vertical-align:top;">models_to_run</td><td style="vertical-align:top;">:</td><td><div><table><tr><td><div>^\\w+\\.py$</div></td></tr><tr><td><div>^pledge/\\w+\\.py$</div></td></tr><tr><td><div>^pledge/create/\\w+\\.py$</div></td></tr></table></div></td></tr><tr><td style="font-weight:bold;vertical-align:top;">postprocessing</td><td style="vertical-align:top;">:</td><td><div><table></table></div></td></tr><tr><td style="font-weight:bold;vertical-align:top;">session_client</td><td style="vertical-align:top;">:</td><td><div>127.0.0.1</div></td></tr><tr><td style="font-weight:bold;vertical-align:top;">session_cookie_compression_level</td><td style="vertical-align:top;">:</td><td><div>None</div></td></tr><tr><td style="font-weight:bold;vertical-align:top;">session_cookie_expires</td><td style="vertical-align:top;">:</td><td><div>None</div></td></tr><tr><td style="font-weight:bold;vertical-align:top;">session_cookie_key</td><td style="vertical-align:top;">:</td><td><div>None</div></td></tr><tr><td style="font-weight:bold;vertical-align:top;">session_data_name</td><td style="vertical-align:top;">:</td><td><div>session_data_bootup</div></td></tr><tr><td style="font-weight:bold;vertical-align:top;">session_file</td><td style="vertical-align:top;">:</td><td><div>&lt;open file &#x27;/Users/james/Documents/Dropbox/Uni/Year 4/iapt/assessment/web2py-2.9.11/web2py/applications/bootup/sessions/1dd/1f1/127.0.0.1-6543c37b-0e7c-4341-b2b0-67667ed320d5&#x27;, mode &#x27;rb+&#x27; at 0x10ab1eed0&gt;</div></td></tr><tr><td style="font-weight:bold;vertical-align:top;">session_filename</td><td style="vertical-align:top;">:</td><td><div>/Users/james/Documents/Dropbox/Uni/Year 4/iapt/assessment/web2py-2.9.11/web2py/applications/bootup/sessions/127.0.0.1-6543c37b-0e7c-4341-b2b0-67667ed320d5</div></td></tr><tr><td style="font-weight:bold;vertical-align:top;">session_hash</td><td style="vertical-align:top;">:</td><td><div>09a3a83ee504b5aca324672dbf80db15</div></td></tr><tr><td style="font-weight:bold;vertical-align:top;">session_id</td><td style="vertical-align:top;">:</td><td><div>127.0.0.1-6543c37b-0e7c-4341-b2b0-67667ed320d5</div></td></tr><tr><td style="font-weight:bold;vertical-align:top;">session_id_name</td><td style="vertical-align:top;">:</td><td><div>session_id_bootup</div></td></tr><tr><td style="font-weight:bold;vertical-align:top;">session_locked</td><td style="vertical-align:top;">:</td><td><div>True</div></td></tr><tr><td style="font-weight:bold;vertical-align:top;">session_masterapp</td><td style="vertical-align:top;">:</td><td><div>bootup</div></td></tr><tr><td style="font-weight:bold;vertical-align:top;">session_new</td><td style="vertical-align:top;">:</td><td><div>False</div></td></tr><tr><td style="font-weight:bold;vertical-align:top;">session_storage_type</td><td style="vertical-align:top;">:</td><td><div>file</div></td></tr><tr><td style="font-weight:bold;vertical-align:top;">status</td><td style="vertical-align:top;">:</td><td><div>200</div></td></tr><tr><td style="font-weight:bold;vertical-align:top;">view</td><td style="vertical-align:top;">:</td><td><div>pledge/create.html</div></td></tr></table></div>'
tRp372
sS'locals'
p373
(dp374
S'name'
p375
S"'rewards'"
p376
sS'k'
S'0'
sS'value'
p377
S"['9', '8']"
p378
sS'validator'
p379
S'<gluon.validators.IS_IN_DB object>'
p380
sS'msg'
p381
S"'Validation error, field:rewards <gluon.validators.IS_IN_DB object at 0x10abb9410>'"
p382
sS'request_vars_get'
p383
S'<built-in method get of Storage object>'
p384
sS'requires'
p385
S'[<gluon.validators.IS_IN_DB object>]'
p386
sS'self'
p387
S'<gluon.html.SELECT object>'
p388
sssS'traceback'
p389
S'Traceback (most recent call last):\n  File "/Users/james/Documents/Dropbox/Uni/Year 4/iapt/assessment/web2py-2.9.11/web2py/gluon/restricted.py", line 224, in restricted\n    exec ccode in environment\n  File "/Users/james/Documents/Dropbox/Uni/Year 4/iapt/assessment/web2py-2.9.11/web2py/applications/bootup/controllers/pledge.py", line 93, in <module>\n  File "/Users/james/Documents/Dropbox/Uni/Year 4/iapt/assessment/web2py-2.9.11/web2py/gluon/globals.py", line 392, in <lambda>\n    self._caller = lambda f: f()\n  File "/Users/james/Documents/Dropbox/Uni/Year 4/iapt/assessment/web2py-2.9.11/web2py/applications/bootup/models/auth.py", line 20, in _a\n    return fn()\n  File "/Users/james/Documents/Dropbox/Uni/Year 4/iapt/assessment/web2py-2.9.11/web2py/applications/bootup/controllers/pledge.py", line 41, in create\n    if( form.process().accepted):\n  File "applications/bootup/forms/bootupform.py", line 86, in process\n    return super(BOOTUPFORM,self).process(**kwargs)\n  File "/Users/james/Documents/Dropbox/Uni/Year 4/iapt/assessment/web2py-2.9.11/web2py/gluon/html.py", line 2303, in process\n    self.validate(**kwargs)\n  File "/Users/james/Documents/Dropbox/Uni/Year 4/iapt/assessment/web2py-2.9.11/web2py/gluon/html.py", line 2240, in validate\n    if self.accepts(**kwargs):\n  File "/Users/james/Documents/Dropbox/Uni/Year 4/iapt/assessment/web2py-2.9.11/web2py/gluon/sqlhtml.py", line 1455, in accepts\n    **kwargs\n  File "/Users/james/Documents/Dropbox/Uni/Year 4/iapt/assessment/web2py-2.9.11/web2py/gluon/html.py", line 2121, in accepts\n    status = self._traverse(status, hideerror)\n  File "/Users/james/Documents/Dropbox/Uni/Year 4/iapt/assessment/web2py-2.9.11/web2py/gluon/html.py", line 885, in _traverse\n    newstatus = c._traverse(status, hideerror) and newstatus\n  File "/Users/james/Documents/Dropbox/Uni/Year 4/iapt/assessment/web2py-2.9.11/web2py/gluon/html.py", line 885, in _traverse\n    newstatus = c._traverse(status, hideerror) and newstatus\n  File "/Users/james/Documents/Dropbox/Uni/Year 4/iapt/assessment/web2py-2.9.11/web2py/gluon/html.py", line 885, in _traverse\n    newstatus = c._traverse(status, hideerror) and newstatus\n  File "/Users/james/Documents/Dropbox/Uni/Year 4/iapt/assessment/web2py-2.9.11/web2py/gluon/html.py", line 885, in _traverse\n    newstatus = c._traverse(status, hideerror) and newstatus\n  File "/Users/james/Documents/Dropbox/Uni/Year 4/iapt/assessment/web2py-2.9.11/web2py/gluon/html.py", line 892, in _traverse\n    newstatus = self._validate()\n  File "/Users/james/Documents/Dropbox/Uni/Year 4/iapt/assessment/web2py-2.9.11/web2py/gluon/html.py", line 1860, in _validate\n    raise Exception(msg)\nException: Validation error, field:rewards <gluon.validators.IS_IN_DB object at 0x10abb9410>\n'
p390
s.