(dp1
S'output'
p2
S"<type 'exceptions.AttributeError'> 'Row' object has no attribute 'project'"
p3
sS'layer'
p4
S'/Users/james/Documents/Dropbox/Uni/Year 4/iapt/assessment/web2py-2.9.11/web2py/applications/bootup/views/user/index.html'
p5
sS'code'
p6
S'categories=db().select(db.category.ALL)\nresponse.write(\'\\n<!DOCTYPE html>\\n<html>\\n<head lang="en">\\n    <meta charset="UTF-8">\\n    <title>Bootups</title>\\n    <link href=\\\'http://fonts.googleapis.com/css?family=Pacifico\\\' rel=\\\'stylesheet\\\' type=\\\'text/css\\\' />\\n    <link rel="stylesheet" href="\', escape=False)\nresponse.write(URL(\'static\',\'css/bootstrap.min.css\'))\nresponse.write(\'" />\\n    <link rel="stylesheet" href="\', escape=False)\nresponse.write(URL(\'static\',\'css/bootups.css\'))\nresponse.write(\'" />\\n\\n    <script src="\', escape=False)\nresponse.write(URL(\'static\',\'js/jquery-1.11.1.min.js\'))\nresponse.write(\'"></script>\\n    <script src="\', escape=False)\nresponse.write(URL(\'static\',\'js/bootstrap.min.js\'))\nresponse.write(\'"></script>\\n</head>\\n<body>\\n    <div class="bootups_nav navbar">\\n        <div class="container">\\n            <div class="navbar-left">\\n                <h1 class="logo">\', escape=False)\nresponse.write(A(\'BootUps\',_href=URL(\'bootup\',\'project\',\'index\')))\nresponse.write(\'</h1>\\n            </div>\\n\\n            <div class="navbar-form navbar-right bootups_nav_search">\\n                \', escape=False)\nresponse.write(\'<form class="bootups_search" method="get" action="\', escape=False)\nresponse.write(URL(\'bootup\',\'project\',\'search\'))\nresponse.write(\'" role="search">\\n    <div class="form-group">\\n        <input type="text" name="q" class="form-control">\\n    </div>\\n\\n    <button type="submit" class="btn btn-default"><span class="glyphicon glyphicon-search"></span></button>\\n</form>\\n\\n\', escape=False)\nresponse.write(\'\\n            </div>\\n        </div>\\n    </div>\\n\\n    <nav class="navbar navbar-default navbar-static-top" role="navigation">\\n      <div class="container">\\n          <ul class="nav navbar-header navbar-nav">\\n            <li>\', escape=False)\nresponse.write(A(\'Create Project\',_href=URL(\'bootup\',\'project\',\'create\')))\nresponse.write(\'</li>\\n            <li class="dropdown">\\n              <a href="#" class="dropdown-toggle" data-toggle="dropdown" role="button" aria-expanded="false">Discover BootUps <span class="caret"></span></a>\\n              <ul class="dropdown-menu" role="menu">\\n          \', escape=False)\nfor menucategory in categories:\n    response.write(\'\\n                <li>\', escape=False)\n    response.write(A(menucategory.name, _href=URL(\'bootup\',\'category\',\'view\',args=[menucategory.url])))\n    response.write(\'</li>\\n          \', escape=False)\n    pass\nresponse.write(\'\\n              </ul>\\n            </li>\\n          </ul>\\n          <ul class="nav navbar-nav navbar-right">\\n\\n\\n              \', escape=False)\nif auth.is_logged_in():\n    response.write(\'\\n                    <li>\', escape=False)\n    response.write(A(\'My Account\',_href=URL(\'bootup\',\'user\',\'index\')))\n    response.write(\'</li>\\n                    <li>\', escape=False)\n    response.write(A(\'Log Out\',_href=URL(\'bootup\',\'user\',\'logout\')))\n    response.write(\'</li>\\n              \', escape=False)\nelse:\n    response.write(\'\\n                    <li>\', escape=False)\n    response.write(A(\'Login\',_href=URL(\'bootup\',\'user\',\'login\')))\n    response.write(\'</li>\\n                    <li>\', escape=False)\n    response.write(A(\'Register\',_href=URL(\'bootup\',\'user\',\'register\')))\n    response.write(\'</li>\\n              \', escape=False)\n    pass\nresponse.write(\'\\n          </ul>\\n        </div>\\n\\n    </nav>\\n\\n    <div class="container" role="main">\\n        \', escape=False)\nresponse.write(\'\\n         <h2>My Account</h2>\\n        <div class="row">\\n            <div class="col-xs-12 col-sm-8 col-md-8 col-lg-8">\\n\\n                <div class="project_list">\\n                    <h3>Projects I\\\'ve contributed to</h3>\\n\\n                    \', escape=False)\nfor project,rewards in projects:\n    response.write(\'\\n                        \', escape=False)\n    rewards = list(rewards)\n    record=rewards[0]\n    response.write(\'\\n\', escape=False)\n    #include \'partial/project/summary.html\'\n    response.write(\'\\n\', escape=False)\n    for reward in rewards:\n        response.write(\'\\n    \', escape=False)\n        response.write(reward)\n        response.write(\'\\n\', escape=False)\n        pass\n    response.write(\'\\n                    \', escape=False)\n    pass\nresponse.write(\'\\n                </div>\\n            </div>\\n            <div class="col-xs-12 col-sm-4 col-md-4 col-lg-4">\\n                <h4>Manage my account</h4>\\n                \', escape=False)\nresponse.write(A("Personal Information",_href=URL(\'bootups\',\'user\',\'edit\')))\nresponse.write(\'<br />\\n                \', escape=False)\nresponse.write(A("Change Password",_href=URL(\'bootups\',\'user\',\'password\')))\nresponse.write(\'<br />\\n                \', escape=False)\nresponse.write(A("Address",_href=URL(\'bootups\',\'address\',\'index\')))\nresponse.write(\'<br />\\n                \', escape=False)\nresponse.write(A("Credit Cards",_href=URL(\'bootups\',\'card\',\'index\')))\nresponse.write(\'<br />\\n\\n                <h4>BootUps Dashboard</h4>\\n                \', escape=False)\nresponse.write(A("Create Project",_href=URL(\'bootups\',\'project\',\'create\')))\nresponse.write(\'<br />\\n                \', escape=False)\nresponse.write(A("Dashboard",_href=URL(\'bootups\',\'user\',\'projects\')))\nresponse.write(\'<br />\\n            </div>\\n        </div>\', escape=False)\nresponse.write(\'\\n    </div>\\n\\n    \', escape=False)\npass\nresponse.write(\'\\n\\n\\n</body>\\n</html>\', escape=False)'
p7
sS'snapshot'
p8
(dp9
S'exception'
p10
(dp11
S'__hash__'
p12
S"<method-wrapper '__hash__' of exceptions.AttributeError object>"
p13
sS'__setattr__'
p14
S"<method-wrapper '__setattr__' of exceptions.AttributeError object>"
p15
sS'__reduce_ex__'
p16
S'<built-in method __reduce_ex__ of exceptions.AttributeError object>'
p17
sS'__getslice__'
p18
S"<method-wrapper '__getslice__' of exceptions.AttributeError object>"
p19
sS'__getitem__'
p20
S"<method-wrapper '__getitem__' of exceptions.AttributeError object>"
p21
sS'__setstate__'
p22
S'<built-in method __setstate__ of exceptions.AttributeError object>'
p23
sS'args'
p24
S'("\'Row\' object has no attribute \'project\'",)'
p25
sS'__reduce__'
p26
S'<built-in method __reduce__ of exceptions.AttributeError object>'
p27
sS'__str__'
p28
S"<method-wrapper '__str__' of exceptions.AttributeError object>"
p29
sS'__format__'
p30
S'<built-in method __format__ of exceptions.AttributeError object>'
p31
sS'__getattribute__'
p32
S"<method-wrapper '__getattribute__' of exceptions.AttributeError object>"
p33
sS'__class__'
p34
S"<type 'exceptions.AttributeError'>"
p35
sS'__unicode__'
p36
S'<built-in method __unicode__ of exceptions.AttributeError object>'
p37
sS'__delattr__'
p38
S"<method-wrapper '__delattr__' of exceptions.AttributeError object>"
p39
sS'__subclasshook__'
p40
S'<built-in method __subclasshook__ of type object>'
p41
sS'__repr__'
p42
S"<method-wrapper '__repr__' of exceptions.AttributeError object>"
p43
sS'__dict__'
p44
S'{}'
p45
sS'__sizeof__'
p46
S'<built-in method __sizeof__ of exceptions.AttributeError object>'
p47
sS'__doc__'
p48
S"'Attribute not found.'"
p49
sS'__init__'
p50
S"<method-wrapper '__init__' of exceptions.AttributeError object>"
p51
sS'__new__'
p52
S'<built-in method __new__ of type object>'
p53
ssS'evalue'
p54
S"'Row' object has no attribute 'project'"
p55
sS'request'
p56
cgluon.html
XML_unpickle
p57
(S's=Y\x00\x00<div><table><tr><td style="font-weight:bold;vertical-align:top;">ajax</td><td style="vertical-align:top;">:</td><td><div>False</div></td></tr><tr><td style="font-weight:bold;vertical-align:top;">application</td><td style="vertical-align:top;">:</td><td><div>bootup</div></td></tr><tr><td style="font-weight:bold;vertical-align:top;">args</td><td style="vertical-align:top;">:</td><td><div><table></table></div></td></tr><tr><td style="font-weight:bold;vertical-align:top;">cid</td><td style="vertical-align:top;">:</td><td><div>None</div></td></tr><tr><td style="font-weight:bold;vertical-align:top;">client</td><td style="vertical-align:top;">:</td><td><div>127.0.0.1</div></td></tr><tr><td style="font-weight:bold;vertical-align:top;">controller</td><td style="vertical-align:top;">:</td><td><div>user</div></td></tr><tr><td style="font-weight:bold;vertical-align:top;">cookies</td><td style="vertical-align:top;">:</td><td><div><table><tr><td style="font-weight:bold;vertical-align:top;">session_id_admin</td><td style="vertical-align:top;">:</td><td><div>127.0.0.1-d5f035ce-fe78-483c-907e-4bbdee1f8d57<table><tr><td style="font-weight:bold;vertical-align:top;">comment</td><td style="vertical-align:top;">:</td><td><div></div></td></tr><tr><td style="font-weight:bold;vertical-align:top;">domain</td><td style="vertical-align:top;">:</td><td><div></div></td></tr><tr><td style="font-weight:bold;vertical-align:top;">expires</td><td style="vertical-align:top;">:</td><td><div></div></td></tr><tr><td style="font-weight:bold;vertical-align:top;">httponly</td><td style="vertical-align:top;">:</td><td><div></div></td></tr><tr><td style="font-weight:bold;vertical-align:top;">max-age</td><td style="vertical-align:top;">:</td><td><div></div></td></tr><tr><td style="font-weight:bold;vertical-align:top;">path</td><td style="vertical-align:top;">:</td><td><div></div></td></tr><tr><td style="font-weight:bold;vertical-align:top;">secure</td><td style="vertical-align:top;">:</td><td><div></div></td></tr><tr><td style="font-weight:bold;vertical-align:top;">version</td><td style="vertical-align:top;">:</td><td><div></div></td></tr></table></div></td></tr><tr><td style="font-weight:bold;vertical-align:top;">session_id_bootup</td><td style="vertical-align:top;">:</td><td><div>127.0.0.1-6543c37b-0e7c-4341-b2b0-67667ed320d5<table><tr><td style="font-weight:bold;vertical-align:top;">comment</td><td style="vertical-align:top;">:</td><td><div></div></td></tr><tr><td style="font-weight:bold;vertical-align:top;">domain</td><td style="vertical-align:top;">:</td><td><div></div></td></tr><tr><td style="font-weight:bold;vertical-align:top;">expires</td><td style="vertical-align:top;">:</td><td><div></div></td></tr><tr><td style="font-weight:bold;vertical-align:top;">httponly</td><td style="vertical-align:top;">:</td><td><div></div></td></tr><tr><td style="font-weight:bold;vertical-align:top;">max-age</td><td style="vertical-align:top;">:</td><td><div></div></td></tr><tr><td style="font-weight:bold;vertical-align:top;">path</td><td style="vertical-align:top;">:</td><td><div></div></td></tr><tr><td style="font-weight:bold;vertical-align:top;">secure</td><td style="vertical-align:top;">:</td><td><div></div></td></tr><tr><td style="font-weight:bold;vertical-align:top;">version</td><td style="vertical-align:top;">:</td><td><div></div></td></tr></table></div></td></tr></table></div></td></tr><tr><td style="font-weight:bold;vertical-align:top;">env</td><td style="vertical-align:top;">:</td><td><div><table><tr><td style="font-weight:bold;vertical-align:top;">HTTP_ACCEPT</td><td style="vertical-align:top;">:</td><td><div>text/html,application/xhtml+xml,application/xml;q=0.9,image/webp,*/*;q=0.8</div></td></tr><tr><td style="font-weight:bold;vertical-align:top;">HTTP_ACCEPT_ENCODING</td><td style="vertical-align:top;">:</td><td><div>gzip,deflate,sdch</div></td></tr><tr><td style="font-weight:bold;vertical-align:top;">HTTP_ACCEPT_LANGUAGE</td><td style="vertical-align:top;">:</td><td><div>en-US,en;q=0.8</div></td></tr><tr><td style="font-weight:bold;vertical-align:top;">HTTP_CACHE_CONTROL</td><td style="vertical-align:top;">:</td><td><div>max-age=0</div></td></tr><tr><td style="font-weight:bold;vertical-align:top;">HTTP_CONNECTION</td><td style="vertical-align:top;">:</td><td><div>keep-alive</div></td></tr><tr><td style="font-weight:bold;vertical-align:top;">HTTP_COOKIE</td><td style="vertical-align:top;">:</td><td><div>session_id_admin=127.0.0.1-d5f035ce-fe78-483c-907e-4bbdee1f8d57; session_id_bootup=127.0.0.1-6543c37b-0e7c-4341-b2b0-67667ed320d5</div></td></tr><tr><td style="font-weight:bold;vertical-align:top;">HTTP_HOST</td><td style="vertical-align:top;">:</td><td><div>127.0.0.1:8000</div></td></tr><tr><td style="font-weight:bold;vertical-align:top;">HTTP_REFERER</td><td style="vertical-align:top;">:</td><td><div>http://127.0.0.1:8000/bootup/project/view/1</div></td></tr><tr><td style="font-weight:bold;vertical-align:top;">HTTP_USER_AGENT</td><td style="vertical-align:top;">:</td><td><div>Mozilla/5.0 (Macintosh; Intel Mac OS X 10_9_4) AppleWebKit/537.36 (KHTML, like Gecko) Chrome/38.0.2125.122 Safari/537.36</div></td></tr><tr><td style="font-weight:bold;vertical-align:top;">PATH_INFO</td><td style="vertical-align:top;">:</td><td><div>/bootup/user/index</div></td></tr><tr><td style="font-weight:bold;vertical-align:top;">QUERY_STRING</td><td style="vertical-align:top;">:</td><td><div></div></td></tr><tr><td style="font-weight:bold;vertical-align:top;">REMOTE_ADDR</td><td style="vertical-align:top;">:</td><td><div>127.0.0.1</div></td></tr><tr><td style="font-weight:bold;vertical-align:top;">REMOTE_PORT</td><td style="vertical-align:top;">:</td><td><div>60228</div></td></tr><tr><td style="font-weight:bold;vertical-align:top;">REQUEST_METHOD</td><td style="vertical-align:top;">:</td><td><div>GET</div></td></tr><tr><td style="font-weight:bold;vertical-align:top;">SCRIPT_NAME</td><td style="vertical-align:top;">:</td><td><div></div></td></tr><tr><td style="font-weight:bold;vertical-align:top;">SERVER_NAME</td><td style="vertical-align:top;">:</td><td><div>jt-mbp.default</div></td></tr><tr><td style="font-weight:bold;vertical-align:top;">SERVER_PORT</td><td style="vertical-align:top;">:</td><td><div>8000</div></td></tr><tr><td style="font-weight:bold;vertical-align:top;">SERVER_PROTOCOL</td><td style="vertical-align:top;">:</td><td><div>HTTP/1.1</div></td></tr><tr><td style="font-weight:bold;vertical-align:top;">SERVER_SOFTWARE</td><td style="vertical-align:top;">:</td><td><div>Rocket 1.2.6</div></td></tr><tr><td style="font-weight:bold;vertical-align:top;">app_folders</td><td style="vertical-align:top;">:</td><td><div>set([&#x27;/Users/james/Documents/Dropbox/Uni/Year 4/iapt/assessment/web2py-2.9.11/web2py/applications/admin/&#x27;, &#x27;/Users/james/Documents/Dropbox/Uni/Year 4/iapt/assessment/web2py-2.9.11/web2py/applications/bootup/&#x27;])</div></td></tr><tr><td style="font-weight:bold;vertical-align:top;">applications_parent</td><td style="vertical-align:top;">:</td><td><div>/Users/james/Documents/Dropbox/Uni/Year 4/iapt/assessment/web2py-2.9.11/web2py</div></td></tr><tr><td style="font-weight:bold;vertical-align:top;">cmd_args</td><td style="vertical-align:top;">:</td><td><div><table></table></div></td></tr><tr><td style="font-weight:bold;vertical-align:top;">cmd_options</td><td style="vertical-align:top;">:</td><td><div>&lt;Values at 0x1037e72d8: {&#x27;verbose&#x27;: False, &#x27;ip&#x27;: &#x27;127.0.0.1&#x27;, &#x27;debuglevel&#x27;: 30, &#x27;with_scheduler&#x27;: False, &#x27;ips&#x27;: [&#x27;192.168.1.105&#x27;], &#x27;shutdown_timeout&#x27;: 5, &#x27;taskbar&#x27;: False, &#x27;with_coverage&#x27;: False, &#x27;scheduler_groups&#x27;: None, &#x27;port&#x27;: 8000, &#x27;maxthreads&#x27;: None, &#x27;softcron&#x27;: False, &#x27;server_name&#x27;: &#x27;jt-mbp.default&#x27;, &#x27;bpython&#x27;: False, &#x27;nogui&#x27;: False, &#x27;pid_filename&#x27;: &#x27;httpserver.pid&#x27;, &#x27;extcron&#x27;: False, &#x27;runcron&#x27;: False, &#x27;run_system_tests&#x27;: False, &#x27;test&#x27;: None, &#x27;folder&#x27;: &#x27;/Users/james/Documents/Dropbox/Uni/Year 4/iapt/assessment/web2py-2.9.11/web2py&#x27;, &#x27;config&#x27;: &#x27;&#x27;, &#x27;minthreads&#x27;: None, &#x27;shell&#x27;: None, &#x27;run&#x27;: &#x27;&#x27;, &#x27;log_filename&#x27;: &#x27;httpserver.log&#x27;, &#x27;profiler_dir&#x27;: None, &#x27;args&#x27;: [&#x27;&#x27;], &#x27;socket_timeout&#x27;: 5, &#x27;ssl_ca_certificate&#x27;: None, &#x27;scheduler&#x27;: None, &#x27;interfaces&#x27;: None, &#x27;ssl_private_key&#x27;: &#x27;&#x27;, &#x27;gae&#x27;: None, &#x27;password&#x27;: &#x27;&lt;ask&gt;&#x27;, &#x27;request_queue_size&#x27;: 5, &#x27;ssl_certificate&#x27;: &#x27;&#x27;, &#x27;cronjob&#x27;: False, &#x27;numthreads&#x27;: None, &#x27;quiet&#x27;: False, &#x27;import_models&#x27;: False, &#x27;timeout&#x27;: 10, &#x27;plain&#x27;: False, &#x27;nobanner&#x27;: False}&gt;</div></td></tr><tr><td style="font-weight:bold;vertical-align:top;">db_sessions</td><td style="vertical-align:top;">:</td><td><div>set([])</div></td></tr><tr><td style="font-weight:bold;vertical-align:top;">debugging</td><td style="vertical-align:top;">:</td><td><div>False</div></td></tr><tr><td style="font-weight:bold;vertical-align:top;">gluon_parent</td><td style="vertical-align:top;">:</td><td><div>/Users/james/Documents/Dropbox/Uni/Year 4/iapt/assessment/web2py-2.9.11/web2py</div></td></tr><tr><td style="font-weight:bold;vertical-align:top;">http_accept</td><td style="vertical-align:top;">:</td><td><div>text/html,application/xhtml+xml,application/xml;q=0.9,image/webp,*/*;q=0.8</div></td></tr><tr><td style="font-weight:bold;vertical-align:top;">http_accept_encoding</td><td style="vertical-align:top;">:</td><td><div>gzip,deflate,sdch</div></td></tr><tr><td style="font-weight:bold;vertical-align:top;">http_accept_language</td><td style="vertical-align:top;">:</td><td><div>en-US,en;q=0.8</div></td></tr><tr><td style="font-weight:bold;vertical-align:top;">http_cache_control</td><td style="vertical-align:top;">:</td><td><div>max-age=0</div></td></tr><tr><td style="font-weight:bold;vertical-align:top;">http_connection</td><td style="vertical-align:top;">:</td><td><div>keep-alive</div></td></tr><tr><td style="font-weight:bold;vertical-align:top;">http_cookie</td><td style="vertical-align:top;">:</td><td><div>session_id_admin=127.0.0.1-d5f035ce-fe78-483c-907e-4bbdee1f8d57; session_id_bootup=127.0.0.1-6543c37b-0e7c-4341-b2b0-67667ed320d5</div></td></tr><tr><td style="font-weight:bold;vertical-align:top;">http_host</td><td style="vertical-align:top;">:</td><td><div>127.0.0.1:8000</div></td></tr><tr><td style="font-weight:bold;vertical-align:top;">http_referer</td><td style="vertical-align:top;">:</td><td><div>http://127.0.0.1:8000/bootup/project/view/1</div></td></tr><tr><td style="font-weight:bold;vertical-align:top;">http_user_agent</td><td style="vertical-align:top;">:</td><td><div>Mozilla/5.0 (Macintosh; Intel Mac OS X 10_9_4) AppleWebKit/537.36 (KHTML, like Gecko) Chrome/38.0.2125.122 Safari/537.36</div></td></tr><tr><td style="font-weight:bold;vertical-align:top;">is_jython</td><td style="vertical-align:top;">:</td><td><div>False</div></td></tr><tr><td style="font-weight:bold;vertical-align:top;">is_pypy</td><td style="vertical-align:top;">:</td><td><div>False</div></td></tr><tr><td style="font-weight:bold;vertical-align:top;">is_source</td><td style="vertical-align:top;">:</td><td><div>True</div></td></tr><tr><td style="font-weight:bold;vertical-align:top;">local_hosts</td><td style="vertical-align:top;">:</td><td><div><table><tr><td><div>jt-mbp.default</div></td></tr><tr><td><div>::1</div></td></tr><tr><td><div>::ffff:127.0.0.1</div></td></tr><tr><td><div>127.0.0.1</div></td></tr><tr><td><div>192.168.1.105</div></td></tr></table></div></td></tr><tr><td style="font-weight:bold;vertical-align:top;">path_info</td><td style="vertical-align:top;">:</td><td><div>/bootup/user/index</div></td></tr><tr><td style="font-weight:bold;vertical-align:top;">query_string</td><td style="vertical-align:top;">:</td><td><div></div></td></tr><tr><td style="font-weight:bold;vertical-align:top;">remote_addr</td><td style="vertical-align:top;">:</td><td><div>127.0.0.1</div></td></tr><tr><td style="font-weight:bold;vertical-align:top;">remote_port</td><td style="vertical-align:top;">:</td><td><div>60228</div></td></tr><tr><td style="font-weight:bold;vertical-align:top;">request_method</td><td style="vertical-align:top;">:</td><td><div>GET</div></td></tr><tr><td style="font-weight:bold;vertical-align:top;">request_uri</td><td style="vertical-align:top;">:</td><td><div>/bootup/user/index</div></td></tr><tr><td style="font-weight:bold;vertical-align:top;">script_name</td><td style="vertical-align:top;">:</td><td><div></div></td></tr><tr><td style="font-weight:bold;vertical-align:top;">server_name</td><td style="vertical-align:top;">:</td><td><div>jt-mbp.default</div></td></tr><tr><td style="font-weight:bold;vertical-align:top;">server_port</td><td style="vertical-align:top;">:</td><td><div>8000</div></td></tr><tr><td style="font-weight:bold;vertical-align:top;">server_protocol</td><td style="vertical-align:top;">:</td><td><div>HTTP/1.1</div></td></tr><tr><td style="font-weight:bold;vertical-align:top;">server_software</td><td style="vertical-align:top;">:</td><td><div>Rocket 1.2.6</div></td></tr><tr><td style="font-weight:bold;vertical-align:top;">web2py_path</td><td style="vertical-align:top;">:</td><td><div>/Users/james/Documents/Dropbox/Uni/Year 4/iapt/assessment/web2py-2.9.11/web2py</div></td></tr><tr><td style="font-weight:bold;vertical-align:top;">web2py_version</td><td style="vertical-align:top;">:</td><td><div>2.9.11-stable+timestamp.2014.09.15.23.35.11</div></td></tr><tr><td style="font-weight:bold;vertical-align:top;">wsgi.errors</td><td style="vertical-align:top;">:</td><td><div>&lt;open file &#x27;&lt;stderr&gt;&#x27;, mode &#x27;w&#x27; at 0x1029061e0&gt;</div></td></tr><tr><td style="font-weight:bold;vertical-align:top;">wsgi.file_wrapper</td><td style="vertical-align:top;">:</td><td><div>&lt;class wsgiref.util.FileWrapper at 0x103519e20&gt;</div></td></tr><tr><td style="font-weight:bold;vertical-align:top;">wsgi.input</td><td style="vertical-align:top;">:</td><td><div>&lt;socket._fileobject object at 0x104091cd0&gt;</div></td></tr><tr><td style="font-weight:bold;vertical-align:top;">wsgi.multiprocess</td><td style="vertical-align:top;">:</td><td><div>False</div></td></tr><tr><td style="font-weight:bold;vertical-align:top;">wsgi.multithread</td><td style="vertical-align:top;">:</td><td><div>True</div></td></tr><tr><td style="font-weight:bold;vertical-align:top;">wsgi.run_once</td><td style="vertical-align:top;">:</td><td><div>False</div></td></tr><tr><td style="font-weight:bold;vertical-align:top;">wsgi.url_scheme</td><td style="vertical-align:top;">:</td><td><div>http</div></td></tr><tr><td style="font-weight:bold;vertical-align:top;">wsgi.version</td><td style="vertical-align:top;">:</td><td><div><table><tr><td><div>1</div></td></tr><tr><td><div>0</div></td></tr></table></div></td></tr><tr><td style="font-weight:bold;vertical-align:top;">wsgi_errors</td><td style="vertical-align:top;">:</td><td><div>&lt;open file &#x27;&lt;stderr&gt;&#x27;, mode &#x27;w&#x27; at 0x1029061e0&gt;</div></td></tr><tr><td style="font-weight:bold;vertical-align:top;">wsgi_file_wrapper</td><td style="vertical-align:top;">:</td><td><div>&lt;class wsgiref.util.FileWrapper at 0x103519e20&gt;</div></td></tr><tr><td style="font-weight:bold;vertical-align:top;">wsgi_input</td><td style="vertical-align:top;">:</td><td><div>&lt;socket._fileobject object at 0x104091cd0&gt;</div></td></tr><tr><td style="font-weight:bold;vertical-align:top;">wsgi_multiprocess</td><td style="vertical-align:top;">:</td><td><div>False</div></td></tr><tr><td style="font-weight:bold;vertical-align:top;">wsgi_multithread</td><td style="vertical-align:top;">:</td><td><div>True</div></td></tr><tr><td style="font-weight:bold;vertical-align:top;">wsgi_run_once</td><td style="vertical-align:top;">:</td><td><div>False</div></td></tr><tr><td style="font-weight:bold;vertical-align:top;">wsgi_url_scheme</td><td style="vertical-align:top;">:</td><td><div>http</div></td></tr><tr><td style="font-weight:bold;vertical-align:top;">wsgi_version</td><td style="vertical-align:top;">:</td><td><div><table><tr><td><div>1</div></td></tr><tr><td><div>0</div></td></tr></table></div></td></tr></table></div></td></tr><tr><td style="font-weight:bold;vertical-align:top;">extension</td><td style="vertical-align:top;">:</td><td><div>html</div></td></tr><tr><td style="font-weight:bold;vertical-align:top;">folder</td><td style="vertical-align:top;">:</td><td><div>/Users/james/Documents/Dropbox/Uni/Year 4/iapt/assessment/web2py-2.9.11/web2py/applications/bootup/</div></td></tr><tr><td style="font-weight:bold;vertical-align:top;">function</td><td style="vertical-align:top;">:</td><td><div>index</div></td></tr><tr><td style="font-weight:bold;vertical-align:top;">global_settings</td><td style="vertical-align:top;">:</td><td><div><table><tr><td style="font-weight:bold;vertical-align:top;">app_folders</td><td style="vertical-align:top;">:</td><td><div>set([&#x27;/Users/james/Documents/Dropbox/Uni/Year 4/iapt/assessment/web2py-2.9.11/web2py/applications/admin/&#x27;, &#x27;/Users/james/Documents/Dropbox/Uni/Year 4/iapt/assessment/web2py-2.9.11/web2py/applications/bootup/&#x27;])</div></td></tr><tr><td style="font-weight:bold;vertical-align:top;">applications_parent</td><td style="vertical-align:top;">:</td><td><div>/Users/james/Documents/Dropbox/Uni/Year 4/iapt/assessment/web2py-2.9.11/web2py</div></td></tr><tr><td style="font-weight:bold;vertical-align:top;">cmd_args</td><td style="vertical-align:top;">:</td><td><div><table></table></div></td></tr><tr><td style="font-weight:bold;vertical-align:top;">cmd_options</td><td style="vertical-align:top;">:</td><td><div>&lt;Values at 0x1037e72d8: {&#x27;verbose&#x27;: False, &#x27;ip&#x27;: &#x27;127.0.0.1&#x27;, &#x27;debuglevel&#x27;: 30, &#x27;with_scheduler&#x27;: False, &#x27;ips&#x27;: [&#x27;192.168.1.105&#x27;], &#x27;shutdown_timeout&#x27;: 5, &#x27;taskbar&#x27;: False, &#x27;with_coverage&#x27;: False, &#x27;scheduler_groups&#x27;: None, &#x27;port&#x27;: 8000, &#x27;maxthreads&#x27;: None, &#x27;softcron&#x27;: False, &#x27;server_name&#x27;: &#x27;jt-mbp.default&#x27;, &#x27;bpython&#x27;: False, &#x27;nogui&#x27;: False, &#x27;pid_filename&#x27;: &#x27;httpserver.pid&#x27;, &#x27;extcron&#x27;: False, &#x27;runcron&#x27;: False, &#x27;run_system_tests&#x27;: False, &#x27;test&#x27;: None, &#x27;folder&#x27;: &#x27;/Users/james/Documents/Dropbox/Uni/Year 4/iapt/assessment/web2py-2.9.11/web2py&#x27;, &#x27;config&#x27;: &#x27;&#x27;, &#x27;minthreads&#x27;: None, &#x27;shell&#x27;: None, &#x27;run&#x27;: &#x27;&#x27;, &#x27;log_filename&#x27;: &#x27;httpserver.log&#x27;, &#x27;profiler_dir&#x27;: None, &#x27;args&#x27;: [&#x27;&#x27;], &#x27;socket_timeout&#x27;: 5, &#x27;ssl_ca_certificate&#x27;: None, &#x27;scheduler&#x27;: None, &#x27;interfaces&#x27;: None, &#x27;ssl_private_key&#x27;: &#x27;&#x27;, &#x27;gae&#x27;: None, &#x27;password&#x27;: &#x27;&lt;ask&gt;&#x27;, &#x27;request_queue_size&#x27;: 5, &#x27;ssl_certificate&#x27;: &#x27;&#x27;, &#x27;cronjob&#x27;: False, &#x27;numthreads&#x27;: None, &#x27;quiet&#x27;: False, &#x27;import_models&#x27;: False, &#x27;timeout&#x27;: 10, &#x27;plain&#x27;: False, &#x27;nobanner&#x27;: False}&gt;</div></td></tr><tr><td style="font-weight:bold;vertical-align:top;">db_sessions</td><td style="vertical-align:top;">:</td><td><div>set([])</div></td></tr><tr><td style="font-weight:bold;vertical-align:top;">debugging</td><td style="vertical-align:top;">:</td><td><div>False</div></td></tr><tr><td style="font-weight:bold;vertical-align:top;">gluon_parent</td><td style="vertical-align:top;">:</td><td><div>/Users/james/Documents/Dropbox/Uni/Year 4/iapt/assessment/web2py-2.9.11/web2py</div></td></tr><tr><td style="font-weight:bold;vertical-align:top;">is_jython</td><td style="vertical-align:top;">:</td><td><div>False</div></td></tr><tr><td style="font-weight:bold;vertical-align:top;">is_pypy</td><td style="vertical-align:top;">:</td><td><div>False</div></td></tr><tr><td style="font-weight:bold;vertical-align:top;">is_source</td><td style="vertical-align:top;">:</td><td><div>True</div></td></tr><tr><td style="font-weight:bold;vertical-align:top;">local_hosts</td><td style="vertical-align:top;">:</td><td><div><table><tr><td><div>jt-mbp.default</div></td></tr><tr><td><div>::1</div></td></tr><tr><td><div>::ffff:127.0.0.1</div></td></tr><tr><td><div>127.0.0.1</div></td></tr><tr><td><div>192.168.1.105</div></td></tr></table></div></td></tr><tr><td style="font-weight:bold;vertical-align:top;">web2py_version</td><td style="vertical-align:top;">:</td><td><div>2.9.11-stable+timestamp.2014.09.15.23.35.11</div></td></tr></table></div></td></tr><tr><td style="font-weight:bold;vertical-align:top;">is_https</td><td style="vertical-align:top;">:</td><td><div>False</div></td></tr><tr><td style="font-weight:bold;vertical-align:top;">is_local</td><td style="vertical-align:top;">:</td><td><div>True</div></td></tr><tr><td style="font-weight:bold;vertical-align:top;">is_restful</td><td style="vertical-align:top;">:</td><td><div>False</div></td></tr><tr><td style="font-weight:bold;vertical-align:top;">is_sheduler</td><td style="vertical-align:top;">:</td><td><div>None</div></td></tr><tr><td style="font-weight:bold;vertical-align:top;">is_shell</td><td style="vertical-align:top;">:</td><td><div>None</div></td></tr><tr><td style="font-weight:bold;vertical-align:top;">now</td><td style="vertical-align:top;">:</td><td><div>datetime.datetime(2014, 11, 24, 16, 52, 53, 461238)</div></td></tr><tr><td style="font-weight:bold;vertical-align:top;">raw_args</td><td style="vertical-align:top;">:</td><td><div></div></td></tr><tr><td style="font-weight:bold;vertical-align:top;">raw_extension</td><td style="vertical-align:top;">:</td><td><div>None</div></td></tr><tr><td style="font-weight:bold;vertical-align:top;">url</td><td style="vertical-align:top;">:</td><td><div>/bootup/user/index</div></td></tr><tr><td style="font-weight:bold;vertical-align:top;">utcnow</td><td style="vertical-align:top;">:</td><td><div>datetime.datetime(2014, 11, 24, 16, 52, 53, 461249)</div></td></tr><tr><td style="font-weight:bold;vertical-align:top;">uuid</td><td style="vertical-align:top;">:</td><td><div>bootup/127.0.0.1.2014-11-24.16-52-53.8ec1e029-a0e9-4519-a58f-ffe5ed89904c</div></td></tr><tr><td style="font-weight:bold;vertical-align:top;">wsgi</td><td style="vertical-align:top;">:</td><td><div>&lt;gluon.main.LazyWSGI object at 0x109af4710&gt;</div></td></tr></table></div>'
tRp58
sS'frames'
p59
(lp60
(dp61
S'file'
p62
S'/Users/james/Documents/Dropbox/Uni/Year 4/iapt/assessment/web2py-2.9.11/web2py/gluon/restricted.py'
p63
sS'dump'
p64
(dp65
S'environment'
p66
S"{'A': <class 'gluon.html.A'>, 'ANY_OF': <class 'gluon.validators.ANY_OF'>, 'ASSIGNJS': <function ASSIGNJS>, 'B': <class 'gluon.html.B'>, 'BEAUTIFY': <class 'gluon.html.BEAUTIFY'>, 'BODY': <class 'gluon.html.BODY'>, 'BR': <class 'gluon.html.BR'>, 'BUTTON': <class 'gluon.html.BUTTON'>, 'BootUpAuth': <class __restricted__.BootUpAuth>, 'CAT': <class 'gluon.html.CAT'>, ...}"
p67
sS'ccode'
p68
S'<code object <module> at 0x109c72730, file "/Use...plications/bootup/views/user/index.html", line 1>'
p69
ssS'lnum'
p70
I224
sS'lines'
p71
(dp72
I224
S'        exec ccode in environment'
p73
sI225
S'    except HTTP:'
p74
sI226
S'        raise'
p75
sI227
S'    except RestrictedError:'
p76
sI228
S'        # do not encapsulate (obfuscate) the original RestrictedError'
p77
sI219
S'    try:'
p78
sI220
S'        if isinstance(code, types.CodeType):'
p79
sI221
S'            ccode = code'
p80
sI222
S'        else:'
p81
sI223
S'            ccode = compile2(code, layer)'
p82
ssS'call'
p83
S'(code="categories=db().select(db.category.ALL)\\nresponse...nse.write(\'\\\\n\\\\n\\\\n</body>\\\\n</html>\', escape=False)", environment={\'A\': <class \'gluon.html.A\'>, \'ANY_OF\': <class \'gluon.validators.ANY_OF\'>, \'ASSIGNJS\': <function ASSIGNJS>, \'B\': <class \'gluon.html.B\'>, \'BEAUTIFY\': <class \'gluon.html.BEAUTIFY\'>, \'BODY\': <class \'gluon.html.BODY\'>, \'BR\': <class \'gluon.html.BR\'>, \'BUTTON\': <class \'gluon.html.BUTTON\'>, \'BootUpAuth\': <class __restricted__.BootUpAuth>, \'CAT\': <class \'gluon.html.CAT\'>, ...}, layer=\'/Users/james/Documents/Dropbox/Uni/Year 4/iapt/a.../web2py/applications/bootup/views/user/index.html\')'
p84
sS'func'
p85
S'restricted'
p86
sa(dp87
g62
S'/Users/james/Documents/Dropbox/Uni/Year 4/iapt/assessment/web2py-2.9.11/web2py/applications/bootup/views/user/index.html'
p88
sg64
(dp89
sg70
I40
sg71
(dp90
I32
S"    response.write('\\n                    <li>', escape=False)"
p91
sI33
S"    response.write(A('Login',_href=URL('bootup','user','login')))"
p92
sI34
S"    response.write('</li>\\n                    <li>', escape=False)"
p93
sI35
S"    response.write(A('Register',_href=URL('bootup','user','register')))"
p94
sI36
S"    response.write('</li>\\n              ', escape=False)"
p95
sI37
S'    pass'
p96
sI38
S'response.write(\'\\n          </ul>\\n        </div>\\n\\n    </nav>\\n\\n    <div class="container" role="main">\\n        \', escape=False)'
p97
sI39
S'response.write(\'\\n         <h2>My Account</h2>\\n        <div class="row">\\n            <div class="col-xs-12 col-sm-8 col-md-8 col-lg-8">\\n\\n                <div class="project_list">\\n                    <h3>Projects I\\\'ve contributed to</h3>\\n\\n                    \', escape=False)'
p98
sI40
S'for project,rewards in projects:'
p99
sI41
S"    response.write('\\n                        ', escape=False)"
p100
sI42
S'    rewards = list(rewards)'
p101
sI43
S'    record=rewards[0]'
p102
sI44
S"    response.write('\\n', escape=False)"
p103
sI45
S"    #include 'partial/project/summary.html'"
p104
sI46
S"    response.write('\\n', escape=False)"
p105
sI47
S'    for reward in rewards:'
p106
sI48
S"        response.write('\\n    ', escape=False)"
p107
sI49
S'        response.write(reward)'
p108
sI50
S"        response.write('\\n', escape=False)"
p109
sI31
S'else:'
p110
ssg83
S'()'
p111
sg85
S'<module>'
p112
sa(dp113
g62
S'/Users/james/Documents/Dropbox/Uni/Year 4/iapt/assessment/web2py-2.9.11/web2py/applications/bootup/models/db.py'
p114
sg64
(dp115
S'item'
p116
S"<Row {'expectedrewards': {'rewarddescription': '...etime.date(2014, 1, 1), 'iduser': 1L, 'id': 1L}}>"
p117
sS'item.project'
p118
S'undefined'
p119
sS'key'
p120
g119
ssg70
I42
sg71
(dp121
I37
S'                    .select(db.expectedrewards.ALL,'
p122
sI38
S''
sI39
S'                            db.projectstat.ALL,'
p123
sI40
S'                            db.pledge.ALL,'
p124
sI41
S'                            db.user.ALL),'
p125
sI42
S'                    key=lambda item:item.project.idproject))'
p126
sI43
S')'
sI44
S''
sI45
S''
sI46
S"#As primary key is a reference to user, the type='id' parameter cannot be set, use the primarykey= kwarg instead"
p127
ssg83
S"(item=<Row {'expectedrewards': {'rewarddescription': '...etime.date(2014, 1, 1), 'iduser': 1L, 'id': 1L}}>)"
p128
sg85
S'<lambda>'
p129
sa(dp130
g62
S'/Users/james/Documents/Dropbox/Uni/Year 4/iapt/assessment/web2py-2.9.11/web2py/gluon/dal.py'
p131
sg64
(dp132
S'ae'
p133
S'AttributeError("\'Row\' object has no attribute \'project\'",)'
p134
ssg70
I7529
sg71
(dp135
I7524
S'        except (KeyError, AttributeError, TypeError), ae:'
p136
sI7525
S'            try:'
p137
sI7526
S"                self[key] = ogetattr(self, '__get_lazy_reference__')(key)"
p138
sI7527
S'                return self[key]'
p139
sI7528
S'            except:'
p140
sI7529
S'                raise ae'
p141
sI7530
S''
sI7531
S'    __setitem__ = lambda self, key, value: setattr(self, str(key), value)'
p142
sI7532
S''
sI7533
S'    __delitem__ = object.__delattr__'
p143
ssg83
S"(self=<Row {'expectedrewards': {'rewarddescription': '...etime.date(2014, 1, 1), 'iduser': 1L, 'id': 1L}}>, k='project')"
p144
sg85
g20
sasS'pyver'
p145
S'Python 2.7.5: /usr/bin/python (prefix: /System/Library/Frameworks/Python.framework/Versions/2.7)'
p146
sS'session'
p147
g57
(S's\x99\x00\x00\x00<div><table><tr><td style="font-weight:bold;vertical-align:top;">user</td><td style="vertical-align:top;">:</td><td><div>1L</div></td></tr></table></div>'
tRp148
sS'etype'
p149
S"<type 'exceptions.AttributeError'>"
p150
sS'date'
p151
S'Mon Nov 24 16:52:53 2014'
p152
sS'response'
p153
g57
(S'sO\x18\x00\x00<div><table><tr><td style="font-weight:bold;vertical-align:top;">body</td><td style="vertical-align:top;">:</td><td><div>&lt;cStringIO.StringO object at 0x109cce768&gt;</div></td></tr><tr><td style="font-weight:bold;vertical-align:top;">cookies</td><td style="vertical-align:top;">:</td><td><div><table><tr><td style="font-weight:bold;vertical-align:top;">session_id_bootup</td><td style="vertical-align:top;">:</td><td><div>127.0.0.1-6543c37b-0e7c-4341-b2b0-67667ed320d5<table><tr><td style="font-weight:bold;vertical-align:top;">comment</td><td style="vertical-align:top;">:</td><td><div></div></td></tr><tr><td style="font-weight:bold;vertical-align:top;">domain</td><td style="vertical-align:top;">:</td><td><div></div></td></tr><tr><td style="font-weight:bold;vertical-align:top;">expires</td><td style="vertical-align:top;">:</td><td><div></div></td></tr><tr><td style="font-weight:bold;vertical-align:top;">httponly</td><td style="vertical-align:top;">:</td><td><div></div></td></tr><tr><td style="font-weight:bold;vertical-align:top;">max-age</td><td style="vertical-align:top;">:</td><td><div></div></td></tr><tr><td style="font-weight:bold;vertical-align:top;">path</td><td style="vertical-align:top;">:</td><td><div>/</div></td></tr><tr><td style="font-weight:bold;vertical-align:top;">secure</td><td style="vertical-align:top;">:</td><td><div></div></td></tr><tr><td style="font-weight:bold;vertical-align:top;">version</td><td style="vertical-align:top;">:</td><td><div></div></td></tr></table></div></td></tr></table></div></td></tr><tr><td style="font-weight:bold;vertical-align:top;">delimiters</td><td style="vertical-align:top;">:</td><td><div><table><tr><td><div>{{</div></td></tr><tr><td><div>}}</div></td></tr></table></div></td></tr><tr><td style="font-weight:bold;vertical-align:top;">files</td><td style="vertical-align:top;">:</td><td><div><table></table></div></td></tr><tr><td style="font-weight:bold;vertical-align:top;">flash</td><td style="vertical-align:top;">:</td><td><div></div></td></tr><tr><td style="font-weight:bold;vertical-align:top;">form_label_separator</td><td style="vertical-align:top;">:</td><td><div>: </div></td></tr><tr><td style="font-weight:bold;vertical-align:top;">formstyle</td><td style="vertical-align:top;">:</td><td><div>table3cols</div></td></tr><tr><td style="font-weight:bold;vertical-align:top;">generic_patterns</td><td style="vertical-align:top;">:</td><td><div><table><tr><td><div>*</div></td></tr></table></div></td></tr><tr><td style="font-weight:bold;vertical-align:top;">headers</td><td style="vertical-align:top;">:</td><td><div><table><tr><td style="font-weight:bold;vertical-align:top;">X-Powered-By</td><td style="vertical-align:top;">:</td><td><div>web2py</div></td></tr></table></div></td></tr><tr><td style="font-weight:bold;vertical-align:top;">menu</td><td style="vertical-align:top;">:</td><td><div><table></table></div></td></tr><tr><td style="font-weight:bold;vertical-align:top;">meta</td><td style="vertical-align:top;">:</td><td><div><table></table></div></td></tr><tr><td style="font-weight:bold;vertical-align:top;">models_to_run</td><td style="vertical-align:top;">:</td><td><div><table><tr><td><div>^\\w+\\.py$</div></td></tr><tr><td><div>^user/\\w+\\.py$</div></td></tr><tr><td><div>^user/index/\\w+\\.py$</div></td></tr></table></div></td></tr><tr><td style="font-weight:bold;vertical-align:top;">postprocessing</td><td style="vertical-align:top;">:</td><td><div><table></table></div></td></tr><tr><td style="font-weight:bold;vertical-align:top;">session_client</td><td style="vertical-align:top;">:</td><td><div>127.0.0.1</div></td></tr><tr><td style="font-weight:bold;vertical-align:top;">session_cookie_compression_level</td><td style="vertical-align:top;">:</td><td><div>None</div></td></tr><tr><td style="font-weight:bold;vertical-align:top;">session_cookie_expires</td><td style="vertical-align:top;">:</td><td><div>None</div></td></tr><tr><td style="font-weight:bold;vertical-align:top;">session_cookie_key</td><td style="vertical-align:top;">:</td><td><div>None</div></td></tr><tr><td style="font-weight:bold;vertical-align:top;">session_data_name</td><td style="vertical-align:top;">:</td><td><div>session_data_bootup</div></td></tr><tr><td style="font-weight:bold;vertical-align:top;">session_file</td><td style="vertical-align:top;">:</td><td><div>&lt;open file &#x27;/Users/james/Documents/Dropbox/Uni/Year 4/iapt/assessment/web2py-2.9.11/web2py/applications/bootup/sessions/1dd/1f1/127.0.0.1-6543c37b-0e7c-4341-b2b0-67667ed320d5&#x27;, mode &#x27;rb+&#x27; at 0x109af24b0&gt;</div></td></tr><tr><td style="font-weight:bold;vertical-align:top;">session_filename</td><td style="vertical-align:top;">:</td><td><div>/Users/james/Documents/Dropbox/Uni/Year 4/iapt/assessment/web2py-2.9.11/web2py/applications/bootup/sessions/127.0.0.1-6543c37b-0e7c-4341-b2b0-67667ed320d5</div></td></tr><tr><td style="font-weight:bold;vertical-align:top;">session_hash</td><td style="vertical-align:top;">:</td><td><div>f3939949c4b6da42a51b79e05ae73bbc</div></td></tr><tr><td style="font-weight:bold;vertical-align:top;">session_id</td><td style="vertical-align:top;">:</td><td><div>127.0.0.1-6543c37b-0e7c-4341-b2b0-67667ed320d5</div></td></tr><tr><td style="font-weight:bold;vertical-align:top;">session_id_name</td><td style="vertical-align:top;">:</td><td><div>session_id_bootup</div></td></tr><tr><td style="font-weight:bold;vertical-align:top;">session_locked</td><td style="vertical-align:top;">:</td><td><div>True</div></td></tr><tr><td style="font-weight:bold;vertical-align:top;">session_masterapp</td><td style="vertical-align:top;">:</td><td><div>bootup</div></td></tr><tr><td style="font-weight:bold;vertical-align:top;">session_new</td><td style="vertical-align:top;">:</td><td><div>False</div></td></tr><tr><td style="font-weight:bold;vertical-align:top;">session_storage_type</td><td style="vertical-align:top;">:</td><td><div>file</div></td></tr><tr><td style="font-weight:bold;vertical-align:top;">status</td><td style="vertical-align:top;">:</td><td><div>200</div></td></tr><tr><td style="font-weight:bold;vertical-align:top;">view</td><td style="vertical-align:top;">:</td><td><div>user/index.html</div></td></tr></table></div>'
tRp154
sS'locals'
p155
(dp156
S'ae'
p157
S'AttributeError("\'Row\' object has no attribute \'project\'",)'
p158
sS'k'
S"'project'"
p159
sS'm'
S'None'
p160
sS'_extra'
p161
S'None'
p162
sS'key'
p163
S"'project'"
p164
sS'self'
p165
S"<Row {'expectedrewards': {'rewarddescription': '...etime.date(2014, 1, 1), 'iduser': 1L, 'id': 1L}}>"
p166
sssS'traceback'
p167
S'Traceback (most recent call last):\n  File "/Users/james/Documents/Dropbox/Uni/Year 4/iapt/assessment/web2py-2.9.11/web2py/gluon/restricted.py", line 224, in restricted\n    exec ccode in environment\n  File "/Users/james/Documents/Dropbox/Uni/Year 4/iapt/assessment/web2py-2.9.11/web2py/applications/bootup/views/user/index.html", line 40, in <module>\n  File "/Users/james/Documents/Dropbox/Uni/Year 4/iapt/assessment/web2py-2.9.11/web2py/applications/bootup/models/db.py", line 42, in <lambda>\n    key=lambda item:item.project.idproject))\n  File "/Users/james/Documents/Dropbox/Uni/Year 4/iapt/assessment/web2py-2.9.11/web2py/gluon/dal.py", line 7529, in __getitem__\n    raise ae\nAttributeError: \'Row\' object has no attribute \'project\'\n'
p168
s.