(dp1
S'output'
p2
S"<class 'sqlite3.IntegrityError'> PRIMARY KEY must be unique"
p3
sS'layer'
p4
S'/Users/james/Documents/Dropbox/Uni/Year 4/iapt/assessment/web2py/web2py/applications/bootup/controllers/user.py'
p5
sS'code'
p6
S'import hashlib, os\n\nfrom applications.bootup.forms.bootupform import BOOTUPFORM\n\n\nclass REGISTRATIONFORM(BOOTUPFORM):\n    @staticmethod\n    def factory():\n        return REGISTRATIONFORM(\n            DAL(None).define_table(\'user\', db.user, Field(\'password\', type="password",requires=IS_LENGTH(minsize=6, error_message="Password must be at least 6 characters long")),\n                                   Field(\'confirmpassword\', type=\'password\', label="Confirm Password",\n                                         requires=IS_EQUAL_TO(request.vars.password,\n                                                              error_message="Passwords do not match")),\n                                   db.address))\n\n\n    def insertuserinfo(self, form):\n        user = db.user.insert(**db.user._filter_fields(form.vars))\n        form.vars.userid = user[\'iduser\']\n\n        db.address.insert(**db.address._filter_fields(form.vars))\n\n        credentialvars = dict()\n        credentialvars[\'userid\'] = user[\'iduser\']\n        credentialvars[\'passwordsalt\'] = os.urandom(12).encode(\'base_64\')\n        credentialvars[\'passwordhash\'] = hashlib.sha256(\n            hashlib.sha256(form.vars.password).hexdigest() + credentialvars[\'passwordsalt\']).hexdigest()\n        db.credential.update_or_insert(**credentialvars)\n\n\n    def process(self, **kwargs):\n        return super(REGISTRATIONFORM, self).process(onvalidation=self.insertuserinfo, **kwargs)\n\n\nclass LOGINFORM(BOOTUPFORM):\n    def checkuser(self, form):\n        user = db((db.credential.userid == db.user.iduser) & (db.user.username.like(form.vars.username))).select(\n            db.user.iduser, db.credential.passwordsalt, db.credential.passwordhash).first()\n        if user is None:\n            form.errors.username = "User is not registered"\n        elif hashlib.sha256(hashlib.sha256(\n                form.vars.password).hexdigest() + user.credential.passwordsalt).hexdigest() != user.credential.passwordhash:\n            form.errors.password = "Incorrect password"\n        else:\n            session.user = user.user.iduser\n\n\n    def process(self, **kwargs):\n        return super(LOGINFORM, self).process(onvalidation=self.checkuser, **kwargs)\n\n    @staticmethod\n    def factory(**kwargs):\n        return LOGINFORM(DAL(None).define_table("no_table",\n                                                Field(\'username\'),\n                                                Field(\'password\', type=\'password\')\n        ), **kwargs)\n\nclass CHANGEPASSWORDFORM(BOOTUPFORM):\n    def checkuser(self, form):\n        user = db(db.credential.userid == auth.user_id).select(db.credential.userid,db.credential.passwordsalt, db.credential.passwordhash).first()\n\n        if hashlib.sha256(hashlib.sha256(\n                form.vars.oldpassword).hexdigest() + user.passwordsalt).hexdigest() != user.passwordhash:\n            form.errors.oldpassword = "Incorrect password"\n\n        credentialvars = dict()\n        credentialvars[\'userid\'] = user[\'userid\']\n        credentialvars[\'passwordsalt\'] = os.urandom(12).encode(\'base_64\')\n        credentialvars[\'passwordhash\'] = hashlib.sha256(\n            hashlib.sha256(form.vars.password).hexdigest() + credentialvars[\'passwordsalt\']).hexdigest()\n        db.credential.update_or_insert(**credentialvars)\n\n\n    def process(self, **kwargs):\n        return super(CHANGEPASSWORDFORM, self).process(onvalidation=self.checkuser, **kwargs)\n\n    @staticmethod\n    def factory(**kwargs):\n        return CHANGEPASSWORDFORM(DAL(None).define_table("no_table",\n                                                Field(\'oldpassword\',type=\'password\',label="Old Password"),\n                                                Field(\'password\', type=\'password\',label="New Password",requires=IS_LENGTH(minsize=6, error_message="Password must be at least 6 characters long")),\n                                                Field(\'confirmpassword\',type=\'password\',label="Confirm Password",requires=IS_EQUAL_TO(request.vars.password,\n                                                              error_message="Passwords do not match"))\n        ), **kwargs)\n\n\n\n\ndef register():\n    form = REGISTRATIONFORM.factory()\n\n    message = ""\n\n    if form.process().accepted:\n        message = \'form accepted\'\n    elif form.errors:\n        message = \'form has errors\'\n    return dict(form=form, message=message)\n\n\ndef login():\n    form = LOGINFORM.factory()\n\n    if form.process().accepted:\n        redirect(URL(\'user\', \'index\'))\n\n    return dict(form=form)\n\n\n@auth.requires_login\ndef logout():\n    session.user = 0\n    redirect(URL(\'project\', \'index\'))\n\n\n@auth.requires_login\ndef index():\n    projects = db(db.user.iduser == auth.user_id).select().first().expectedrewards()\n    return dict(projects=projects)\n\n\n@auth.requires_login\ndef projects():\n    qry = myprojects\n\n    if (request.args(0) == "not_started"):\n        qry &= notstartedprojects\n    elif (request.args(0) == "opened"):\n        qry &= openprojects\n    elif (request.args(0) == "not_funded"):\n        qry &= closedprojects & notfundedprojects\n    elif (request.args(0) == "funded"):\n        qry &= closedprojects & fundedprojects\n\n    projects = db(qry & projectstats).select(db.project.ALL, db.projectstat.ALL)\n    return dict(projects=projects)\n\n@auth.requires_login\ndef edit():\n    user = db(db.user.iduser==auth.user_id).select(db.user.ALL).first()\n    form = BOOTUPFORM(db.user,user)\n\n    if form.process().accepted:\n        redirect(URL(\'user\',\'index\'))\n    return dict(form=form)\n\n\n@auth.requires_login\ndef password():\n    form = CHANGEPASSWORDFORM.factory()\n\n    if form.process().accepted:\n        redirect(URL(\'user\',\'index\'))\n    return dict(form=form)\nresponse._vars=response._caller(password)\n'
p7
sS'snapshot'
p8
(dp9
S'exception'
p10
(dp11
S'__module__'
p12
S"'sqlite3'"
p13
sS'__getslice__'
p14
S"<method-wrapper '__getslice__' of IntegrityError object>"
p15
sS'__str__'
p16
S"<method-wrapper '__str__' of IntegrityError object>"
p17
sS'__reduce__'
p18
S'<built-in method __reduce__ of IntegrityError object>'
p19
sS'__dict__'
p20
S'{}'
p21
sS'__sizeof__'
p22
S'<built-in method __sizeof__ of IntegrityError object>'
p23
sS'__weakref__'
p24
S'None'
p25
sS'__init__'
p26
S"<method-wrapper '__init__' of IntegrityError object>"
p27
sS'__setattr__'
p28
S"<method-wrapper '__setattr__' of IntegrityError object>"
p29
sS'__reduce_ex__'
p30
S'<built-in method __reduce_ex__ of IntegrityError object>'
p31
sS'__new__'
p32
S'<built-in method __new__ of type object>'
p33
sS'__format__'
p34
S'<built-in method __format__ of IntegrityError object>'
p35
sS'__class__'
p36
S"<class 'sqlite3.IntegrityError'>"
p37
sS'__doc__'
p38
S'None'
p39
sS'__getitem__'
p40
S"<method-wrapper '__getitem__' of IntegrityError object>"
p41
sS'__setstate__'
p42
S'<built-in method __setstate__ of IntegrityError object>'
p43
sS'__getattribute__'
p44
S"<method-wrapper '__getattribute__' of IntegrityError object>"
p45
sS'args'
p46
S"('PRIMARY KEY must be unique',)"
p47
sS'__subclasshook__'
p48
S'<built-in method __subclasshook__ of type object>'
p49
sS'__unicode__'
p50
S'<built-in method __unicode__ of IntegrityError object>'
p51
sS'__delattr__'
p52
S"<method-wrapper '__delattr__' of IntegrityError object>"
p53
sS'__repr__'
p54
S"<method-wrapper '__repr__' of IntegrityError object>"
p55
sS'__hash__'
p56
S"<method-wrapper '__hash__' of IntegrityError object>"
p57
ssS'evalue'
p58
S'PRIMARY KEY must be unique'
p59
sS'request'
p60
cgluon.html
XML_unpickle
p61
(S's/k\x00\x00<div><table><tr><td style="font-weight:bold;vertical-align:top;">ajax</td><td style="vertical-align:top;">:</td><td><div>False</div></td></tr><tr><td style="font-weight:bold;vertical-align:top;">application</td><td style="vertical-align:top;">:</td><td><div>bootup</div></td></tr><tr><td style="font-weight:bold;vertical-align:top;">args</td><td style="vertical-align:top;">:</td><td><div><table></table></div></td></tr><tr><td style="font-weight:bold;vertical-align:top;">cid</td><td style="vertical-align:top;">:</td><td><div>None</div></td></tr><tr><td style="font-weight:bold;vertical-align:top;">client</td><td style="vertical-align:top;">:</td><td><div>127.0.0.1</div></td></tr><tr><td style="font-weight:bold;vertical-align:top;">controller</td><td style="vertical-align:top;">:</td><td><div>user</div></td></tr><tr><td style="font-weight:bold;vertical-align:top;">cookies</td><td style="vertical-align:top;">:</td><td><div><table><tr><td style="font-weight:bold;vertical-align:top;">session_id_admin</td><td style="vertical-align:top;">:</td><td><div>127.0.0.1-35d96a8e-19a2-4e59-b8b0-f6d48a3b342a<table><tr><td style="font-weight:bold;vertical-align:top;">comment</td><td style="vertical-align:top;">:</td><td><div></div></td></tr><tr><td style="font-weight:bold;vertical-align:top;">domain</td><td style="vertical-align:top;">:</td><td><div></div></td></tr><tr><td style="font-weight:bold;vertical-align:top;">expires</td><td style="vertical-align:top;">:</td><td><div></div></td></tr><tr><td style="font-weight:bold;vertical-align:top;">httponly</td><td style="vertical-align:top;">:</td><td><div></div></td></tr><tr><td style="font-weight:bold;vertical-align:top;">max-age</td><td style="vertical-align:top;">:</td><td><div></div></td></tr><tr><td style="font-weight:bold;vertical-align:top;">path</td><td style="vertical-align:top;">:</td><td><div></div></td></tr><tr><td style="font-weight:bold;vertical-align:top;">secure</td><td style="vertical-align:top;">:</td><td><div></div></td></tr><tr><td style="font-weight:bold;vertical-align:top;">version</td><td style="vertical-align:top;">:</td><td><div></div></td></tr></table></div></td></tr><tr><td style="font-weight:bold;vertical-align:top;">session_id_bootup</td><td style="vertical-align:top;">:</td><td><div>127.0.0.1-1df8b906-85be-4427-aa82-8ca4bec859ca<table><tr><td style="font-weight:bold;vertical-align:top;">comment</td><td style="vertical-align:top;">:</td><td><div></div></td></tr><tr><td style="font-weight:bold;vertical-align:top;">domain</td><td style="vertical-align:top;">:</td><td><div></div></td></tr><tr><td style="font-weight:bold;vertical-align:top;">expires</td><td style="vertical-align:top;">:</td><td><div></div></td></tr><tr><td style="font-weight:bold;vertical-align:top;">httponly</td><td style="vertical-align:top;">:</td><td><div></div></td></tr><tr><td style="font-weight:bold;vertical-align:top;">max-age</td><td style="vertical-align:top;">:</td><td><div></div></td></tr><tr><td style="font-weight:bold;vertical-align:top;">path</td><td style="vertical-align:top;">:</td><td><div></div></td></tr><tr><td style="font-weight:bold;vertical-align:top;">secure</td><td style="vertical-align:top;">:</td><td><div></div></td></tr><tr><td style="font-weight:bold;vertical-align:top;">version</td><td style="vertical-align:top;">:</td><td><div></div></td></tr></table></div></td></tr><tr><td style="font-weight:bold;vertical-align:top;">session_id_test</td><td style="vertical-align:top;">:</td><td><div>127.0.0.1-828bfb30-9d54-4ab5-a9f7-069b81aa7ef1<table><tr><td style="font-weight:bold;vertical-align:top;">comment</td><td style="vertical-align:top;">:</td><td><div></div></td></tr><tr><td style="font-weight:bold;vertical-align:top;">domain</td><td style="vertical-align:top;">:</td><td><div></div></td></tr><tr><td style="font-weight:bold;vertical-align:top;">expires</td><td style="vertical-align:top;">:</td><td><div></div></td></tr><tr><td style="font-weight:bold;vertical-align:top;">httponly</td><td style="vertical-align:top;">:</td><td><div></div></td></tr><tr><td style="font-weight:bold;vertical-align:top;">max-age</td><td style="vertical-align:top;">:</td><td><div></div></td></tr><tr><td style="font-weight:bold;vertical-align:top;">path</td><td style="vertical-align:top;">:</td><td><div></div></td></tr><tr><td style="font-weight:bold;vertical-align:top;">secure</td><td style="vertical-align:top;">:</td><td><div></div></td></tr><tr><td style="font-weight:bold;vertical-align:top;">version</td><td style="vertical-align:top;">:</td><td><div></div></td></tr></table></div></td></tr><tr><td style="font-weight:bold;vertical-align:top;">session_id_welcome</td><td style="vertical-align:top;">:</td><td><div>127.0.0.1-89be5aca-28d6-4382-a0af-9382ea5c21b5<table><tr><td style="font-weight:bold;vertical-align:top;">comment</td><td style="vertical-align:top;">:</td><td><div></div></td></tr><tr><td style="font-weight:bold;vertical-align:top;">domain</td><td style="vertical-align:top;">:</td><td><div></div></td></tr><tr><td style="font-weight:bold;vertical-align:top;">expires</td><td style="vertical-align:top;">:</td><td><div></div></td></tr><tr><td style="font-weight:bold;vertical-align:top;">httponly</td><td style="vertical-align:top;">:</td><td><div></div></td></tr><tr><td style="font-weight:bold;vertical-align:top;">max-age</td><td style="vertical-align:top;">:</td><td><div></div></td></tr><tr><td style="font-weight:bold;vertical-align:top;">path</td><td style="vertical-align:top;">:</td><td><div></div></td></tr><tr><td style="font-weight:bold;vertical-align:top;">secure</td><td style="vertical-align:top;">:</td><td><div></div></td></tr><tr><td style="font-weight:bold;vertical-align:top;">version</td><td style="vertical-align:top;">:</td><td><div></div></td></tr></table></div></td></tr></table></div></td></tr><tr><td style="font-weight:bold;vertical-align:top;">env</td><td style="vertical-align:top;">:</td><td><div><table><tr><td style="font-weight:bold;vertical-align:top;">CONTENT_LENGTH</td><td style="vertical-align:top;">:</td><td><div>603</div></td></tr><tr><td style="font-weight:bold;vertical-align:top;">CONTENT_TYPE</td><td style="vertical-align:top;">:</td><td><div>multipart/form-data; boundary=----WebKitFormBoundaryJ848whryhmA74Rkz</div></td></tr><tr><td style="font-weight:bold;vertical-align:top;">HTTP_ACCEPT</td><td style="vertical-align:top;">:</td><td><div>text/html,application/xhtml+xml,application/xml;q=0.9,image/webp,*/*;q=0.8</div></td></tr><tr><td style="font-weight:bold;vertical-align:top;">HTTP_ACCEPT_ENCODING</td><td style="vertical-align:top;">:</td><td><div>gzip,deflate</div></td></tr><tr><td style="font-weight:bold;vertical-align:top;">HTTP_ACCEPT_LANGUAGE</td><td style="vertical-align:top;">:</td><td><div>en-US,en;q=0.8</div></td></tr><tr><td style="font-weight:bold;vertical-align:top;">HTTP_CACHE_CONTROL</td><td style="vertical-align:top;">:</td><td><div>max-age=0</div></td></tr><tr><td style="font-weight:bold;vertical-align:top;">HTTP_CONNECTION</td><td style="vertical-align:top;">:</td><td><div>keep-alive</div></td></tr><tr><td style="font-weight:bold;vertical-align:top;">HTTP_CONTENT_LENGTH</td><td style="vertical-align:top;">:</td><td><div>603</div></td></tr><tr><td style="font-weight:bold;vertical-align:top;">HTTP_CONTENT_TYPE</td><td style="vertical-align:top;">:</td><td><div>multipart/form-data; boundary=----WebKitFormBoundaryJ848whryhmA74Rkz</div></td></tr><tr><td style="font-weight:bold;vertical-align:top;">HTTP_COOKIE</td><td style="vertical-align:top;">:</td><td><div>session_id_test=127.0.0.1-828bfb30-9d54-4ab5-a9f7-069b81aa7ef1; session_id_welcome=127.0.0.1-89be5aca-28d6-4382-a0af-9382ea5c21b5; session_id_bootup=127.0.0.1-1df8b906-85be-4427-aa82-8ca4bec859ca; session_id_admin=127.0.0.1-35d96a8e-19a2-4e59-b8b0-f6d48a3b342a</div></td></tr><tr><td style="font-weight:bold;vertical-align:top;">HTTP_HOST</td><td style="vertical-align:top;">:</td><td><div>127.0.0.1:8000</div></td></tr><tr><td style="font-weight:bold;vertical-align:top;">HTTP_ORIGIN</td><td style="vertical-align:top;">:</td><td><div>http://127.0.0.1:8000</div></td></tr><tr><td style="font-weight:bold;vertical-align:top;">HTTP_REFERER</td><td style="vertical-align:top;">:</td><td><div>http://127.0.0.1:8000/bootup/user/password</div></td></tr><tr><td style="font-weight:bold;vertical-align:top;">HTTP_USER_AGENT</td><td style="vertical-align:top;">:</td><td><div>Mozilla/5.0 (Macintosh; Intel Mac OS X 10_9_4) AppleWebKit/537.36 (KHTML, like Gecko) Chrome/38.0.2125.122 Safari/537.36</div></td></tr><tr><td style="font-weight:bold;vertical-align:top;">PATH_INFO</td><td style="vertical-align:top;">:</td><td><div>/bootup/user/password</div></td></tr><tr><td style="font-weight:bold;vertical-align:top;">QUERY_STRING</td><td style="vertical-align:top;">:</td><td><div></div></td></tr><tr><td style="font-weight:bold;vertical-align:top;">REMOTE_ADDR</td><td style="vertical-align:top;">:</td><td><div>127.0.0.1</div></td></tr><tr><td style="font-weight:bold;vertical-align:top;">REMOTE_PORT</td><td style="vertical-align:top;">:</td><td><div>61040</div></td></tr><tr><td style="font-weight:bold;vertical-align:top;">REQUEST_METHOD</td><td style="vertical-align:top;">:</td><td><div>POST</div></td></tr><tr><td style="font-weight:bold;vertical-align:top;">SCRIPT_NAME</td><td style="vertical-align:top;">:</td><td><div></div></td></tr><tr><td style="font-weight:bold;vertical-align:top;">SERVER_NAME</td><td style="vertical-align:top;">:</td><td><div>nas10-240-51-102.york.ac.uk</div></td></tr><tr><td style="font-weight:bold;vertical-align:top;">SERVER_PORT</td><td style="vertical-align:top;">:</td><td><div>8000</div></td></tr><tr><td style="font-weight:bold;vertical-align:top;">SERVER_PROTOCOL</td><td style="vertical-align:top;">:</td><td><div>HTTP/1.1</div></td></tr><tr><td style="font-weight:bold;vertical-align:top;">SERVER_SOFTWARE</td><td style="vertical-align:top;">:</td><td><div>Rocket 1.2.6</div></td></tr><tr><td style="font-weight:bold;vertical-align:top;">app_folders</td><td style="vertical-align:top;">:</td><td><div>set([&#x27;/Users/james/Documents/Dropbox/Uni/Year 4/iapt/assessment/web2py/web2py/applications/welcome/&#x27;, &#x27;/Users/james/Documents/Dropbox/Uni/Year 4/iapt/assessment/web2py/web2py/applications/admin/&#x27;, &#x27;/Users/james/Documents/Dropbox/Uni/Year 4/iapt/assessment/web2py/web2py/applications/bootup/&#x27;])</div></td></tr><tr><td style="font-weight:bold;vertical-align:top;">applications_parent</td><td style="vertical-align:top;">:</td><td><div>/Users/james/Documents/Dropbox/Uni/Year 4/iapt/assessment/web2py/web2py</div></td></tr><tr><td style="font-weight:bold;vertical-align:top;">cmd_args</td><td style="vertical-align:top;">:</td><td><div><table></table></div></td></tr><tr><td style="font-weight:bold;vertical-align:top;">cmd_options</td><td style="vertical-align:top;">:</td><td><div>&lt;Values at 0x10a86c2d8: {&#x27;verbose&#x27;: False, &#x27;ip&#x27;: &#x27;127.0.0.1&#x27;, &#x27;debuglevel&#x27;: 30, &#x27;with_scheduler&#x27;: False, &#x27;ips&#x27;: [&#x27;10.240.51.102&#x27;], &#x27;shutdown_timeout&#x27;: 5, &#x27;taskbar&#x27;: False, &#x27;with_coverage&#x27;: False, &#x27;scheduler_groups&#x27;: None, &#x27;port&#x27;: 8000, &#x27;maxthreads&#x27;: None, &#x27;softcron&#x27;: False, &#x27;server_name&#x27;: &#x27;nas10-240-51-102.york.ac.uk&#x27;, &#x27;bpython&#x27;: False, &#x27;nogui&#x27;: False, &#x27;pid_filename&#x27;: &#x27;httpserver.pid&#x27;, &#x27;extcron&#x27;: False, &#x27;runcron&#x27;: False, &#x27;run_system_tests&#x27;: False, &#x27;test&#x27;: None, &#x27;folder&#x27;: &#x27;/Users/james/Documents/Dropbox/Uni/Year 4/iapt/assessment/web2py/web2py&#x27;, &#x27;config&#x27;: &#x27;&#x27;, &#x27;minthreads&#x27;: None, &#x27;shell&#x27;: None, &#x27;run&#x27;: &#x27;&#x27;, &#x27;log_filename&#x27;: &#x27;httpserver.log&#x27;, &#x27;profiler_dir&#x27;: None, &#x27;args&#x27;: [&#x27;&#x27;], &#x27;socket_timeout&#x27;: 5, &#x27;ssl_ca_certificate&#x27;: None, &#x27;scheduler&#x27;: None, &#x27;interfaces&#x27;: None, &#x27;ssl_private_key&#x27;: &#x27;&#x27;, &#x27;gae&#x27;: None, &#x27;password&#x27;: &#x27;&lt;ask&gt;&#x27;, &#x27;request_queue_size&#x27;: 5, &#x27;ssl_certificate&#x27;: &#x27;&#x27;, &#x27;cronjob&#x27;: False, &#x27;numthreads&#x27;: None, &#x27;quiet&#x27;: False, &#x27;import_models&#x27;: False, &#x27;timeout&#x27;: 10, &#x27;plain&#x27;: False, &#x27;nobanner&#x27;: False}&gt;</div></td></tr><tr><td style="font-weight:bold;vertical-align:top;">content_length</td><td style="vertical-align:top;">:</td><td><div>603</div></td></tr><tr><td style="font-weight:bold;vertical-align:top;">content_type</td><td style="vertical-align:top;">:</td><td><div>multipart/form-data; boundary=----WebKitFormBoundaryJ848whryhmA74Rkz</div></td></tr><tr><td style="font-weight:bold;vertical-align:top;">db_sessions</td><td style="vertical-align:top;">:</td><td><div>set([])</div></td></tr><tr><td style="font-weight:bold;vertical-align:top;">debugging</td><td style="vertical-align:top;">:</td><td><div>False</div></td></tr><tr><td style="font-weight:bold;vertical-align:top;">gluon_parent</td><td style="vertical-align:top;">:</td><td><div>/Users/james/Documents/Dropbox/Uni/Year 4/iapt/assessment/web2py/web2py</div></td></tr><tr><td style="font-weight:bold;vertical-align:top;">http_accept</td><td style="vertical-align:top;">:</td><td><div>text/html,application/xhtml+xml,application/xml;q=0.9,image/webp,*/*;q=0.8</div></td></tr><tr><td style="font-weight:bold;vertical-align:top;">http_accept_encoding</td><td style="vertical-align:top;">:</td><td><div>gzip,deflate</div></td></tr><tr><td style="font-weight:bold;vertical-align:top;">http_accept_language</td><td style="vertical-align:top;">:</td><td><div>en-US,en;q=0.8</div></td></tr><tr><td style="font-weight:bold;vertical-align:top;">http_cache_control</td><td style="vertical-align:top;">:</td><td><div>max-age=0</div></td></tr><tr><td style="font-weight:bold;vertical-align:top;">http_connection</td><td style="vertical-align:top;">:</td><td><div>keep-alive</div></td></tr><tr><td style="font-weight:bold;vertical-align:top;">http_content_length</td><td style="vertical-align:top;">:</td><td><div>603</div></td></tr><tr><td style="font-weight:bold;vertical-align:top;">http_content_type</td><td style="vertical-align:top;">:</td><td><div>multipart/form-data; boundary=----WebKitFormBoundaryJ848whryhmA74Rkz</div></td></tr><tr><td style="font-weight:bold;vertical-align:top;">http_cookie</td><td style="vertical-align:top;">:</td><td><div>session_id_test=127.0.0.1-828bfb30-9d54-4ab5-a9f7-069b81aa7ef1; session_id_welcome=127.0.0.1-89be5aca-28d6-4382-a0af-9382ea5c21b5; session_id_bootup=127.0.0.1-1df8b906-85be-4427-aa82-8ca4bec859ca; session_id_admin=127.0.0.1-35d96a8e-19a2-4e59-b8b0-f6d48a3b342a</div></td></tr><tr><td style="font-weight:bold;vertical-align:top;">http_host</td><td style="vertical-align:top;">:</td><td><div>127.0.0.1:8000</div></td></tr><tr><td style="font-weight:bold;vertical-align:top;">http_origin</td><td style="vertical-align:top;">:</td><td><div>http://127.0.0.1:8000</div></td></tr><tr><td style="font-weight:bold;vertical-align:top;">http_referer</td><td style="vertical-align:top;">:</td><td><div>http://127.0.0.1:8000/bootup/user/password</div></td></tr><tr><td style="font-weight:bold;vertical-align:top;">http_user_agent</td><td style="vertical-align:top;">:</td><td><div>Mozilla/5.0 (Macintosh; Intel Mac OS X 10_9_4) AppleWebKit/537.36 (KHTML, like Gecko) Chrome/38.0.2125.122 Safari/537.36</div></td></tr><tr><td style="font-weight:bold;vertical-align:top;">is_jython</td><td style="vertical-align:top;">:</td><td><div>False</div></td></tr><tr><td style="font-weight:bold;vertical-align:top;">is_pypy</td><td style="vertical-align:top;">:</td><td><div>False</div></td></tr><tr><td style="font-weight:bold;vertical-align:top;">is_source</td><td style="vertical-align:top;">:</td><td><div>True</div></td></tr><tr><td style="font-weight:bold;vertical-align:top;">local_hosts</td><td style="vertical-align:top;">:</td><td><div><table><tr><td><div>10.240.51.102</div></td></tr><tr><td><div>::1</div></td></tr><tr><td><div>::ffff:127.0.0.1</div></td></tr><tr><td><div>127.0.0.1</div></td></tr><tr><td><div>nas10-240-51-102.york.ac.uk</div></td></tr></table></div></td></tr><tr><td style="font-weight:bold;vertical-align:top;">path_info</td><td style="vertical-align:top;">:</td><td><div>/bootup/user/password</div></td></tr><tr><td style="font-weight:bold;vertical-align:top;">query_string</td><td style="vertical-align:top;">:</td><td><div></div></td></tr><tr><td style="font-weight:bold;vertical-align:top;">remote_addr</td><td style="vertical-align:top;">:</td><td><div>127.0.0.1</div></td></tr><tr><td style="font-weight:bold;vertical-align:top;">remote_port</td><td style="vertical-align:top;">:</td><td><div>61040</div></td></tr><tr><td style="font-weight:bold;vertical-align:top;">request_method</td><td style="vertical-align:top;">:</td><td><div>POST</div></td></tr><tr><td style="font-weight:bold;vertical-align:top;">request_uri</td><td style="vertical-align:top;">:</td><td><div>/bootup/user/password</div></td></tr><tr><td style="font-weight:bold;vertical-align:top;">script_name</td><td style="vertical-align:top;">:</td><td><div></div></td></tr><tr><td style="font-weight:bold;vertical-align:top;">server_name</td><td style="vertical-align:top;">:</td><td><div>nas10-240-51-102.york.ac.uk</div></td></tr><tr><td style="font-weight:bold;vertical-align:top;">server_port</td><td style="vertical-align:top;">:</td><td><div>8000</div></td></tr><tr><td style="font-weight:bold;vertical-align:top;">server_protocol</td><td style="vertical-align:top;">:</td><td><div>HTTP/1.1</div></td></tr><tr><td style="font-weight:bold;vertical-align:top;">server_software</td><td style="vertical-align:top;">:</td><td><div>Rocket 1.2.6</div></td></tr><tr><td style="font-weight:bold;vertical-align:top;">web2py_path</td><td style="vertical-align:top;">:</td><td><div>/Users/james/Documents/Dropbox/Uni/Year 4/iapt/assessment/web2py/web2py</div></td></tr><tr><td style="font-weight:bold;vertical-align:top;">web2py_version</td><td style="vertical-align:top;">:</td><td><div>2.9.11-stable+timestamp.2014.09.15.23.35.11</div></td></tr><tr><td style="font-weight:bold;vertical-align:top;">wsgi.errors</td><td style="vertical-align:top;">:</td><td><div>&lt;open file &#x27;&lt;stderr&gt;&#x27;, mode &#x27;w&#x27; at 0x1091751e0&gt;</div></td></tr><tr><td style="font-weight:bold;vertical-align:top;">wsgi.file_wrapper</td><td style="vertical-align:top;">:</td><td><div>&lt;class wsgiref.util.FileWrapper at 0x109d84e88&gt;</div></td></tr><tr><td style="font-weight:bold;vertical-align:top;">wsgi.input</td><td style="vertical-align:top;">:</td><td><div>&lt;socket._fileobject object at 0x11359cf50&gt;</div></td></tr><tr><td style="font-weight:bold;vertical-align:top;">wsgi.multiprocess</td><td style="vertical-align:top;">:</td><td><div>False</div></td></tr><tr><td style="font-weight:bold;vertical-align:top;">wsgi.multithread</td><td style="vertical-align:top;">:</td><td><div>True</div></td></tr><tr><td style="font-weight:bold;vertical-align:top;">wsgi.run_once</td><td style="vertical-align:top;">:</td><td><div>False</div></td></tr><tr><td style="font-weight:bold;vertical-align:top;">wsgi.url_scheme</td><td style="vertical-align:top;">:</td><td><div>http</div></td></tr><tr><td style="font-weight:bold;vertical-align:top;">wsgi.version</td><td style="vertical-align:top;">:</td><td><div><table><tr><td><div>1</div></td></tr><tr><td><div>0</div></td></tr></table></div></td></tr><tr><td style="font-weight:bold;vertical-align:top;">wsgi_errors</td><td style="vertical-align:top;">:</td><td><div>&lt;open file &#x27;&lt;stderr&gt;&#x27;, mode &#x27;w&#x27; at 0x1091751e0&gt;</div></td></tr><tr><td style="font-weight:bold;vertical-align:top;">wsgi_file_wrapper</td><td style="vertical-align:top;">:</td><td><div>&lt;class wsgiref.util.FileWrapper at 0x109d84e88&gt;</div></td></tr><tr><td style="font-weight:bold;vertical-align:top;">wsgi_input</td><td style="vertical-align:top;">:</td><td><div>&lt;socket._fileobject object at 0x11359cf50&gt;</div></td></tr><tr><td style="font-weight:bold;vertical-align:top;">wsgi_multiprocess</td><td style="vertical-align:top;">:</td><td><div>False</div></td></tr><tr><td style="font-weight:bold;vertical-align:top;">wsgi_multithread</td><td style="vertical-align:top;">:</td><td><div>True</div></td></tr><tr><td style="font-weight:bold;vertical-align:top;">wsgi_run_once</td><td style="vertical-align:top;">:</td><td><div>False</div></td></tr><tr><td style="font-weight:bold;vertical-align:top;">wsgi_url_scheme</td><td style="vertical-align:top;">:</td><td><div>http</div></td></tr><tr><td style="font-weight:bold;vertical-align:top;">wsgi_version</td><td style="vertical-align:top;">:</td><td><div><table><tr><td><div>1</div></td></tr><tr><td><div>0</div></td></tr></table></div></td></tr></table></div></td></tr><tr><td style="font-weight:bold;vertical-align:top;">extension</td><td style="vertical-align:top;">:</td><td><div>html</div></td></tr><tr><td style="font-weight:bold;vertical-align:top;">folder</td><td style="vertical-align:top;">:</td><td><div>/Users/james/Documents/Dropbox/Uni/Year 4/iapt/assessment/web2py/web2py/applications/bootup/</div></td></tr><tr><td style="font-weight:bold;vertical-align:top;">function</td><td style="vertical-align:top;">:</td><td><div>password</div></td></tr><tr><td style="font-weight:bold;vertical-align:top;">global_settings</td><td style="vertical-align:top;">:</td><td><div><table><tr><td style="font-weight:bold;vertical-align:top;">app_folders</td><td style="vertical-align:top;">:</td><td><div>set([&#x27;/Users/james/Documents/Dropbox/Uni/Year 4/iapt/assessment/web2py/web2py/applications/welcome/&#x27;, &#x27;/Users/james/Documents/Dropbox/Uni/Year 4/iapt/assessment/web2py/web2py/applications/admin/&#x27;, &#x27;/Users/james/Documents/Dropbox/Uni/Year 4/iapt/assessment/web2py/web2py/applications/bootup/&#x27;])</div></td></tr><tr><td style="font-weight:bold;vertical-align:top;">applications_parent</td><td style="vertical-align:top;">:</td><td><div>/Users/james/Documents/Dropbox/Uni/Year 4/iapt/assessment/web2py/web2py</div></td></tr><tr><td style="font-weight:bold;vertical-align:top;">cmd_args</td><td style="vertical-align:top;">:</td><td><div><table></table></div></td></tr><tr><td style="font-weight:bold;vertical-align:top;">cmd_options</td><td style="vertical-align:top;">:</td><td><div>&lt;Values at 0x10a86c2d8: {&#x27;verbose&#x27;: False, &#x27;ip&#x27;: &#x27;127.0.0.1&#x27;, &#x27;debuglevel&#x27;: 30, &#x27;with_scheduler&#x27;: False, &#x27;ips&#x27;: [&#x27;10.240.51.102&#x27;], &#x27;shutdown_timeout&#x27;: 5, &#x27;taskbar&#x27;: False, &#x27;with_coverage&#x27;: False, &#x27;scheduler_groups&#x27;: None, &#x27;port&#x27;: 8000, &#x27;maxthreads&#x27;: None, &#x27;softcron&#x27;: False, &#x27;server_name&#x27;: &#x27;nas10-240-51-102.york.ac.uk&#x27;, &#x27;bpython&#x27;: False, &#x27;nogui&#x27;: False, &#x27;pid_filename&#x27;: &#x27;httpserver.pid&#x27;, &#x27;extcron&#x27;: False, &#x27;runcron&#x27;: False, &#x27;run_system_tests&#x27;: False, &#x27;test&#x27;: None, &#x27;folder&#x27;: &#x27;/Users/james/Documents/Dropbox/Uni/Year 4/iapt/assessment/web2py/web2py&#x27;, &#x27;config&#x27;: &#x27;&#x27;, &#x27;minthreads&#x27;: None, &#x27;shell&#x27;: None, &#x27;run&#x27;: &#x27;&#x27;, &#x27;log_filename&#x27;: &#x27;httpserver.log&#x27;, &#x27;profiler_dir&#x27;: None, &#x27;args&#x27;: [&#x27;&#x27;], &#x27;socket_timeout&#x27;: 5, &#x27;ssl_ca_certificate&#x27;: None, &#x27;scheduler&#x27;: None, &#x27;interfaces&#x27;: None, &#x27;ssl_private_key&#x27;: &#x27;&#x27;, &#x27;gae&#x27;: None, &#x27;password&#x27;: &#x27;&lt;ask&gt;&#x27;, &#x27;request_queue_size&#x27;: 5, &#x27;ssl_certificate&#x27;: &#x27;&#x27;, &#x27;cronjob&#x27;: False, &#x27;numthreads&#x27;: None, &#x27;quiet&#x27;: False, &#x27;import_models&#x27;: False, &#x27;timeout&#x27;: 10, &#x27;plain&#x27;: False, &#x27;nobanner&#x27;: False}&gt;</div></td></tr><tr><td style="font-weight:bold;vertical-align:top;">db_sessions</td><td style="vertical-align:top;">:</td><td><div>set([])</div></td></tr><tr><td style="font-weight:bold;vertical-align:top;">debugging</td><td style="vertical-align:top;">:</td><td><div>False</div></td></tr><tr><td style="font-weight:bold;vertical-align:top;">gluon_parent</td><td style="vertical-align:top;">:</td><td><div>/Users/james/Documents/Dropbox/Uni/Year 4/iapt/assessment/web2py/web2py</div></td></tr><tr><td style="font-weight:bold;vertical-align:top;">is_jython</td><td style="vertical-align:top;">:</td><td><div>False</div></td></tr><tr><td style="font-weight:bold;vertical-align:top;">is_pypy</td><td style="vertical-align:top;">:</td><td><div>False</div></td></tr><tr><td style="font-weight:bold;vertical-align:top;">is_source</td><td style="vertical-align:top;">:</td><td><div>True</div></td></tr><tr><td style="font-weight:bold;vertical-align:top;">local_hosts</td><td style="vertical-align:top;">:</td><td><div><table><tr><td><div>10.240.51.102</div></td></tr><tr><td><div>::1</div></td></tr><tr><td><div>::ffff:127.0.0.1</div></td></tr><tr><td><div>127.0.0.1</div></td></tr><tr><td><div>nas10-240-51-102.york.ac.uk</div></td></tr></table></div></td></tr><tr><td style="font-weight:bold;vertical-align:top;">web2py_version</td><td style="vertical-align:top;">:</td><td><div>2.9.11-stable+timestamp.2014.09.15.23.35.11</div></td></tr></table></div></td></tr><tr><td style="font-weight:bold;vertical-align:top;">is_https</td><td style="vertical-align:top;">:</td><td><div>False</div></td></tr><tr><td style="font-weight:bold;vertical-align:top;">is_local</td><td style="vertical-align:top;">:</td><td><div>True</div></td></tr><tr><td style="font-weight:bold;vertical-align:top;">is_restful</td><td style="vertical-align:top;">:</td><td><div>False</div></td></tr><tr><td style="font-weight:bold;vertical-align:top;">is_sheduler</td><td style="vertical-align:top;">:</td><td><div>None</div></td></tr><tr><td style="font-weight:bold;vertical-align:top;">is_shell</td><td style="vertical-align:top;">:</td><td><div>None</div></td></tr><tr><td style="font-weight:bold;vertical-align:top;">now</td><td style="vertical-align:top;">:</td><td><div>datetime.datetime(2014, 11, 28, 18, 47, 55, 418910)</div></td></tr><tr><td style="font-weight:bold;vertical-align:top;">raw_args</td><td style="vertical-align:top;">:</td><td><div></div></td></tr><tr><td style="font-weight:bold;vertical-align:top;">raw_extension</td><td style="vertical-align:top;">:</td><td><div>None</div></td></tr><tr><td style="font-weight:bold;vertical-align:top;">url</td><td style="vertical-align:top;">:</td><td><div>/bootup/user/password</div></td></tr><tr><td style="font-weight:bold;vertical-align:top;">utcnow</td><td style="vertical-align:top;">:</td><td><div>datetime.datetime(2014, 11, 28, 18, 47, 55, 418917)</div></td></tr><tr><td style="font-weight:bold;vertical-align:top;">uuid</td><td style="vertical-align:top;">:</td><td><div>bootup/127.0.0.1.2014-11-28.18-47-55.f1f1b3d7-ba88-472d-b8f3-ba680a821061</div></td></tr><tr><td style="font-weight:bold;vertical-align:top;">wsgi</td><td style="vertical-align:top;">:</td><td><div>&lt;gluon.main.LazyWSGI object at 0x1134aa050&gt;</div></td></tr></table></div>'
tRp62
sS'frames'
p63
(lp64
(dp65
S'file'
p66
S'/Users/james/Documents/Dropbox/Uni/Year 4/iapt/assessment/web2py/web2py/gluon/restricted.py'
p67
sS'dump'
p68
(dp69
S'environment'
p70
S"{'A': <class 'gluon.html.A'>, 'ANY_OF': <class 'gluon.validators.ANY_OF'>, 'ASSIGNJS': <function ASSIGNJS>, 'B': <class 'gluon.html.B'>, 'BEAUTIFY': <class 'gluon.html.BEAUTIFY'>, 'BODY': <class 'gluon.html.BODY'>, 'BOOTUPFORM': <class 'applications.bootup.forms.bootupform.BOOTUPFORM'>, 'BR': <class 'gluon.html.BR'>, 'BUTTON': <class 'gluon.html.BUTTON'>, 'BootUpAuth': <class __restricted__.BootUpAuth>, ...}"
p71
sS'ccode'
p72
S'<code object <module> at 0x1137fc530, file "/Use...applications/bootup/controllers/user.py", line 1>'
p73
ssS'lnum'
p74
I224
sS'lines'
p75
(dp76
I224
S'        exec ccode in environment'
p77
sI225
S'    except HTTP:'
p78
sI226
S'        raise'
p79
sI227
S'    except RestrictedError:'
p80
sI228
S'        # do not encapsulate (obfuscate) the original RestrictedError'
p81
sI219
S'    try:'
p82
sI220
S'        if isinstance(code, types.CodeType):'
p83
sI221
S'            ccode = code'
p84
sI222
S'        else:'
p85
sI223
S'            ccode = compile2(code, layer)'
p86
ssS'call'
p87
S"(code='import hashlib, os\\n\\nfrom applications.bootup.for...=form)\\nresponse._vars=response._caller(password)\\n', environment={'A': <class 'gluon.html.A'>, 'ANY_OF': <class 'gluon.validators.ANY_OF'>, 'ASSIGNJS': <function ASSIGNJS>, 'B': <class 'gluon.html.B'>, 'BEAUTIFY': <class 'gluon.html.BEAUTIFY'>, 'BODY': <class 'gluon.html.BODY'>, 'BOOTUPFORM': <class 'applications.bootup.forms.bootupform.BOOTUPFORM'>, 'BR': <class 'gluon.html.BR'>, 'BUTTON': <class 'gluon.html.BUTTON'>, 'BootUpAuth': <class __restricted__.BootUpAuth>, ...}, layer='/Users/james/Documents/Dropbox/Uni/Year 4/iapt/a...py/web2py/applications/bootup/controllers/user.py')"
p88
sS'func'
p89
S'restricted'
p90
sa(dp91
g66
S'/Users/james/Documents/Dropbox/Uni/Year 4/iapt/assessment/web2py/web2py/applications/bootup/controllers/user.py'
p92
sg68
(dp93
sg74
I155
sg75
(dp94
I145
S'    return dict(form=form)'
p95
sI146
S''
sI147
S''
sI148
S'@auth.requires_login'
p96
sI149
S'def password():'
p97
sI150
S'    form = CHANGEPASSWORDFORM.factory()'
p98
sI151
S''
sI152
S'    if form.process().accepted:'
p99
sI153
S"        redirect(URL('user','index'))"
p100
sI154
S'    return dict(form=form)'
p101
ssg87
S'()'
p102
sg89
S'<module>'
p103
sa(dp104
g66
S'/Users/james/Documents/Dropbox/Uni/Year 4/iapt/assessment/web2py/web2py/gluon/globals.py'
p105
sg68
(dp106
S'self'
p107
S'undefined'
p108
sS'f'
S'<function _a>'
p109
ssg74
I392
sg75
(dp110
I387
S"        self.flash = ''            # used by the default view layout"
p111
sI388
S'        self.meta = Storage()      # used by web2py_ajax.html'
p112
sI389
S'        self.menu = []             # used by the default view layout'
p113
sI390
S'        self.files = []            # used by web2py_ajax.html'
p114
sI391
S'        self._vars = None'
p115
sI392
S'        self._caller = lambda f: f()'
p116
sI393
S'        self._view_environment = None'
p117
sI394
S'        self._custom_commit = None'
p118
sI395
S'        self._custom_rollback = None'
p119
sI396
S"        self.generic_patterns = ['*']"
p120
ssg87
S'(f=<function _a>)'
p121
sg89
S'<lambda>'
p122
sa(dp123
g66
S'/Users/james/Documents/Dropbox/Uni/Year 4/iapt/assessment/web2py/web2py/applications/bootup/models/auth.py'
p124
sg68
(dp125
S'args'
p126
S'()'
p127
sS'fn'
p128
S'<function password>'
p129
sS'kwargs'
p130
g21
ssg74
I21
sg75
(dp131
I15
S''
sI16
S'    def requires_login(self, fn):'
p132
sI17
S'        def _a(*args, **kwargs):'
p133
sI18
S'            if not self.is_logged_in():'
p134
sI19
S"                redirect(URL('user', 'login'))"
p135
sI20
S'                return'
p136
sI21
S'            return fn(*args, **kwargs)'
p137
sI22
S''
sI23
S'        return _a'
p138
sI24
S''
ssg87
S'(*args=(), **kwargs={})'
p139
sg89
S'_a'
p140
sa(dp141
g66
S'/Users/james/Documents/Dropbox/Uni/Year 4/iapt/assessment/web2py/web2py/applications/bootup/controllers/user.py'
p142
sg68
(dp143
S'form.process'
p144
S'<bound method CHANGEPASSWORDFORM.process of <__restricted__.CHANGEPASSWORDFORM object>>'
p145
sS').accepted'
p146
g108
sS'form'
p147
S'<__restricted__.CHANGEPASSWORDFORM object>'
p148
ssg74
I152
sg75
(dp149
I145
S'    return dict(form=form)'
p150
sI146
S''
sI147
S''
sI148
S'@auth.requires_login'
p151
sI149
S'def password():'
p152
sI150
S'    form = CHANGEPASSWORDFORM.factory()'
p153
sI151
S''
sI152
S'    if form.process().accepted:'
p154
sI153
S"        redirect(URL('user','index'))"
p155
sI154
S'    return dict(form=form)'
p156
ssg87
S'()'
p157
sg89
S'password'
p158
sa(dp159
g66
S'/Users/james/Documents/Dropbox/Uni/Year 4/iapt/assessment/web2py/web2py/applications/bootup/controllers/user.py'
p160
sg68
(dp161
S'self.checkuser'
p162
S'<bound method CHANGEPASSWORDFORM.checkuser of <__restricted__.CHANGEPASSWORDFORM object>>'
p163
sS'self'
p164
S'<__restricted__.CHANGEPASSWORDFORM object>'
p165
sS'global CHANGEPASSWORDFORM'
p166
S"<class '__restricted__.CHANGEPASSWORDFORM'>"
p167
sS').process'
p168
S'<bound method CHANGEPASSWORDFORM.process of <__restricted__.CHANGEPASSWORDFORM object>>'
p169
sS'onvalidation'
p170
g108
sS'kwargs'
p171
g21
sS'builtinsuper'
p172
S"<type 'super'>"
p173
ssg74
I75
sg75
(dp174
I70
S"            hashlib.sha256(form.vars.password).hexdigest() + credentialvars['passwordsalt']).hexdigest()"
p175
sI71
S'        db.credential.update_or_insert(**credentialvars)'
p176
sI72
S''
sI73
S''
sI74
S'    def process(self, **kwargs):'
p177
sI75
S'        return super(CHANGEPASSWORDFORM, self).process(onvalidation=self.checkuser, **kwargs)'
p178
sI76
S''
sI77
S'    @staticmethod'
p179
sI78
S'    def factory(**kwargs):'
p180
sI79
S'        return CHANGEPASSWORDFORM(DAL(None).define_table("no_table",'
p181
ssg87
S'(self=<__restricted__.CHANGEPASSWORDFORM object>, **kwargs={})'
p182
sg89
S'process'
p183
sa(dp184
g66
S'/Users/james/Documents/Dropbox/Uni/Year 4/iapt/assessment/web2py/web2py/applications/bootup/forms/bootupform.py'
p185
sg68
(dp186
S'kwargs'
p187
S"{'onvalidation': <bound method CHANGEPASSWORDFORM.checkuser of <__restricted__.CHANGEPASSWORDFORM object>>}"
p188
sS'builtinsuper'
p189
S"<type 'super'>"
p190
sS'global BOOTUPFORM'
p191
S"<class 'applications.bootup.forms.bootupform.BOOTUPFORM'>"
p192
sS'self'
p193
S'<__restricted__.CHANGEPASSWORDFORM object>'
p194
sS').process'
p195
S'<bound method CHANGEPASSWORDFORM.process of <__restricted__.CHANGEPASSWORDFORM object>>'
p196
ssg74
I89
sg75
(dp197
I84
S''
sI85
S'    def process(self, *args, **kwargs):'
p198
sI86
S"        if ('beforevalidation' in kwargs):"
p199
sI87
S"            call_as_list(kwargs['beforevalidation'], self)"
p200
sI88
S''
sI89
S'        return super(BOOTUPFORM, self).process(**kwargs)'
p201
sI90
S''
sI91
S'    def getFieldRequirements(self, fieldname):'
p202
sI92
S''
sI93
S'        field = (self.table[fieldname] if fieldname in self.table.fields'
p203
ssg87
S"(self=<__restricted__.CHANGEPASSWORDFORM object>, *args=(), **kwargs={'onvalidation': <bound method CHANGEPASSWORDFORM.checkuser of <__restricted__.CHANGEPASSWORDFORM object>>})"
p204
sg89
g183
sa(dp205
g66
S'/Users/james/Documents/Dropbox/Uni/Year 4/iapt/assessment/web2py/web2py/gluon/html.py'
p206
sg68
(dp207
S'self'
p208
S'<__restricted__.CHANGEPASSWORDFORM object>'
p209
sS'self.validate'
p210
S'<bound method CHANGEPASSWORDFORM.validate of <__restricted__.CHANGEPASSWORDFORM object>>'
p211
sS'kwargs'
p212
S"{'dbio': True, 'onvalidation': <bound method CHANGEPASSWORDFORM.checkuser of <__restricted__.CHANGEPASSWORDFORM object>>}"
p213
ssg74
I2303
sg75
(dp214
I2304
S'        return self'
p215
sI2305
S''
sI2306
S'    REDIRECT_JS = "window.location=\'%s\';return false"'
p216
sI2307
S''
sI2298
S''
sI2299
S''
sI2300
S'        """'
p217
sI2301
S"        kwargs['dbio'] = kwargs.get('dbio', True)"
p218
sI2302
S'                                    # necessary for SQLHTML forms'
p219
sI2303
S'        self.validate(**kwargs)'
p220
ssg87
S"(self=<__restricted__.CHANGEPASSWORDFORM object>, **kwargs={'dbio': True, 'onvalidation': <bound method CHANGEPASSWORDFORM.checkuser of <__restricted__.CHANGEPASSWORDFORM object>>})"
p221
sg89
g183
sa(dp222
g66
S'/Users/james/Documents/Dropbox/Uni/Year 4/iapt/assessment/web2py/web2py/gluon/html.py'
p223
sg68
(dp224
S'self'
p225
S'<__restricted__.CHANGEPASSWORDFORM object>'
p226
sS'self.accepts'
p227
S'<bound method CHANGEPASSWORDFORM.accepts of <__restricted__.CHANGEPASSWORDFORM object>>'
p228
sS'kwargs'
p229
S"{'dbio': True, 'onvalidation': <bound method CHANGEPASSWORDFORM.checkuser of <__restricted__.CHANGEPASSWORDFORM object>>, 'request_vars': <Storage {'confirmpassword': 'testing1', '_formk...word': 'derply', '_formname': 'no_table/create'}>, 'session': <Storage {'_formkey[project/108]': ['add183db-ae...9ea96', 'd5d5e8cc-b6e0-4ab7-8119-3b2d8d442c8e']}>}"
p230
ssg74
I2240
sg75
(dp231
I2240
S'        if self.accepts(**kwargs):'
p232
sI2241
S"            if onsuccess == 'flash':"
p233
sI2242
S'                if next:'
p234
sI2243
S'                    current.session.flash = message_onsuccess'
p235
sI2244
S'                else:'
p236
sI2235
S"        for key in ('message_onsuccess', 'message_onfailure', 'onsuccess',"
p237
sI2236
S"                    'onfailure', 'next', 'message_onchange', 'onchange'):"
p238
sI2237
S'            if key in kwargs:'
p239
sI2238
S'                del kwargs[key]'
p240
sI2239
S''
ssg87
S"(self=<__restricted__.CHANGEPASSWORDFORM object>, **kwargs={'dbio': True, 'onvalidation': <bound method CHANGEPASSWORDFORM.checkuser of <__restricted__.CHANGEPASSWORDFORM object>>, 'request_vars': <Storage {'confirmpassword': 'testing1', '_formk...word': 'derply', '_formname': 'no_table/create'}>, 'session': <Storage {'_formkey[project/108]': ['add183db-ae...9ea96', 'd5d5e8cc-b6e0-4ab7-8119-3b2d8d442c8e']}>})"
p241
sg89
S'validate'
p242
sa(dp243
g66
S'/Users/james/Documents/Dropbox/Uni/Year 4/iapt/assessment/web2py/web2py/gluon/sqlhtml.py'
p244
sg68
(dp245
S'kwargs'
p246
g21
ssg74
I1455
sg75
(dp247
I1450
S'            session,'
p248
sI1451
S'            formname,'
p249
sI1452
S'            keepvalues,'
p250
sI1453
S'            onvalidation,'
p251
sI1454
S'            hideerror=hideerror,'
p252
sI1455
S'            **kwargs'
p253
sI1456
S'        )'
p254
sI1457
S''
sI1458
S'        self.deleted = \\'
p255
sI1459
S'            request_vars.get(self.FIELDNAME_REQUEST_DELETE, False)'
p256
ssg87
S"(self=<__restricted__.CHANGEPASSWORDFORM object>, request_vars=<Storage {'confirmpassword': 'testing1', '_formk...word': 'derply', '_formname': 'no_table/create'}>, session=<Storage {'_formkey[project/108]': ['add183db-ae...9ea96', 'd5d5e8cc-b6e0-4ab7-8119-3b2d8d442c8e']}>, formname='no_table/create', keepvalues=False, onvalidation=<bound method CHANGEPASSWORDFORM.checkuser of <__restricted__.CHANGEPASSWORDFORM object>>, dbio=True, hideerror=False, detect_record_change=False, **kwargs={})"
p257
sg89
S'accepts'
p258
sa(dp259
g66
S'/Users/james/Documents/Dropbox/Uni/Year 4/iapt/assessment/web2py/web2py/gluon/html.py'
p260
sg68
(dp261
S'global call_as_list'
p262
S'<function call_as_list>'
p263
sS'self'
p264
S'<__restricted__.CHANGEPASSWORDFORM object>'
p265
sS'onvalidation'
p266
S'<bound method CHANGEPASSWORDFORM.checkuser of <__restricted__.CHANGEPASSWORDFORM object>>'
p267
ssg74
I2141
sg75
(dp268
I2144
S'        if not session is None:'
p269
sI2145
S"            if hasattr(self, 'record_hash'):"
p270
sI2136
S'                if changed:'
p271
sI2137
S'                    if onchange and self.record_changed and \\'
p272
sI2138
S'                            self.detect_record_change:'
p273
sI2139
S'                        call_as_list(onchange,self)'
p274
sI2140
S'            elif status:'
p275
sI2141
S'                call_as_list(onvalidation, self)'
p276
sI2142
S'        if self.errors:'
p277
sI2143
S'            status = False'
p278
ssg87
S"(self=<__restricted__.CHANGEPASSWORDFORM object>, request_vars=<Storage {'oldpassword': 'derply', '_formkey': '...rd': 'testing1', '_formname': 'no_table/create'}>, session=<Storage {'_formkey[project/108]': ['add183db-ae...9ea96', 'd5d5e8cc-b6e0-4ab7-8119-3b2d8d442c8e']}>, formname='no_table/create', keepvalues=False, onvalidation=<bound method CHANGEPASSWORDFORM.checkuser of <__restricted__.CHANGEPASSWORDFORM object>>, hideerror=False, **kwargs={})"
p279
sg89
g258
sa(dp280
g66
S'/Users/james/Documents/Dropbox/Uni/Year 4/iapt/assessment/web2py/web2py/gluon/html.py'
p281
sg68
(dp282
S'a'
S'(<__restricted__.CHANGEPASSWORDFORM object>,)'
p283
sS'item'
p284
S'<bound method CHANGEPASSWORDFORM.checkuser of <__restricted__.CHANGEPASSWORDFORM object>>'
p285
sS'b'
g21
ssg74
I146
sg75
(dp286
I141
S''
sI142
S'def call_as_list(f,*a,**b):'
p287
sI143
S'    if not isinstance(f, (list,tuple)):'
p288
sI144
S'        f = [f]'
p289
sI145
S'    for item in f:'
p290
sI146
S'        item(*a,**b)'
p291
sI147
S''
sI148
S"def truncate_string(text, length, dots='...'):"
p292
sI149
S"    text = text.decode('utf-8')"
p293
sI150
S'    if len(text) > length:'
p294
ssg87
S'(f=[<bound method CHANGEPASSWORDFORM.checkuser of <__restricted__.CHANGEPASSWORDFORM object>>], *a=(<__restricted__.CHANGEPASSWORDFORM object>,), **b={})'
p295
sg89
S'call_as_list'
p296
sa(dp297
g66
S'/Users/james/Documents/Dropbox/Uni/Year 4/iapt/assessment/web2py/web2py/applications/bootup/controllers/user.py'
p298
sg68
(dp299
S'global db'
p300
S'<DAL uri="sqlite://bootup.db">'
p301
sS'db.credential'
p302
S'<Table credential (userid,passwordhash,passwordsalt)>'
p303
sS'db.credential.update_or_insert'
p304
S'<bound method Table.update_or_insert of <Table credential (userid,passwordhash,passwordsalt)>>'
p305
sS'credentialvars'
p306
S"{'passwordhash': 'abf06f610e2afffe030cfffe1a18fa68849f11d57744518c94ef09dc457f9a0a', 'passwordsalt': 'oqVySGF7crPxOjLE\\n', 'userid': 1L}"
p307
ssg74
I71
sg75
(dp308
I66
S'        credentialvars = dict()'
p309
sI67
S"        credentialvars['userid'] = user['userid']"
p310
sI68
S"        credentialvars['passwordsalt'] = os.urandom(12).encode('base_64')"
p311
sI69
S"        credentialvars['passwordhash'] = hashlib.sha256("
p312
sI70
S"            hashlib.sha256(form.vars.password).hexdigest() + credentialvars['passwordsalt']).hexdigest()"
p313
sI71
S'        db.credential.update_or_insert(**credentialvars)'
p314
sI72
S''
sI73
S''
sI74
S'    def process(self, **kwargs):'
p315
sI75
S'        return super(CHANGEPASSWORDFORM, self).process(onvalidation=self.checkuser, **kwargs)'
p316
ssg87
S'(self=<__restricted__.CHANGEPASSWORDFORM object>, form=<__restricted__.CHANGEPASSWORDFORM object>)'
p317
sg89
S'checkuser'
p318
sa(dp319
g66
S'/Users/james/Documents/Dropbox/Uni/Year 4/iapt/assessment/web2py/web2py/gluon/dal.py'
p320
sg68
(dp321
S'self.insert'
p322
S'<bound method Table.insert of <Table credential (userid,passwordhash,passwordsalt)>>'
p323
sS'values'
p324
S"{'passwordhash': 'abf06f610e2afffe030cfffe1a18fa68849f11d57744518c94ef09dc457f9a0a', 'passwordsalt': 'oqVySGF7crPxOjLE\\n', 'userid': 1L}"
p325
sS'self'
p326
S'<Table credential (userid,passwordhash,passwordsalt)>'
p327
sS'newid'
p328
g108
ssg74
I9385
sg75
(dp329
I9380
S'            record = self(_key)'
p330
sI9381
S'        if record:'
p331
sI9382
S'            record.update_record(**values)'
p332
sI9383
S'            newid = None'
p333
sI9384
S'        else:'
p334
sI9385
S'            newid = self.insert(**values)'
p335
sI9386
S'        return newid'
p336
sI9387
S''
sI9388
S'    def validate_and_update_or_insert(self, _key=DEFAULT, **fields):'
p337
sI9389
S"        if _key is DEFAULT or _key == '':"
p338
ssg87
S"(self=<Table credential (userid,passwordhash,passwordsalt)>, _key=<function <lambda>>, **values={'passwordhash': 'abf06f610e2afffe030cfffe1a18fa68849f11d57744518c94ef09dc457f9a0a', 'passwordsalt': 'oqVySGF7crPxOjLE\\n', 'userid': 1L})"
p339
sg89
S'update_or_insert'
p340
sa(dp341
g66
S'/Users/james/Documents/Dropbox/Uni/Year 4/iapt/assessment/web2py/web2py/gluon/dal.py'
p342
sg68
(dp343
S'self._listify'
p344
S'<bound method Table._listify of <Table credential (userid,passwordhash,passwordsalt)>>'
p345
sS'fields'
p346
S"{'passwordhash': 'abf06f610e2afffe030cfffe1a18fa68849f11d57744518c94ef09dc457f9a0a', 'passwordsalt': 'oqVySGF7crPxOjLE\\n', 'userid': 1L}"
p347
sS'self'
p348
S'<Table credential (userid,passwordhash,passwordsalt)>'
p349
sS'ret'
p350
g108
sS'self._db._adapter'
p351
S'<gluon.dal.SQLiteAdapter object>'
p352
sS'self._db._adapter.insert'
p353
S'<bound method SQLiteAdapter.insert of <gluon.dal.SQLiteAdapter object>>'
p354
sS'self._db'
p355
S'<DAL uri="sqlite://bootup.db">'
p356
ssg74
I9317
sg75
(dp357
I9312
S''
sI9313
S'    def insert(self, **fields):'
p358
sI9314
S'        fields = self._defaults(fields)'
p359
sI9315
S'        self._attempt_upload(fields)'
p360
sI9316
S'        if any(f(fields) for f in self._before_insert): return 0'
p361
sI9317
S'        ret =  self._db._adapter.insert(self, self._listify(fields))'
p362
sI9318
S'        if ret and self._after_insert:'
p363
sI9319
S'            fields = Row(fields)'
p364
sI9320
S'            [f(fields, ret) for f in self._after_insert]'
p365
sI9321
S'        return ret'
p366
ssg87
S"(self=<Table credential (userid,passwordhash,passwordsalt)>, **fields={'passwordhash': 'abf06f610e2afffe030cfffe1a18fa68849f11d57744518c94ef09dc457f9a0a', 'passwordsalt': 'oqVySGF7crPxOjLE\\n', 'userid': 1L})"
p367
sg89
S'insert'
p368
sa(dp369
g66
S'/Users/james/Documents/Dropbox/Uni/Year 4/iapt/assessment/web2py/web2py/gluon/dal.py'
p370
sg68
(dp371
S'e'
S"IntegrityError('PRIMARY KEY must be unique',)"
p372
ssg74
I1361
sg75
(dp373
I1356
S'            self.execute(query)'
p374
sI1357
S'        except Exception:'
p375
sI1358
S'            e = sys.exc_info()[1]'
p376
sI1359
S"            if hasattr(table, '_on_insert_error'):"
p377
sI1360
S'                return table._on_insert_error(table, fields, e)'
p378
sI1361
S'            raise e'
p379
sI1362
S"        if hasattr(table, '_primarykey'):"
p380
sI1363
S'            mydict = dict([(k[0].name, k[1]) for k in fields if k[0].name in table._primarykey])'
p381
sI1364
S'            if mydict != {}:'
p382
sI1365
S'                return mydict'
p383
ssg87
S"(self=<gluon.dal.SQLiteAdapter object>, table=<Table credential (userid,passwordhash,passwordsalt)>, fields=[(<gluon.dal.Field object>, 'oqVySGF7crPxOjLE\\n'), (<gluon.dal.Field object>, 1L), (<gluon.dal.Field object>, 'abf06f610e2afffe030cfffe1a18fa68849f11d57744518c94ef09dc457f9a0a')])"
p384
sg89
g368
sasS'pyver'
p385
S'Python 2.7.5: /usr/bin/python (prefix: /System/Library/Frameworks/Python.framework/Versions/2.7)'
p386
sS'session'
p387
g61
(S's\x99\x00\x00\x00<div><table><tr><td style="font-weight:bold;vertical-align:top;">user</td><td style="vertical-align:top;">:</td><td><div>1L</div></td></tr></table></div>'
tRp388
sS'etype'
p389
S"<class 'sqlite3.IntegrityError'>"
p390
sS'date'
p391
S'Fri Nov 28 18:47:55 2014'
p392
sS'response'
p393
g61
(S'sG\x18\x00\x00<div><table><tr><td style="font-weight:bold;vertical-align:top;">body</td><td style="vertical-align:top;">:</td><td><div>&lt;cStringIO.StringO object at 0x1134579d0&gt;</div></td></tr><tr><td style="font-weight:bold;vertical-align:top;">cookies</td><td style="vertical-align:top;">:</td><td><div><table><tr><td style="font-weight:bold;vertical-align:top;">session_id_bootup</td><td style="vertical-align:top;">:</td><td><div>127.0.0.1-1df8b906-85be-4427-aa82-8ca4bec859ca<table><tr><td style="font-weight:bold;vertical-align:top;">comment</td><td style="vertical-align:top;">:</td><td><div></div></td></tr><tr><td style="font-weight:bold;vertical-align:top;">domain</td><td style="vertical-align:top;">:</td><td><div></div></td></tr><tr><td style="font-weight:bold;vertical-align:top;">expires</td><td style="vertical-align:top;">:</td><td><div></div></td></tr><tr><td style="font-weight:bold;vertical-align:top;">httponly</td><td style="vertical-align:top;">:</td><td><div></div></td></tr><tr><td style="font-weight:bold;vertical-align:top;">max-age</td><td style="vertical-align:top;">:</td><td><div></div></td></tr><tr><td style="font-weight:bold;vertical-align:top;">path</td><td style="vertical-align:top;">:</td><td><div>/</div></td></tr><tr><td style="font-weight:bold;vertical-align:top;">secure</td><td style="vertical-align:top;">:</td><td><div></div></td></tr><tr><td style="font-weight:bold;vertical-align:top;">version</td><td style="vertical-align:top;">:</td><td><div></div></td></tr></table></div></td></tr></table></div></td></tr><tr><td style="font-weight:bold;vertical-align:top;">delimiters</td><td style="vertical-align:top;">:</td><td><div><table><tr><td><div>{{</div></td></tr><tr><td><div>}}</div></td></tr></table></div></td></tr><tr><td style="font-weight:bold;vertical-align:top;">files</td><td style="vertical-align:top;">:</td><td><div><table></table></div></td></tr><tr><td style="font-weight:bold;vertical-align:top;">flash</td><td style="vertical-align:top;">:</td><td><div></div></td></tr><tr><td style="font-weight:bold;vertical-align:top;">form_label_separator</td><td style="vertical-align:top;">:</td><td><div>: </div></td></tr><tr><td style="font-weight:bold;vertical-align:top;">formstyle</td><td style="vertical-align:top;">:</td><td><div>table3cols</div></td></tr><tr><td style="font-weight:bold;vertical-align:top;">generic_patterns</td><td style="vertical-align:top;">:</td><td><div><table><tr><td><div>*</div></td></tr></table></div></td></tr><tr><td style="font-weight:bold;vertical-align:top;">headers</td><td style="vertical-align:top;">:</td><td><div><table><tr><td style="font-weight:bold;vertical-align:top;">X-Powered-By</td><td style="vertical-align:top;">:</td><td><div>web2py</div></td></tr></table></div></td></tr><tr><td style="font-weight:bold;vertical-align:top;">menu</td><td style="vertical-align:top;">:</td><td><div><table></table></div></td></tr><tr><td style="font-weight:bold;vertical-align:top;">meta</td><td style="vertical-align:top;">:</td><td><div><table></table></div></td></tr><tr><td style="font-weight:bold;vertical-align:top;">models_to_run</td><td style="vertical-align:top;">:</td><td><div><table><tr><td><div>^\\w+\\.py$</div></td></tr><tr><td><div>^user/\\w+\\.py$</div></td></tr><tr><td><div>^user/password/\\w+\\.py$</div></td></tr></table></div></td></tr><tr><td style="font-weight:bold;vertical-align:top;">postprocessing</td><td style="vertical-align:top;">:</td><td><div><table></table></div></td></tr><tr><td style="font-weight:bold;vertical-align:top;">session_client</td><td style="vertical-align:top;">:</td><td><div>127.0.0.1</div></td></tr><tr><td style="font-weight:bold;vertical-align:top;">session_cookie_compression_level</td><td style="vertical-align:top;">:</td><td><div>None</div></td></tr><tr><td style="font-weight:bold;vertical-align:top;">session_cookie_expires</td><td style="vertical-align:top;">:</td><td><div>None</div></td></tr><tr><td style="font-weight:bold;vertical-align:top;">session_cookie_key</td><td style="vertical-align:top;">:</td><td><div>None</div></td></tr><tr><td style="font-weight:bold;vertical-align:top;">session_data_name</td><td style="vertical-align:top;">:</td><td><div>session_data_bootup</div></td></tr><tr><td style="font-weight:bold;vertical-align:top;">session_file</td><td style="vertical-align:top;">:</td><td><div>&lt;open file &#x27;/Users/james/Documents/Dropbox/Uni/Year 4/iapt/assessment/web2py/web2py/applications/bootup/sessions/077/117/127.0.0.1-1df8b906-85be-4427-aa82-8ca4bec859ca&#x27;, mode &#x27;rb+&#x27; at 0x1135c7db0&gt;</div></td></tr><tr><td style="font-weight:bold;vertical-align:top;">session_filename</td><td style="vertical-align:top;">:</td><td><div>/Users/james/Documents/Dropbox/Uni/Year 4/iapt/assessment/web2py/web2py/applications/bootup/sessions/127.0.0.1-1df8b906-85be-4427-aa82-8ca4bec859ca</div></td></tr><tr><td style="font-weight:bold;vertical-align:top;">session_hash</td><td style="vertical-align:top;">:</td><td><div>db65445b3c9e6a8401f317598351f888</div></td></tr><tr><td style="font-weight:bold;vertical-align:top;">session_id</td><td style="vertical-align:top;">:</td><td><div>127.0.0.1-1df8b906-85be-4427-aa82-8ca4bec859ca</div></td></tr><tr><td style="font-weight:bold;vertical-align:top;">session_id_name</td><td style="vertical-align:top;">:</td><td><div>session_id_bootup</div></td></tr><tr><td style="font-weight:bold;vertical-align:top;">session_locked</td><td style="vertical-align:top;">:</td><td><div>True</div></td></tr><tr><td style="font-weight:bold;vertical-align:top;">session_masterapp</td><td style="vertical-align:top;">:</td><td><div>bootup</div></td></tr><tr><td style="font-weight:bold;vertical-align:top;">session_new</td><td style="vertical-align:top;">:</td><td><div>False</div></td></tr><tr><td style="font-weight:bold;vertical-align:top;">session_storage_type</td><td style="vertical-align:top;">:</td><td><div>file</div></td></tr><tr><td style="font-weight:bold;vertical-align:top;">status</td><td style="vertical-align:top;">:</td><td><div>200</div></td></tr><tr><td style="font-weight:bold;vertical-align:top;">view</td><td style="vertical-align:top;">:</td><td><div>user/password.html</div></td></tr></table></div>'
tRp394
sS'locals'
p395
(dp396
S'query'
p397
S'"INSERT INTO credential(passwordsalt,userid,passw...0cfffe1a18fa68849f11d57744518c94ef09dc457f9a0a\');"'
p398
sS'self'
p399
S'<gluon.dal.SQLiteAdapter object>'
p400
sS'e'
S"IntegrityError('PRIMARY KEY must be unique',)"
p401
sS'fields'
p402
S"[(<gluon.dal.Field object>, 'oqVySGF7crPxOjLE\\n'), (<gluon.dal.Field object>, 1L), (<gluon.dal.Field object>, 'abf06f610e2afffe030cfffe1a18fa68849f11d57744518c94ef09dc457f9a0a')]"
p403
sS'table'
p404
S'<Table credential (userid,passwordhash,passwordsalt)>'
p405
sssS'traceback'
p406
S'Traceback (most recent call last):\n  File "/Users/james/Documents/Dropbox/Uni/Year 4/iapt/assessment/web2py/web2py/gluon/restricted.py", line 224, in restricted\n    exec ccode in environment\n  File "/Users/james/Documents/Dropbox/Uni/Year 4/iapt/assessment/web2py/web2py/applications/bootup/controllers/user.py", line 155, in <module>\n  File "/Users/james/Documents/Dropbox/Uni/Year 4/iapt/assessment/web2py/web2py/gluon/globals.py", line 392, in <lambda>\n    self._caller = lambda f: f()\n  File "/Users/james/Documents/Dropbox/Uni/Year 4/iapt/assessment/web2py/web2py/applications/bootup/models/auth.py", line 21, in _a\n    return fn(*args, **kwargs)\n  File "/Users/james/Documents/Dropbox/Uni/Year 4/iapt/assessment/web2py/web2py/applications/bootup/controllers/user.py", line 152, in password\n    if form.process().accepted:\n  File "/Users/james/Documents/Dropbox/Uni/Year 4/iapt/assessment/web2py/web2py/applications/bootup/controllers/user.py", line 75, in process\n    return super(CHANGEPASSWORDFORM, self).process(onvalidation=self.checkuser, **kwargs)\n  File "applications/bootup/forms/bootupform.py", line 89, in process\n    return super(BOOTUPFORM, self).process(**kwargs)\n  File "/Users/james/Documents/Dropbox/Uni/Year 4/iapt/assessment/web2py/web2py/gluon/html.py", line 2303, in process\n    self.validate(**kwargs)\n  File "/Users/james/Documents/Dropbox/Uni/Year 4/iapt/assessment/web2py/web2py/gluon/html.py", line 2240, in validate\n    if self.accepts(**kwargs):\n  File "/Users/james/Documents/Dropbox/Uni/Year 4/iapt/assessment/web2py/web2py/gluon/sqlhtml.py", line 1455, in accepts\n    **kwargs\n  File "/Users/james/Documents/Dropbox/Uni/Year 4/iapt/assessment/web2py/web2py/gluon/html.py", line 2141, in accepts\n    call_as_list(onvalidation, self)\n  File "/Users/james/Documents/Dropbox/Uni/Year 4/iapt/assessment/web2py/web2py/gluon/html.py", line 146, in call_as_list\n    item(*a,**b)\n  File "/Users/james/Documents/Dropbox/Uni/Year 4/iapt/assessment/web2py/web2py/applications/bootup/controllers/user.py", line 71, in checkuser\n    db.credential.update_or_insert(**credentialvars)\n  File "/Users/james/Documents/Dropbox/Uni/Year 4/iapt/assessment/web2py/web2py/gluon/dal.py", line 9385, in update_or_insert\n    newid = self.insert(**values)\n  File "/Users/james/Documents/Dropbox/Uni/Year 4/iapt/assessment/web2py/web2py/gluon/dal.py", line 9317, in insert\n    ret =  self._db._adapter.insert(self, self._listify(fields))\n  File "/Users/james/Documents/Dropbox/Uni/Year 4/iapt/assessment/web2py/web2py/gluon/dal.py", line 1361, in insert\n    raise e\nIntegrityError: PRIMARY KEY must be unique\n'
p407
s.