(dp1
S'output'
p2
S"<type 'exceptions.NameError'> name 'img' is not defined"
p3
sS'layer'
p4
S'/Users/james/Documents/Dropbox/Uni/Year 4/iapt/assessment/web2py-2.9.11/web2py/applications/bootup/views/project/index.html'
p5
sS'code'
p6
S'categories=db().select(db.category.ALL)\nresponse.write(\'\\n<!DOCTYPE html>\\n<html>\\n<head lang="en">\\n    <meta charset="UTF-8">\\n    <title>Bootups</title>\\n    <link href=\\\'http://fonts.googleapis.com/css?family=Pacifico\\\' rel=\\\'stylesheet\\\' type=\\\'text/css\\\' />\\n    <link rel="stylesheet" href="\', escape=False)\nresponse.write(URL(\'static\',\'css/bootstrap.min.css\'))\nresponse.write(\'" />\\n    <link rel="stylesheet" href="\', escape=False)\nresponse.write(URL(\'static\',\'css/bootups.css\'))\nresponse.write(\'" />\\n\\n    <script src="\', escape=False)\nresponse.write(URL(\'static\',\'js/jquery-1.11.1.min.js\'))\nresponse.write(\'"></script>\\n    <script src="\', escape=False)\nresponse.write(URL(\'static\',\'js/bootstrap.min.js\'))\nresponse.write(\'"></script>\\n</head>\\n<body>\\n    <div class="bootups_nav navbar">\\n        <div class="container">\\n            <div class="navbar-left">\\n                <h1 class="logo">\', escape=False)\nresponse.write(A(\'BootUps\',_href=URL(\'bootup\',\'project\',\'index\')))\nresponse.write(\'</h1>\\n            </div>\\n\\n            <div class="navbar-form navbar-right bootups_nav_search">\\n                \', escape=False)\nresponse.write(\'<form class="bootups_search" method="get" action="\', escape=False)\nresponse.write(URL(\'bootup\',\'project\',\'search\'))\nresponse.write(\'" role="search">\\n    <div class="form-group">\\n        <input type="text" name="q" class="form-control">\\n    </div>\\n\\n    <button type="submit" class="btn btn-default"><span class="glyphicon glyphicon-search"></span></button>\\n</form>\\n\\n\', escape=False)\nresponse.write(\'\\n            </div>\\n        </div>\\n    </div>\\n\\n    <nav class="navbar navbar-default navbar-static-top" role="navigation">\\n      <div class="container">\\n          <ul class="nav navbar-header navbar-nav">\\n            <li>\', escape=False)\nresponse.write(A(\'Create Project\',_href=URL(\'bootup\',\'project\',\'create\')))\nresponse.write(\'</li>\\n            <li class="dropdown">\\n              <a href="#" class="dropdown-toggle" data-toggle="dropdown" role="button" aria-expanded="false">Discover BootUps <span class="caret"></span></a>\\n              <ul class="dropdown-menu" role="menu">\\n          \', escape=False)\nfor menucategory in categories:\n    response.write(\'\\n                <li>\', escape=False)\n    response.write(A(menucategory.name, _href=URL(\'bootup\',\'category\',\'view\',args=[menucategory.url])))\n    response.write(\'</li>\\n          \', escape=False)\n    pass\nresponse.write(\'\\n              </ul>\\n            </li>\\n          </ul>\\n          <ul class="nav navbar-nav navbar-right">\\n\\n\\n              \', escape=False)\nif auth.is_logged_in():\n    response.write(\'\\n                    <li>\', escape=False)\n    response.write(A(\'My Account\',_href=URL(\'bootup\',\'user\',\'index\')))\n    response.write(\'</li>\\n                    <li>\', escape=False)\n    response.write(A(\'Log Out\',_href=URL(\'bootup\',\'user\',\'logout\')))\n    response.write(\'</li>\\n              \', escape=False)\nelse:\n    response.write(\'\\n                    <li>\', escape=False)\n    response.write(A(\'Login\',_href=URL(\'bootup\',\'user\',\'login\')))\n    response.write(\'</li>\\n                    <li>\', escape=False)\n    response.write(A(\'Register\',_href=URL(\'bootup\',\'user\',\'register\')))\n    response.write(\'</li>\\n              \', escape=False)\n    pass\nresponse.write(\'\\n          </ul>\\n        </div>\\n\\n    </nav>\\n\\n    <div class="container" role="main">\\n        \', escape=False)\nresponse.write(\'\\n\\n        <div class="column">\\n            <h3>Nearly funded</h3>\\n            <div class="project_list row">\\n                \', escape=False)\nfor record in closest:\n    response.write(\'\\n                    \', escape=False)\n    response.write(\'<div class="project_tile col-xs-6 col-sm-4 col-md-4 col-lg-4">\\n<div class="project_name">\', escape=False)\n    response.write(H3(A(record.project.title, _href=URL(\'bootups\',\'project\',\'view\',args=[record.project.idproject]))))\n    response.write(\'</div>\\n<div class="project_image"><img src="\', escape=False)\n    response.write(URL(record.project.imageurl,args=img))\n    response.write(\'" /></div>\\n<div class="project_stats">\', escape=False)\n    response.write(record.projectstat.bootings)\n    response.write(\' backers. &pound;\', escape=False)\n    response.write(record.projectstat.progress)\n    response.write(\'%</div>\\n\', escape=False)\n    response.write(record.project.shortdescription)\n    response.write(\'\\n</div>\', escape=False)\n    response.write(\'\\n                \', escape=False)\n    pass\nresponse.write(\'\\n                <div class="project_tile col-xs-6 col-sm-4 col-md-4 col-lg-4">\\n                    \', escape=False)\nresponse.write(H3(XML("More &raquo;")))\nresponse.write(\'\\n                </div>\\n            </div>\\n\\n            <h3>Latest projects</h3>\\n            <div class="project_list row">\\n                \', escape=False)\nfor record in newest:\n    response.write(\'\\n                    \', escape=False)\n    response.write(\'<div class="project_tile col-xs-6 col-sm-4 col-md-4 col-lg-4">\\n<div class="project_name">\', escape=False)\n    response.write(H3(A(record.project.title, _href=URL(\'bootups\',\'project\',\'view\',args=[record.project.idproject]))))\n    response.write(\'</div>\\n<div class="project_image"><img src="\', escape=False)\n    response.write(URL(record.project.imageurl,args=img))\n    response.write(\'" /></div>\\n<div class="project_stats">\', escape=False)\n    response.write(record.projectstat.bootings)\n    response.write(\' backers. &pound;\', escape=False)\n    response.write(record.projectstat.progress)\n    response.write(\'%</div>\\n\', escape=False)\n    response.write(record.project.shortdescription)\n    response.write(\'\\n</div>\', escape=False)\n    response.write(\'\\n                \', escape=False)\n    pass\nresponse.write(\'\\n\\n                <div class="project_tile col-xs-6 col-sm-4 col-md-4 col-lg-4">\\n                    \', escape=False)\nresponse.write(H3(XML("More &raquo;")))\nresponse.write(\'\\n                </div>\\n            </div>\\n\\n        </div>\', escape=False)\nresponse.write(\'\\n    </div>\\n\\n    \', escape=False)\npass\nresponse.write(\'\\n\\n\\n</body>\\n</html>\', escape=False)'
p7
sS'snapshot'
p8
(dp9
S'exception'
p10
(dp11
S'__hash__'
p12
S"<method-wrapper '__hash__' of exceptions.NameError object>"
p13
sS'__setattr__'
p14
S"<method-wrapper '__setattr__' of exceptions.NameError object>"
p15
sS'__reduce_ex__'
p16
S'<built-in method __reduce_ex__ of exceptions.NameError object>'
p17
sS'__getslice__'
p18
S"<method-wrapper '__getslice__' of exceptions.NameError object>"
p19
sS'__getitem__'
p20
S"<method-wrapper '__getitem__' of exceptions.NameError object>"
p21
sS'__setstate__'
p22
S'<built-in method __setstate__ of exceptions.NameError object>'
p23
sS'args'
p24
S'("name \'img\' is not defined",)'
p25
sS'__reduce__'
p26
S'<built-in method __reduce__ of exceptions.NameError object>'
p27
sS'__str__'
p28
S"<method-wrapper '__str__' of exceptions.NameError object>"
p29
sS'__format__'
p30
S'<built-in method __format__ of exceptions.NameError object>'
p31
sS'__getattribute__'
p32
S"<method-wrapper '__getattribute__' of exceptions.NameError object>"
p33
sS'__class__'
p34
S"<type 'exceptions.NameError'>"
p35
sS'__unicode__'
p36
S'<built-in method __unicode__ of exceptions.NameError object>'
p37
sS'__delattr__'
p38
S"<method-wrapper '__delattr__' of exceptions.NameError object>"
p39
sS'__subclasshook__'
p40
S'<built-in method __subclasshook__ of type object>'
p41
sS'__repr__'
p42
S"<method-wrapper '__repr__' of exceptions.NameError object>"
p43
sS'__dict__'
p44
S'{}'
p45
sS'__sizeof__'
p46
S'<built-in method __sizeof__ of exceptions.NameError object>'
p47
sS'__doc__'
p48
S"'Name not found globally.'"
p49
sS'__init__'
p50
S"<method-wrapper '__init__' of exceptions.NameError object>"
p51
sS'__new__'
p52
S'<built-in method __new__ of type object>'
p53
ssS'evalue'
p54
S"name 'img' is not defined"
p55
sS'request'
p56
cgluon.html
XML_unpickle
p57
(S's\xaf_\x00\x00<div><table><tr><td style="font-weight:bold;vertical-align:top;">ajax</td><td style="vertical-align:top;">:</td><td><div>False</div></td></tr><tr><td style="font-weight:bold;vertical-align:top;">application</td><td style="vertical-align:top;">:</td><td><div>bootup</div></td></tr><tr><td style="font-weight:bold;vertical-align:top;">args</td><td style="vertical-align:top;">:</td><td><div><table></table></div></td></tr><tr><td style="font-weight:bold;vertical-align:top;">cid</td><td style="vertical-align:top;">:</td><td><div>None</div></td></tr><tr><td style="font-weight:bold;vertical-align:top;">client</td><td style="vertical-align:top;">:</td><td><div>127.0.0.1</div></td></tr><tr><td style="font-weight:bold;vertical-align:top;">controller</td><td style="vertical-align:top;">:</td><td><div>project</div></td></tr><tr><td style="font-weight:bold;vertical-align:top;">cookies</td><td style="vertical-align:top;">:</td><td><div><table><tr><td style="font-weight:bold;vertical-align:top;">session_id_admin</td><td style="vertical-align:top;">:</td><td><div>127.0.0.1-d9c35767-bbb7-432a-9354-205be0917d1e<table><tr><td style="font-weight:bold;vertical-align:top;">comment</td><td style="vertical-align:top;">:</td><td><div></div></td></tr><tr><td style="font-weight:bold;vertical-align:top;">domain</td><td style="vertical-align:top;">:</td><td><div></div></td></tr><tr><td style="font-weight:bold;vertical-align:top;">expires</td><td style="vertical-align:top;">:</td><td><div></div></td></tr><tr><td style="font-weight:bold;vertical-align:top;">httponly</td><td style="vertical-align:top;">:</td><td><div></div></td></tr><tr><td style="font-weight:bold;vertical-align:top;">max-age</td><td style="vertical-align:top;">:</td><td><div></div></td></tr><tr><td style="font-weight:bold;vertical-align:top;">path</td><td style="vertical-align:top;">:</td><td><div></div></td></tr><tr><td style="font-weight:bold;vertical-align:top;">secure</td><td style="vertical-align:top;">:</td><td><div></div></td></tr><tr><td style="font-weight:bold;vertical-align:top;">version</td><td style="vertical-align:top;">:</td><td><div></div></td></tr></table></div></td></tr><tr><td style="font-weight:bold;vertical-align:top;">session_id_bootup</td><td style="vertical-align:top;">:</td><td><div>127.0.0.1-1df8b906-85be-4427-aa82-8ca4bec859ca<table><tr><td style="font-weight:bold;vertical-align:top;">comment</td><td style="vertical-align:top;">:</td><td><div></div></td></tr><tr><td style="font-weight:bold;vertical-align:top;">domain</td><td style="vertical-align:top;">:</td><td><div></div></td></tr><tr><td style="font-weight:bold;vertical-align:top;">expires</td><td style="vertical-align:top;">:</td><td><div></div></td></tr><tr><td style="font-weight:bold;vertical-align:top;">httponly</td><td style="vertical-align:top;">:</td><td><div></div></td></tr><tr><td style="font-weight:bold;vertical-align:top;">max-age</td><td style="vertical-align:top;">:</td><td><div></div></td></tr><tr><td style="font-weight:bold;vertical-align:top;">path</td><td style="vertical-align:top;">:</td><td><div></div></td></tr><tr><td style="font-weight:bold;vertical-align:top;">secure</td><td style="vertical-align:top;">:</td><td><div></div></td></tr><tr><td style="font-weight:bold;vertical-align:top;">version</td><td style="vertical-align:top;">:</td><td><div></div></td></tr></table></div></td></tr><tr><td style="font-weight:bold;vertical-align:top;">session_id_test</td><td style="vertical-align:top;">:</td><td><div>127.0.0.1-828bfb30-9d54-4ab5-a9f7-069b81aa7ef1<table><tr><td style="font-weight:bold;vertical-align:top;">comment</td><td style="vertical-align:top;">:</td><td><div></div></td></tr><tr><td style="font-weight:bold;vertical-align:top;">domain</td><td style="vertical-align:top;">:</td><td><div></div></td></tr><tr><td style="font-weight:bold;vertical-align:top;">expires</td><td style="vertical-align:top;">:</td><td><div></div></td></tr><tr><td style="font-weight:bold;vertical-align:top;">httponly</td><td style="vertical-align:top;">:</td><td><div></div></td></tr><tr><td style="font-weight:bold;vertical-align:top;">max-age</td><td style="vertical-align:top;">:</td><td><div></div></td></tr><tr><td style="font-weight:bold;vertical-align:top;">path</td><td style="vertical-align:top;">:</td><td><div></div></td></tr><tr><td style="font-weight:bold;vertical-align:top;">secure</td><td style="vertical-align:top;">:</td><td><div></div></td></tr><tr><td style="font-weight:bold;vertical-align:top;">version</td><td style="vertical-align:top;">:</td><td><div></div></td></tr></table></div></td></tr></table></div></td></tr><tr><td style="font-weight:bold;vertical-align:top;">env</td><td style="vertical-align:top;">:</td><td><div><table><tr><td style="font-weight:bold;vertical-align:top;">HTTP_ACCEPT</td><td style="vertical-align:top;">:</td><td><div>text/html,application/xhtml+xml,application/xml;q=0.9,image/webp,*/*;q=0.8</div></td></tr><tr><td style="font-weight:bold;vertical-align:top;">HTTP_ACCEPT_ENCODING</td><td style="vertical-align:top;">:</td><td><div>gzip,deflate,sdch</div></td></tr><tr><td style="font-weight:bold;vertical-align:top;">HTTP_ACCEPT_LANGUAGE</td><td style="vertical-align:top;">:</td><td><div>en-US,en;q=0.8</div></td></tr><tr><td style="font-weight:bold;vertical-align:top;">HTTP_CACHE_CONTROL</td><td style="vertical-align:top;">:</td><td><div>max-age=0</div></td></tr><tr><td style="font-weight:bold;vertical-align:top;">HTTP_CONNECTION</td><td style="vertical-align:top;">:</td><td><div>keep-alive</div></td></tr><tr><td style="font-weight:bold;vertical-align:top;">HTTP_COOKIE</td><td style="vertical-align:top;">:</td><td><div>session_id_test=127.0.0.1-828bfb30-9d54-4ab5-a9f7-069b81aa7ef1; session_id_admin=127.0.0.1-d9c35767-bbb7-432a-9354-205be0917d1e; session_id_bootup=127.0.0.1-1df8b906-85be-4427-aa82-8ca4bec859ca</div></td></tr><tr><td style="font-weight:bold;vertical-align:top;">HTTP_HOST</td><td style="vertical-align:top;">:</td><td><div>127.0.0.1:8000</div></td></tr><tr><td style="font-weight:bold;vertical-align:top;">HTTP_REFERER</td><td style="vertical-align:top;">:</td><td><div>http://127.0.0.1:8000/bootup/card/index</div></td></tr><tr><td style="font-weight:bold;vertical-align:top;">HTTP_USER_AGENT</td><td style="vertical-align:top;">:</td><td><div>Mozilla/5.0 (Macintosh; Intel Mac OS X 10_9_4) AppleWebKit/537.36 (KHTML, like Gecko) Chrome/38.0.2125.122 Safari/537.36</div></td></tr><tr><td style="font-weight:bold;vertical-align:top;">PATH_INFO</td><td style="vertical-align:top;">:</td><td><div>/bootup/project/index</div></td></tr><tr><td style="font-weight:bold;vertical-align:top;">QUERY_STRING</td><td style="vertical-align:top;">:</td><td><div></div></td></tr><tr><td style="font-weight:bold;vertical-align:top;">REMOTE_ADDR</td><td style="vertical-align:top;">:</td><td><div>127.0.0.1</div></td></tr><tr><td style="font-weight:bold;vertical-align:top;">REMOTE_PORT</td><td style="vertical-align:top;">:</td><td><div>64811</div></td></tr><tr><td style="font-weight:bold;vertical-align:top;">REQUEST_METHOD</td><td style="vertical-align:top;">:</td><td><div>GET</div></td></tr><tr><td style="font-weight:bold;vertical-align:top;">SCRIPT_NAME</td><td style="vertical-align:top;">:</td><td><div></div></td></tr><tr><td style="font-weight:bold;vertical-align:top;">SERVER_NAME</td><td style="vertical-align:top;">:</td><td><div>nas10-240-51-102.york.ac.uk</div></td></tr><tr><td style="font-weight:bold;vertical-align:top;">SERVER_PORT</td><td style="vertical-align:top;">:</td><td><div>8000</div></td></tr><tr><td style="font-weight:bold;vertical-align:top;">SERVER_PROTOCOL</td><td style="vertical-align:top;">:</td><td><div>HTTP/1.1</div></td></tr><tr><td style="font-weight:bold;vertical-align:top;">SERVER_SOFTWARE</td><td style="vertical-align:top;">:</td><td><div>Rocket 1.2.6</div></td></tr><tr><td style="font-weight:bold;vertical-align:top;">app_folders</td><td style="vertical-align:top;">:</td><td><div>set([&#x27;/Users/james/Documents/Dropbox/Uni/Year 4/iapt/assessment/web2py-2.9.11/web2py/applications/test/&#x27;, &#x27;/Users/james/Documents/Dropbox/Uni/Year 4/iapt/assessment/web2py-2.9.11/web2py/applications/admin/&#x27;, &#x27;/Users/james/Documents/Dropbox/Uni/Year 4/iapt/assessment/web2py-2.9.11/web2py/applications/bootup/&#x27;])</div></td></tr><tr><td style="font-weight:bold;vertical-align:top;">applications_parent</td><td style="vertical-align:top;">:</td><td><div>/Users/james/Documents/Dropbox/Uni/Year 4/iapt/assessment/web2py-2.9.11/web2py</div></td></tr><tr><td style="font-weight:bold;vertical-align:top;">cmd_args</td><td style="vertical-align:top;">:</td><td><div><table></table></div></td></tr><tr><td style="font-weight:bold;vertical-align:top;">cmd_options</td><td style="vertical-align:top;">:</td><td><div>&lt;Values at 0x10a2ca2d8: {&#x27;verbose&#x27;: False, &#x27;ip&#x27;: &#x27;127.0.0.1&#x27;, &#x27;debuglevel&#x27;: 30, &#x27;with_scheduler&#x27;: False, &#x27;ips&#x27;: [&#x27;10.240.51.102&#x27;], &#x27;shutdown_timeout&#x27;: 5, &#x27;taskbar&#x27;: False, &#x27;with_coverage&#x27;: False, &#x27;scheduler_groups&#x27;: None, &#x27;port&#x27;: 8000, &#x27;maxthreads&#x27;: None, &#x27;softcron&#x27;: False, &#x27;server_name&#x27;: &#x27;nas10-240-51-102.york.ac.uk&#x27;, &#x27;bpython&#x27;: False, &#x27;nogui&#x27;: False, &#x27;pid_filename&#x27;: &#x27;httpserver.pid&#x27;, &#x27;extcron&#x27;: False, &#x27;runcron&#x27;: False, &#x27;run_system_tests&#x27;: False, &#x27;test&#x27;: None, &#x27;folder&#x27;: &#x27;/Users/james/Documents/Dropbox/Uni/Year 4/iapt/assessment/web2py-2.9.11/web2py&#x27;, &#x27;config&#x27;: &#x27;&#x27;, &#x27;minthreads&#x27;: None, &#x27;shell&#x27;: None, &#x27;run&#x27;: &#x27;&#x27;, &#x27;log_filename&#x27;: &#x27;httpserver.log&#x27;, &#x27;profiler_dir&#x27;: None, &#x27;args&#x27;: [&#x27;&#x27;], &#x27;socket_timeout&#x27;: 5, &#x27;ssl_ca_certificate&#x27;: None, &#x27;scheduler&#x27;: None, &#x27;interfaces&#x27;: None, &#x27;ssl_private_key&#x27;: &#x27;&#x27;, &#x27;gae&#x27;: None, &#x27;password&#x27;: &#x27;&lt;ask&gt;&#x27;, &#x27;request_queue_size&#x27;: 5, &#x27;ssl_certificate&#x27;: &#x27;&#x27;, &#x27;cronjob&#x27;: False, &#x27;numthreads&#x27;: None, &#x27;quiet&#x27;: False, &#x27;import_models&#x27;: False, &#x27;timeout&#x27;: 10, &#x27;plain&#x27;: False, &#x27;nobanner&#x27;: False}&gt;</div></td></tr><tr><td style="font-weight:bold;vertical-align:top;">db_sessions</td><td style="vertical-align:top;">:</td><td><div>set([])</div></td></tr><tr><td style="font-weight:bold;vertical-align:top;">debugging</td><td style="vertical-align:top;">:</td><td><div>True</div></td></tr><tr><td style="font-weight:bold;vertical-align:top;">gluon_parent</td><td style="vertical-align:top;">:</td><td><div>/Users/james/Documents/Dropbox/Uni/Year 4/iapt/assessment/web2py-2.9.11/web2py</div></td></tr><tr><td style="font-weight:bold;vertical-align:top;">http_accept</td><td style="vertical-align:top;">:</td><td><div>text/html,application/xhtml+xml,application/xml;q=0.9,image/webp,*/*;q=0.8</div></td></tr><tr><td style="font-weight:bold;vertical-align:top;">http_accept_encoding</td><td style="vertical-align:top;">:</td><td><div>gzip,deflate,sdch</div></td></tr><tr><td style="font-weight:bold;vertical-align:top;">http_accept_language</td><td style="vertical-align:top;">:</td><td><div>en-US,en;q=0.8</div></td></tr><tr><td style="font-weight:bold;vertical-align:top;">http_cache_control</td><td style="vertical-align:top;">:</td><td><div>max-age=0</div></td></tr><tr><td style="font-weight:bold;vertical-align:top;">http_connection</td><td style="vertical-align:top;">:</td><td><div>keep-alive</div></td></tr><tr><td style="font-weight:bold;vertical-align:top;">http_cookie</td><td style="vertical-align:top;">:</td><td><div>session_id_test=127.0.0.1-828bfb30-9d54-4ab5-a9f7-069b81aa7ef1; session_id_admin=127.0.0.1-d9c35767-bbb7-432a-9354-205be0917d1e; session_id_bootup=127.0.0.1-1df8b906-85be-4427-aa82-8ca4bec859ca</div></td></tr><tr><td style="font-weight:bold;vertical-align:top;">http_host</td><td style="vertical-align:top;">:</td><td><div>127.0.0.1:8000</div></td></tr><tr><td style="font-weight:bold;vertical-align:top;">http_referer</td><td style="vertical-align:top;">:</td><td><div>http://127.0.0.1:8000/bootup/card/index</div></td></tr><tr><td style="font-weight:bold;vertical-align:top;">http_user_agent</td><td style="vertical-align:top;">:</td><td><div>Mozilla/5.0 (Macintosh; Intel Mac OS X 10_9_4) AppleWebKit/537.36 (KHTML, like Gecko) Chrome/38.0.2125.122 Safari/537.36</div></td></tr><tr><td style="font-weight:bold;vertical-align:top;">is_jython</td><td style="vertical-align:top;">:</td><td><div>False</div></td></tr><tr><td style="font-weight:bold;vertical-align:top;">is_pypy</td><td style="vertical-align:top;">:</td><td><div>False</div></td></tr><tr><td style="font-weight:bold;vertical-align:top;">is_source</td><td style="vertical-align:top;">:</td><td><div>True</div></td></tr><tr><td style="font-weight:bold;vertical-align:top;">local_hosts</td><td style="vertical-align:top;">:</td><td><div><table><tr><td><div>10.240.51.102</div></td></tr><tr><td><div>::1</div></td></tr><tr><td><div>::ffff:127.0.0.1</div></td></tr><tr><td><div>127.0.0.1</div></td></tr><tr><td><div>nas10-240-51-102.york.ac.uk</div></td></tr></table></div></td></tr><tr><td style="font-weight:bold;vertical-align:top;">path_info</td><td style="vertical-align:top;">:</td><td><div>/bootup/project/index</div></td></tr><tr><td style="font-weight:bold;vertical-align:top;">query_string</td><td style="vertical-align:top;">:</td><td><div></div></td></tr><tr><td style="font-weight:bold;vertical-align:top;">remote_addr</td><td style="vertical-align:top;">:</td><td><div>127.0.0.1</div></td></tr><tr><td style="font-weight:bold;vertical-align:top;">remote_port</td><td style="vertical-align:top;">:</td><td><div>64811</div></td></tr><tr><td style="font-weight:bold;vertical-align:top;">request_method</td><td style="vertical-align:top;">:</td><td><div>GET</div></td></tr><tr><td style="font-weight:bold;vertical-align:top;">request_uri</td><td style="vertical-align:top;">:</td><td><div>/bootup/project/index</div></td></tr><tr><td style="font-weight:bold;vertical-align:top;">script_name</td><td style="vertical-align:top;">:</td><td><div></div></td></tr><tr><td style="font-weight:bold;vertical-align:top;">server_name</td><td style="vertical-align:top;">:</td><td><div>nas10-240-51-102.york.ac.uk</div></td></tr><tr><td style="font-weight:bold;vertical-align:top;">server_port</td><td style="vertical-align:top;">:</td><td><div>8000</div></td></tr><tr><td style="font-weight:bold;vertical-align:top;">server_protocol</td><td style="vertical-align:top;">:</td><td><div>HTTP/1.1</div></td></tr><tr><td style="font-weight:bold;vertical-align:top;">server_software</td><td style="vertical-align:top;">:</td><td><div>Rocket 1.2.6</div></td></tr><tr><td style="font-weight:bold;vertical-align:top;">web2py_path</td><td style="vertical-align:top;">:</td><td><div>/Users/james/Documents/Dropbox/Uni/Year 4/iapt/assessment/web2py-2.9.11/web2py</div></td></tr><tr><td style="font-weight:bold;vertical-align:top;">web2py_version</td><td style="vertical-align:top;">:</td><td><div>2.9.11-stable+timestamp.2014.09.15.23.35.11</div></td></tr><tr><td style="font-weight:bold;vertical-align:top;">wsgi.errors</td><td style="vertical-align:top;">:</td><td><div>&lt;open file &#x27;&lt;stderr&gt;&#x27;, mode &#x27;w&#x27; at 0x1093ea1e0&gt;</div></td></tr><tr><td style="font-weight:bold;vertical-align:top;">wsgi.file_wrapper</td><td style="vertical-align:top;">:</td><td><div>&lt;class wsgiref.util.FileWrapper at 0x109ffce20&gt;</div></td></tr><tr><td style="font-weight:bold;vertical-align:top;">wsgi.input</td><td style="vertical-align:top;">:</td><td><div>&lt;socket._fileobject object at 0x11374ef50&gt;</div></td></tr><tr><td style="font-weight:bold;vertical-align:top;">wsgi.multiprocess</td><td style="vertical-align:top;">:</td><td><div>False</div></td></tr><tr><td style="font-weight:bold;vertical-align:top;">wsgi.multithread</td><td style="vertical-align:top;">:</td><td><div>True</div></td></tr><tr><td style="font-weight:bold;vertical-align:top;">wsgi.run_once</td><td style="vertical-align:top;">:</td><td><div>False</div></td></tr><tr><td style="font-weight:bold;vertical-align:top;">wsgi.url_scheme</td><td style="vertical-align:top;">:</td><td><div>http</div></td></tr><tr><td style="font-weight:bold;vertical-align:top;">wsgi.version</td><td style="vertical-align:top;">:</td><td><div><table><tr><td><div>1</div></td></tr><tr><td><div>0</div></td></tr></table></div></td></tr><tr><td style="font-weight:bold;vertical-align:top;">wsgi_errors</td><td style="vertical-align:top;">:</td><td><div>&lt;open file &#x27;&lt;stderr&gt;&#x27;, mode &#x27;w&#x27; at 0x1093ea1e0&gt;</div></td></tr><tr><td style="font-weight:bold;vertical-align:top;">wsgi_file_wrapper</td><td style="vertical-align:top;">:</td><td><div>&lt;class wsgiref.util.FileWrapper at 0x109ffce20&gt;</div></td></tr><tr><td style="font-weight:bold;vertical-align:top;">wsgi_input</td><td style="vertical-align:top;">:</td><td><div>&lt;socket._fileobject object at 0x11374ef50&gt;</div></td></tr><tr><td style="font-weight:bold;vertical-align:top;">wsgi_multiprocess</td><td style="vertical-align:top;">:</td><td><div>False</div></td></tr><tr><td style="font-weight:bold;vertical-align:top;">wsgi_multithread</td><td style="vertical-align:top;">:</td><td><div>True</div></td></tr><tr><td style="font-weight:bold;vertical-align:top;">wsgi_run_once</td><td style="vertical-align:top;">:</td><td><div>False</div></td></tr><tr><td style="font-weight:bold;vertical-align:top;">wsgi_url_scheme</td><td style="vertical-align:top;">:</td><td><div>http</div></td></tr><tr><td style="font-weight:bold;vertical-align:top;">wsgi_version</td><td style="vertical-align:top;">:</td><td><div><table><tr><td><div>1</div></td></tr><tr><td><div>0</div></td></tr></table></div></td></tr></table></div></td></tr><tr><td style="font-weight:bold;vertical-align:top;">extension</td><td style="vertical-align:top;">:</td><td><div>html</div></td></tr><tr><td style="font-weight:bold;vertical-align:top;">folder</td><td style="vertical-align:top;">:</td><td><div>/Users/james/Documents/Dropbox/Uni/Year 4/iapt/assessment/web2py-2.9.11/web2py/applications/bootup/</div></td></tr><tr><td style="font-weight:bold;vertical-align:top;">function</td><td style="vertical-align:top;">:</td><td><div>index</div></td></tr><tr><td style="font-weight:bold;vertical-align:top;">global_settings</td><td style="vertical-align:top;">:</td><td><div><table><tr><td style="font-weight:bold;vertical-align:top;">app_folders</td><td style="vertical-align:top;">:</td><td><div>set([&#x27;/Users/james/Documents/Dropbox/Uni/Year 4/iapt/assessment/web2py-2.9.11/web2py/applications/test/&#x27;, &#x27;/Users/james/Documents/Dropbox/Uni/Year 4/iapt/assessment/web2py-2.9.11/web2py/applications/admin/&#x27;, &#x27;/Users/james/Documents/Dropbox/Uni/Year 4/iapt/assessment/web2py-2.9.11/web2py/applications/bootup/&#x27;])</div></td></tr><tr><td style="font-weight:bold;vertical-align:top;">applications_parent</td><td style="vertical-align:top;">:</td><td><div>/Users/james/Documents/Dropbox/Uni/Year 4/iapt/assessment/web2py-2.9.11/web2py</div></td></tr><tr><td style="font-weight:bold;vertical-align:top;">cmd_args</td><td style="vertical-align:top;">:</td><td><div><table></table></div></td></tr><tr><td style="font-weight:bold;vertical-align:top;">cmd_options</td><td style="vertical-align:top;">:</td><td><div>&lt;Values at 0x10a2ca2d8: {&#x27;verbose&#x27;: False, &#x27;ip&#x27;: &#x27;127.0.0.1&#x27;, &#x27;debuglevel&#x27;: 30, &#x27;with_scheduler&#x27;: False, &#x27;ips&#x27;: [&#x27;10.240.51.102&#x27;], &#x27;shutdown_timeout&#x27;: 5, &#x27;taskbar&#x27;: False, &#x27;with_coverage&#x27;: False, &#x27;scheduler_groups&#x27;: None, &#x27;port&#x27;: 8000, &#x27;maxthreads&#x27;: None, &#x27;softcron&#x27;: False, &#x27;server_name&#x27;: &#x27;nas10-240-51-102.york.ac.uk&#x27;, &#x27;bpython&#x27;: False, &#x27;nogui&#x27;: False, &#x27;pid_filename&#x27;: &#x27;httpserver.pid&#x27;, &#x27;extcron&#x27;: False, &#x27;runcron&#x27;: False, &#x27;run_system_tests&#x27;: False, &#x27;test&#x27;: None, &#x27;folder&#x27;: &#x27;/Users/james/Documents/Dropbox/Uni/Year 4/iapt/assessment/web2py-2.9.11/web2py&#x27;, &#x27;config&#x27;: &#x27;&#x27;, &#x27;minthreads&#x27;: None, &#x27;shell&#x27;: None, &#x27;run&#x27;: &#x27;&#x27;, &#x27;log_filename&#x27;: &#x27;httpserver.log&#x27;, &#x27;profiler_dir&#x27;: None, &#x27;args&#x27;: [&#x27;&#x27;], &#x27;socket_timeout&#x27;: 5, &#x27;ssl_ca_certificate&#x27;: None, &#x27;scheduler&#x27;: None, &#x27;interfaces&#x27;: None, &#x27;ssl_private_key&#x27;: &#x27;&#x27;, &#x27;gae&#x27;: None, &#x27;password&#x27;: &#x27;&lt;ask&gt;&#x27;, &#x27;request_queue_size&#x27;: 5, &#x27;ssl_certificate&#x27;: &#x27;&#x27;, &#x27;cronjob&#x27;: False, &#x27;numthreads&#x27;: None, &#x27;quiet&#x27;: False, &#x27;import_models&#x27;: False, &#x27;timeout&#x27;: 10, &#x27;plain&#x27;: False, &#x27;nobanner&#x27;: False}&gt;</div></td></tr><tr><td style="font-weight:bold;vertical-align:top;">db_sessions</td><td style="vertical-align:top;">:</td><td><div>set([])</div></td></tr><tr><td style="font-weight:bold;vertical-align:top;">debugging</td><td style="vertical-align:top;">:</td><td><div>True</div></td></tr><tr><td style="font-weight:bold;vertical-align:top;">gluon_parent</td><td style="vertical-align:top;">:</td><td><div>/Users/james/Documents/Dropbox/Uni/Year 4/iapt/assessment/web2py-2.9.11/web2py</div></td></tr><tr><td style="font-weight:bold;vertical-align:top;">is_jython</td><td style="vertical-align:top;">:</td><td><div>False</div></td></tr><tr><td style="font-weight:bold;vertical-align:top;">is_pypy</td><td style="vertical-align:top;">:</td><td><div>False</div></td></tr><tr><td style="font-weight:bold;vertical-align:top;">is_source</td><td style="vertical-align:top;">:</td><td><div>True</div></td></tr><tr><td style="font-weight:bold;vertical-align:top;">local_hosts</td><td style="vertical-align:top;">:</td><td><div><table><tr><td><div>10.240.51.102</div></td></tr><tr><td><div>::1</div></td></tr><tr><td><div>::ffff:127.0.0.1</div></td></tr><tr><td><div>127.0.0.1</div></td></tr><tr><td><div>nas10-240-51-102.york.ac.uk</div></td></tr></table></div></td></tr><tr><td style="font-weight:bold;vertical-align:top;">web2py_version</td><td style="vertical-align:top;">:</td><td><div>2.9.11-stable+timestamp.2014.09.15.23.35.11</div></td></tr></table></div></td></tr><tr><td style="font-weight:bold;vertical-align:top;">is_https</td><td style="vertical-align:top;">:</td><td><div>False</div></td></tr><tr><td style="font-weight:bold;vertical-align:top;">is_local</td><td style="vertical-align:top;">:</td><td><div>True</div></td></tr><tr><td style="font-weight:bold;vertical-align:top;">is_restful</td><td style="vertical-align:top;">:</td><td><div>False</div></td></tr><tr><td style="font-weight:bold;vertical-align:top;">is_sheduler</td><td style="vertical-align:top;">:</td><td><div>None</div></td></tr><tr><td style="font-weight:bold;vertical-align:top;">is_shell</td><td style="vertical-align:top;">:</td><td><div>None</div></td></tr><tr><td style="font-weight:bold;vertical-align:top;">now</td><td style="vertical-align:top;">:</td><td><div>datetime.datetime(2014, 11, 26, 22, 36, 37, 490249)</div></td></tr><tr><td style="font-weight:bold;vertical-align:top;">raw_args</td><td style="vertical-align:top;">:</td><td><div></div></td></tr><tr><td style="font-weight:bold;vertical-align:top;">raw_extension</td><td style="vertical-align:top;">:</td><td><div>None</div></td></tr><tr><td style="font-weight:bold;vertical-align:top;">url</td><td style="vertical-align:top;">:</td><td><div>/bootup/project/index</div></td></tr><tr><td style="font-weight:bold;vertical-align:top;">utcnow</td><td style="vertical-align:top;">:</td><td><div>datetime.datetime(2014, 11, 26, 22, 36, 37, 490259)</div></td></tr><tr><td style="font-weight:bold;vertical-align:top;">uuid</td><td style="vertical-align:top;">:</td><td><div>bootup/127.0.0.1.2014-11-26.22-36-37.2bd28a24-c124-4bb9-a52d-d82660cc04ba</div></td></tr><tr><td style="font-weight:bold;vertical-align:top;">wsgi</td><td style="vertical-align:top;">:</td><td><div>&lt;gluon.main.LazyWSGI object at 0x11377ee90&gt;</div></td></tr></table></div>'
tRp58
sS'frames'
p59
(lp60
(dp61
S'file'
p62
S'/Users/james/Documents/Dropbox/Uni/Year 4/iapt/assessment/web2py-2.9.11/web2py/gluon/restricted.py'
p63
sS'dump'
p64
(dp65
S'environment'
p66
S"{'A': <class 'gluon.html.A'>, 'ANY_OF': <class 'gluon.validators.ANY_OF'>, 'ASSIGNJS': <function ASSIGNJS>, 'B': <class 'gluon.html.B'>, 'BEAUTIFY': <class 'gluon.html.BEAUTIFY'>, 'BODY': <class 'gluon.html.BODY'>, 'BR': <class 'gluon.html.BR'>, 'BUTTON': <class 'gluon.html.BUTTON'>, 'BootUpAuth': <class __restricted__.BootUpAuth>, 'CAT': <class 'gluon.html.CAT'>, ...}"
p67
sS'ccode'
p68
S'<code object <module> at 0x11374e8b0, file "/Use...cations/bootup/views/project/index.html", line 1>'
p69
ssS'lnum'
p70
I224
sS'lines'
p71
(dp72
I224
S'        exec ccode in environment'
p73
sI225
S'    except HTTP:'
p74
sI226
S'        raise'
p75
sI227
S'    except RestrictedError:'
p76
sI228
S'        # do not encapsulate (obfuscate) the original RestrictedError'
p77
sI219
S'    try:'
p78
sI220
S'        if isinstance(code, types.CodeType):'
p79
sI221
S'            ccode = code'
p80
sI222
S'        else:'
p81
sI223
S'            ccode = compile2(code, layer)'
p82
ssS'call'
p83
S'(code="categories=db().select(db.category.ALL)\\nresponse...nse.write(\'\\\\n\\\\n\\\\n</body>\\\\n</html>\', escape=False)", environment={\'A\': <class \'gluon.html.A\'>, \'ANY_OF\': <class \'gluon.validators.ANY_OF\'>, \'ASSIGNJS\': <function ASSIGNJS>, \'B\': <class \'gluon.html.B\'>, \'BEAUTIFY\': <class \'gluon.html.BEAUTIFY\'>, \'BODY\': <class \'gluon.html.BODY\'>, \'BR\': <class \'gluon.html.BR\'>, \'BUTTON\': <class \'gluon.html.BUTTON\'>, \'BootUpAuth\': <class __restricted__.BootUpAuth>, \'CAT\': <class \'gluon.html.CAT\'>, ...}, layer=\'/Users/james/Documents/Dropbox/Uni/Year 4/iapt/a...b2py/applications/bootup/views/project/index.html\')'
p84
sS'func'
p85
S'restricted'
p86
sa(dp87
g62
S'/Users/james/Documents/Dropbox/Uni/Year 4/iapt/assessment/web2py-2.9.11/web2py/applications/bootup/views/project/index.html'
p88
sg64
(dp89
sg70
I45
sg71
(dp90
I36
S"    response.write('</li>\\n              ', escape=False)"
p91
sI37
S'    pass'
p92
sI38
S'response.write(\'\\n          </ul>\\n        </div>\\n\\n    </nav>\\n\\n    <div class="container" role="main">\\n        \', escape=False)'
p93
sI39
S'response.write(\'\\n\\n        <div class="column">\\n            <h3>Nearly funded</h3>\\n            <div class="project_list row">\\n                \', escape=False)'
p94
sI40
S'for record in closest:'
p95
sI41
S"    response.write('\\n                    ', escape=False)"
p96
sI42
S'    response.write(\'<div class="project_tile col-xs-6 col-sm-4 col-md-4 col-lg-4">\\n<div class="project_name">\', escape=False)'
p97
sI43
S"    response.write(H3(A(record.project.title, _href=URL('bootups','project','view',args=[record.project.idproject]))))"
p98
sI44
S'    response.write(\'</div>\\n<div class="project_image"><img src="\', escape=False)'
p99
sI45
S'    response.write(URL(record.project.imageurl,args=img))'
p100
sI46
S'    response.write(\'" /></div>\\n<div class="project_stats">\', escape=False)'
p101
sI47
S'    response.write(record.projectstat.bootings)'
p102
sI48
S"    response.write(' backers. &pound;', escape=False)"
p103
sI49
S'    response.write(record.projectstat.progress)'
p104
sI50
S"    response.write('%</div>\\n', escape=False)"
p105
sI51
S'    response.write(record.project.shortdescription)'
p106
sI52
S"    response.write('\\n</div>', escape=False)"
p107
sI53
S"    response.write('\\n                ', escape=False)"
p108
sI54
S'    pass'
p109
sI55
S'response.write(\'\\n                <div class="project_tile col-xs-6 col-sm-4 col-md-4 col-lg-4">\\n                    \', escape=False)'
p110
ssg83
S'()'
p111
sg85
S'<module>'
p112
sasS'pyver'
p113
S'Python 2.7.5: /usr/bin/python (prefix: /System/Library/Frameworks/Python.framework/Versions/2.7)'
p114
sS'session'
p115
g57
(S's\x99\x00\x00\x00<div><table><tr><td style="font-weight:bold;vertical-align:top;">user</td><td style="vertical-align:top;">:</td><td><div>1L</div></td></tr></table></div>'
tRp116
sS'etype'
p117
S"<type 'exceptions.NameError'>"
p118
sS'date'
p119
S'Wed Nov 26 22:36:37 2014'
p120
sS'response'
p121
g57
(S'sX\x18\x00\x00<div><table><tr><td style="font-weight:bold;vertical-align:top;">body</td><td style="vertical-align:top;">:</td><td><div>&lt;cStringIO.StringO object at 0x10a3910a0&gt;</div></td></tr><tr><td style="font-weight:bold;vertical-align:top;">cookies</td><td style="vertical-align:top;">:</td><td><div><table><tr><td style="font-weight:bold;vertical-align:top;">session_id_bootup</td><td style="vertical-align:top;">:</td><td><div>127.0.0.1-1df8b906-85be-4427-aa82-8ca4bec859ca<table><tr><td style="font-weight:bold;vertical-align:top;">comment</td><td style="vertical-align:top;">:</td><td><div></div></td></tr><tr><td style="font-weight:bold;vertical-align:top;">domain</td><td style="vertical-align:top;">:</td><td><div></div></td></tr><tr><td style="font-weight:bold;vertical-align:top;">expires</td><td style="vertical-align:top;">:</td><td><div></div></td></tr><tr><td style="font-weight:bold;vertical-align:top;">httponly</td><td style="vertical-align:top;">:</td><td><div></div></td></tr><tr><td style="font-weight:bold;vertical-align:top;">max-age</td><td style="vertical-align:top;">:</td><td><div></div></td></tr><tr><td style="font-weight:bold;vertical-align:top;">path</td><td style="vertical-align:top;">:</td><td><div>/</div></td></tr><tr><td style="font-weight:bold;vertical-align:top;">secure</td><td style="vertical-align:top;">:</td><td><div></div></td></tr><tr><td style="font-weight:bold;vertical-align:top;">version</td><td style="vertical-align:top;">:</td><td><div></div></td></tr></table></div></td></tr></table></div></td></tr><tr><td style="font-weight:bold;vertical-align:top;">delimiters</td><td style="vertical-align:top;">:</td><td><div><table><tr><td><div>{{</div></td></tr><tr><td><div>}}</div></td></tr></table></div></td></tr><tr><td style="font-weight:bold;vertical-align:top;">files</td><td style="vertical-align:top;">:</td><td><div><table></table></div></td></tr><tr><td style="font-weight:bold;vertical-align:top;">flash</td><td style="vertical-align:top;">:</td><td><div></div></td></tr><tr><td style="font-weight:bold;vertical-align:top;">form_label_separator</td><td style="vertical-align:top;">:</td><td><div>: </div></td></tr><tr><td style="font-weight:bold;vertical-align:top;">formstyle</td><td style="vertical-align:top;">:</td><td><div>table3cols</div></td></tr><tr><td style="font-weight:bold;vertical-align:top;">generic_patterns</td><td style="vertical-align:top;">:</td><td><div><table><tr><td><div>*</div></td></tr></table></div></td></tr><tr><td style="font-weight:bold;vertical-align:top;">headers</td><td style="vertical-align:top;">:</td><td><div><table><tr><td style="font-weight:bold;vertical-align:top;">X-Powered-By</td><td style="vertical-align:top;">:</td><td><div>web2py</div></td></tr></table></div></td></tr><tr><td style="font-weight:bold;vertical-align:top;">menu</td><td style="vertical-align:top;">:</td><td><div><table></table></div></td></tr><tr><td style="font-weight:bold;vertical-align:top;">meta</td><td style="vertical-align:top;">:</td><td><div><table></table></div></td></tr><tr><td style="font-weight:bold;vertical-align:top;">models_to_run</td><td style="vertical-align:top;">:</td><td><div><table><tr><td><div>^\\w+\\.py$</div></td></tr><tr><td><div>^project/\\w+\\.py$</div></td></tr><tr><td><div>^project/index/\\w+\\.py$</div></td></tr></table></div></td></tr><tr><td style="font-weight:bold;vertical-align:top;">postprocessing</td><td style="vertical-align:top;">:</td><td><div><table></table></div></td></tr><tr><td style="font-weight:bold;vertical-align:top;">session_client</td><td style="vertical-align:top;">:</td><td><div>127.0.0.1</div></td></tr><tr><td style="font-weight:bold;vertical-align:top;">session_cookie_compression_level</td><td style="vertical-align:top;">:</td><td><div>None</div></td></tr><tr><td style="font-weight:bold;vertical-align:top;">session_cookie_expires</td><td style="vertical-align:top;">:</td><td><div>None</div></td></tr><tr><td style="font-weight:bold;vertical-align:top;">session_cookie_key</td><td style="vertical-align:top;">:</td><td><div>None</div></td></tr><tr><td style="font-weight:bold;vertical-align:top;">session_data_name</td><td style="vertical-align:top;">:</td><td><div>session_data_bootup</div></td></tr><tr><td style="font-weight:bold;vertical-align:top;">session_file</td><td style="vertical-align:top;">:</td><td><div>&lt;open file &#x27;/Users/james/Documents/Dropbox/Uni/Year 4/iapt/assessment/web2py-2.9.11/web2py/applications/bootup/sessions/077/117/127.0.0.1-1df8b906-85be-4427-aa82-8ca4bec859ca&#x27;, mode &#x27;rb+&#x27; at 0x1135e7ed0&gt;</div></td></tr><tr><td style="font-weight:bold;vertical-align:top;">session_filename</td><td style="vertical-align:top;">:</td><td><div>/Users/james/Documents/Dropbox/Uni/Year 4/iapt/assessment/web2py-2.9.11/web2py/applications/bootup/sessions/127.0.0.1-1df8b906-85be-4427-aa82-8ca4bec859ca</div></td></tr><tr><td style="font-weight:bold;vertical-align:top;">session_hash</td><td style="vertical-align:top;">:</td><td><div>a0e073f4f1a806e877d915b2ca0caa03</div></td></tr><tr><td style="font-weight:bold;vertical-align:top;">session_id</td><td style="vertical-align:top;">:</td><td><div>127.0.0.1-1df8b906-85be-4427-aa82-8ca4bec859ca</div></td></tr><tr><td style="font-weight:bold;vertical-align:top;">session_id_name</td><td style="vertical-align:top;">:</td><td><div>session_id_bootup</div></td></tr><tr><td style="font-weight:bold;vertical-align:top;">session_locked</td><td style="vertical-align:top;">:</td><td><div>True</div></td></tr><tr><td style="font-weight:bold;vertical-align:top;">session_masterapp</td><td style="vertical-align:top;">:</td><td><div>bootup</div></td></tr><tr><td style="font-weight:bold;vertical-align:top;">session_new</td><td style="vertical-align:top;">:</td><td><div>False</div></td></tr><tr><td style="font-weight:bold;vertical-align:top;">session_storage_type</td><td style="vertical-align:top;">:</td><td><div>file</div></td></tr><tr><td style="font-weight:bold;vertical-align:top;">status</td><td style="vertical-align:top;">:</td><td><div>200</div></td></tr><tr><td style="font-weight:bold;vertical-align:top;">view</td><td style="vertical-align:top;">:</td><td><div>project/index.html</div></td></tr></table></div>'
tRp122
sS'locals'
p123
(dp124
S'openprojects'
p125
S'<Query (project.idproject IN (SELECT  openproject.projectid FROM openproject))>'
p126
sS'newest'
p127
S'<Rows (5)>'
p128
sS'closedprojects'
p129
S'<Query (project.idproject IN (SELECT  closedproject.openprojectid FROM closedproject))>'
p130
sS'OBJECT'
p131
S"<class 'gluon.html.OBJECT'>"
p132
sS'SQLDB'
p133
S"<class 'gluon.dal.DAL'>"
p134
sg115
S"<Storage {'_formkey[card/create]': ['01c60f0f-54...d/2]': ['e75e69d0-4a03-4ca7-b990-b0ca45f351dd']}>"
p135
sS'LINK'
p136
S"<class 'gluon.html.LINK'>"
p137
sS'BR'
p138
S"<class 'gluon.html.BR'>"
p139
sS'local_import'
p140
S'<function <lambda>>'
p141
sS'OPTGROUP'
p142
S"<class 'gluon.html.OPTGROUP'>"
p143
sS'__package__'
p144
S'None'
p145
sS'PRE'
p146
S"<class 'gluon.html.PRE'>"
p147
sS'IS_INT_IN_RANGE'
p148
S"<class 'gluon.validators.IS_INT_IN_RANGE'>"
p149
sS'IS_LOWER'
p150
S"<class 'gluon.validators.IS_LOWER'>"
p151
sS'IS_STRONG'
p152
S"<class 'gluon.validators.IS_STRONG'>"
p153
sS'cache'
p154
S'<gluon.cache.Cache object>'
p155
sS'IS_IN_DB'
p156
S"<class 'gluon.validators.IS_IN_DB'>"
p157
sS'TAG'
p158
S'<gluon.html.__TAG__ object>'
p159
sS'SQLField'
p160
S"<class 'gluon.dal.Field'>"
p161
sS'includeopendate'
p162
S'<Query (project.idproject = openproject.projectid)>'
p163
sS'BODY'
p164
S"<class 'gluon.html.BODY'>"
p165
sS'IS_DATE_IN_RANGE'
p166
S"<class 'gluon.validators.IS_DATE_IN_RANGE'>"
p167
sS'IFRAME'
p168
S"<class 'gluon.html.IFRAME'>"
p169
sS'URL('
p170
S'<function URL>'
p171
sS'__file__'
p172
S"'/Users/james/Documents/Dropbox/Uni/Year 4/iapt/a...b2py/applications/bootup/views/project/index.html'"
p173
sS'db'
p174
S'<DAL uri="sqlite://bootup.db">'
p175
sS'auth'
p176
S'<__restricted__.BootUpAuth instance>'
p177
sS'P'
S"<class 'gluon.html.P'>"
p178
sS'TFOOT'
p179
S"<class 'gluon.html.TFOOT'>"
p180
sS'XHTML'
p181
S"<class 'gluon.html.XHTML'>"
p182
sS'categories'
p183
S'<Rows (9)>'
p184
sS'ON'
p185
S'True'
p186
sS'OL'
p187
S"<class 'gluon.html.OL'>"
p188
sS'TEXTAREA'
p189
S"<class 'gluon.html.TEXTAREA'>"
p190
sS'MENU'
p191
S"<class 'gluon.html.MENU'>"
p192
sS'H2'
p193
S"<class 'gluon.html.H2'>"
p194
sS'STYLE'
p195
S"<class 'gluon.html.STYLE'>"
p196
sS'IS_IMAGE'
p197
S"<class 'gluon.validators.IS_IMAGE'>"
p198
sS'EM'
p199
S"<class 'gluon.html.EM'>"
p200
sS'CODE'
p201
S"<class 'gluon.html.CODE'>"
p202
sS'HTTP'
p203
S"<class 'gluon.http.HTTP'>"
p204
sS'HR'
p205
S"<class 'gluon.html.HR'>"
p206
sS'IS_DATETIME'
p207
S"<class 'gluon.validators.IS_DATETIME'>"
p208
sS'fundedprojects'
p209
S'<Query (projectstat.funded = 1)>'
p210
sS'LABEL'
p211
S"<class 'gluon.html.LABEL'>"
p212
sS'CLEANUP'
p213
S"<class 'gluon.validators.CLEANUP'>"
p214
sS'SELECT'
p215
S"<class 'gluon.html.SELECT'>"
p216
sS'CENTER'
p217
S"<class 'gluon.html.CENTER'>"
p218
sS'IS_EQUAL_TO'
p219
S"<class 'gluon.validators.IS_EQUAL_TO'>"
p220
sS'HTML'
p221
S"<class 'gluon.html.HTML'>"
p222
sS'SQLFORM'
p223
S"<class 'gluon.sqlhtml.SQLFORM'>"
p224
sS'BootUpAuth'
p225
S'<class __restricted__.BootUpAuth>'
p226
sS'LOAD'
p227
S'<function LOAD>'
p228
sS'redirect'
p229
S'<function redirect>'
p230
sS'FIELDSET'
p231
S"<class 'gluon.html.FIELDSET'>"
p232
sS'__builtins__'
p233
S"{'ArithmeticError': <type 'exceptions.ArithmeticError'>, 'AssertionError': <type 'exceptions.AssertionError'>, 'AttributeError': <type 'exceptions.AttributeError'>, 'BaseException': <type 'exceptions.BaseException'>, 'BufferError': <type 'exceptions.BufferError'>, 'BytesWarning': <type 'exceptions.BytesWarning'>, 'DeprecationWarning': <type 'exceptions.DeprecationWarning'>, 'EOFError': <type 'exceptions.EOFError'>, 'Ellipsis': Ellipsis, 'EnvironmentError': <type 'exceptions.EnvironmentError'>, ...}"
p234
sS'embed64'
p235
S'<function embed64>'
p236
sS'IS_LIST_OF'
p237
S"<class 'gluon.validators.IS_LIST_OF'>"
p238
sS'INPUT'
p239
S"<class 'gluon.html.INPUT'>"
p240
sS'EMBED'
p241
S"<class 'gluon.html.EMBED'>"
p242
sS'FORM'
p243
S"<class 'gluon.html.FORM'>"
p244
sS'searchableprojects'
p245
S'<Query ((project.idproject IN (SELECT  openproje...losedproject.openprojectid FROM closedproject)))>'
p246
sS'H3'
p247
S"<class 'gluon.html.H3'>"
p248
sS'BUTTON'
p249
S"<class 'gluon.html.BUTTON'>"
p250
sS'H1'
p251
S"<class 'gluon.html.H1'>"
p252
sS'H6'
p253
S"<class 'gluon.html.H6'>"
p254
sS'H4'
p255
S"<class 'gluon.html.H4'>"
p256
sS'H5'
p257
S"<class 'gluon.html.H5'>"
p258
sS'UL'
p259
S"<class 'gluon.html.UL'>"
p260
sS'IS_UPPER'
p261
S"<class 'gluon.validators.IS_UPPER'>"
p262
sS'xmlescape'
p263
S'<function xmlescape>'
p264
sS'IS_TIME'
p265
S"<class 'gluon.validators.IS_TIME'>"
p266
sS'groupby'
p267
S"<type 'itertools.groupby'>"
p268
sS'OPTION'
p269
S"<class 'gluon.html.OPTION'>"
p270
sS'TITLE'
p271
S"<class 'gluon.html.TITLE'>"
p272
sS'projectstats'
p273
S'<Query (project.idproject = projectstat.idproject)>'
p274
sS'CRYPT'
p275
S"<class 'gluon.validators.CRYPT'>"
p276
sS'IS_EMPTY_OR'
p277
S"<class 'gluon.validators.IS_EMPTY_OR'>"
p278
sS'MARKMIN'
p279
S"<class 'gluon.html.MARKMIN'>"
p280
sS'__name__'
p281
S"'__restricted__'"
p282
sS'STRONG'
p283
S"<class 'gluon.html.STRONG'>"
p284
sS'COL'
p285
S"<class 'gluon.html.COL'>"
p286
sS'IS_EMAIL'
p287
S"<class 'gluon.validators.IS_EMAIL'>"
p288
sS'SCRIPT'
p289
S"<class 'gluon.html.SCRIPT'>"
p290
sS'notstartedprojects'
p291
S'<Query ((NOT (project.idproject IN (SELECT  open...osedproject.openprojectid FROM closedproject))))>'
p292
sS'TABLE'
p293
S"<class 'gluon.html.TABLE'>"
p294
sS'IS_IPV4'
p295
S"<class 'gluon.validators.IS_IPV4'>"
p296
sS'IS_LENGTH'
p297
S"<class 'gluon.validators.IS_LENGTH'>"
p298
sS'IS_IPV6'
p299
S"<class 'gluon.validators.IS_IPV6'>"
p300
sS'XML'
p301
S"<class 'gluon.html.XML'>"
p302
sS'B'
S"<class 'gluon.html.B'>"
p303
sS'IMG'
p304
S"<class 'gluon.html.IMG'>"
p305
sS'SQLTABLE'
p306
S"<class 'gluon.sqlhtml.SQLTABLE'>"
p307
sS'IS_MATCH'
p308
S"<class 'gluon.validators.IS_MATCH'>"
p309
sS'IS_ALPHANUMERIC'
p310
S"<class 'gluon.validators.IS_ALPHANUMERIC'>"
p311
sS'pledgestats'
p312
S'<Query (pledge.idpledge = pledgestat.idpledge)>'
p313
sS'SPAN'
p314
S"<class 'gluon.html.SPAN'>"
p315
sS'IS_JSON'
p316
S"<class 'gluon.validators.IS_JSON'>"
p317
sS'IS_IPADDRESS'
p318
S"<class 'gluon.validators.IS_IPADDRESS'>"
p319
sS'IS_SLUG'
p320
S"<class 'gluon.validators.IS_SLUG'>"
p321
sS'record'
p322
S"<Row {'project': {'categoryid': 8L, 'managerid':...ress': 0L, 'totalvalue': 0.0, 'remaining': 5.4}}>"
p323
sS'myprojects'
p324
S'<Query (project.managerid = 1)>'
p325
sS'BEAUTIFY'
p326
S"<class 'gluon.html.BEAUTIFY'>"
p327
sS'META'
p328
S"<class 'gluon.html.META'>"
p329
sS'IS_DATE'
p330
S"<class 'gluon.validators.IS_DATE'>"
p331
sS'menucategory'
p332
S"<Row {'name': 'Technology', 'idcategory': 9L, 'URL(': 'technology', 'id': 9L}>"
p333
sS'IS_NOT_EMPTY'
p334
S"<class 'gluon.validators.IS_NOT_EMPTY'>"
p335
sS'IS_FLOAT_IN_RANGE'
p336
S"<class 'gluon.validators.IS_FLOAT_IN_RANGE'>"
p337
sS'TBODY'
p338
S"<class 'gluon.html.TBODY'>"
p339
sS'CAT'
p340
S"<class 'gluon.html.CAT'>"
p341
sS'Field'
p342
S"<class 'gluon.dal.Field'>"
p343
sS'IS_LIST_OF_EMAILS'
p344
S"<class 'gluon.validators.IS_LIST_OF_EMAILS'>"
p345
sS'DIV'
p346
S"<class 'gluon.html.DIV'>"
p347
sS'LEGEND'
p348
S"<class 'gluon.html.LEGEND'>"
p349
sS'COLGROUP'
p350
S"<class 'gluon.html.COLGROUP'>"
p351
sS'DAL'
p352
S"<class 'gluon.dal.DAL'>"
p353
sS'TT'
p354
S"<class 'gluon.html.TT'>"
p355
sS'TR'
p356
S"<class 'gluon.html.TR'>"
p357
sS'LI'
p358
S"<class 'gluon.html.LI'>"
p359
sS'TH'
p360
S"<class 'gluon.html.TH'>"
p361
sS'TD'
p362
S"<class 'gluon.html.TD'>"
p363
sS'IS_URL('
p364
S"<class 'gluon.validators.IS_URL('>"
p365
sS'notfundedprojects'
p366
S'<Query (projectstat.funded = 0)>'
p367
sS'A'
S"<class 'gluon.html.A'>"
p368
sS'HEAD'
p369
S"<class 'gluon.html.HEAD'>"
p370
sS'IS_DATETIME_IN_RANGE'
p371
S"<class 'gluon.validators.IS_DATETIME_IN_RANGE'>"
p372
sS'closest'
p373
S'<Rows (5)>'
p374
sS'I'
S"<class 'gluon.html.I'>"
p375
sS'IS_NOT_IN_DB'
p376
S"<class 'gluon.validators.IS_NOT_IN_DB'>"
p377
sg121
S"<Storage {'body': <cStringIO.StringO object at 0...> at 0x11374f488>, 'view': 'project/index.html'}>"
p378
sS'THEAD'
p379
S"<class 'gluon.html.THEAD'>"
p380
sS'ANY_OF'
p381
S"<class 'gluon.validators.ANY_OF'>"
p382
sS'IS_NULL_OR'
p383
S"<class 'gluon.validators.IS_EMPTY_OR'>"
p384
sg56
S"<Storage {'_vars': None, 'function': 'index', 'c...ment/web2py-2.9.11/web2py/applications/bootup/'}>"
p385
sS'IS_EXPR'
p386
S"<class 'gluon.validators.IS_EXPR'>"
p387
sS'T'
S'<gluon.languages.translator object>'
p388
sS'my_string_widget'
p389
S'<function my_string_widget>'
p390
sS'IS_IN_SET'
p391
S"<class 'gluon.validators.IS_IN_SET'>"
p392
sS'IS_UPLOAD_FILENAME'
p393
S"<class 'gluon.validators.IS_UPLOAD_FILENAME'>"
p394
sS'ASSIGNJS'
p395
S'<function ASSIGNJS>'
p396
sS'IS_DECIMAL_IN_RANGE'
p397
S"<class 'gluon.validators.IS_DECIMAL_IN_RANGE'>"
p398
sssS'traceback'
p399
S'Traceback (most recent call last):\n  File "/Users/james/Documents/Dropbox/Uni/Year 4/iapt/assessment/web2py-2.9.11/web2py/gluon/restricted.py", line 224, in restricted\n    exec ccode in environment\n  File "/Users/james/Documents/Dropbox/Uni/Year 4/iapt/assessment/web2py-2.9.11/web2py/applications/bootup/views/project/index.html", line 45, in <module>\nNameError: name \'img\' is not defined\n'
p400
s.